------- FILE hero.asm LEVEL 1 PASS 1
      1  0000 ????						;-------------------------------------------------------------------------------
      2  0000 ????						;John Van Ryzin's H.E.R.O.
      3  0000 ????						;published by Activision
      4  0000 ????						;Amstrad CPC Port/Rewrite by Flynn, May 2005
      5  0000 ????						;
      6  0000 ????						;
      7  0000 ????						;sept. 3, 2005: added keyboard support
      8  0000 ????
hero.asm (9): error: Unknown Mnemonic 'nolist'.
      9  0000 ????				      nolist
     10  0000 ????
     11  0000 ????						;soundchip equates
     12  0000 ????	       00 00	   finea      equ	0
     13  0000 ????	       00 01	   coarsea    equ	1
     14  0000 ????	       00 02	   fineb      equ	2
     15  0000 ????	       00 03	   coarseb    equ	3
     16  0000 ????	       00 04	   finec      equ	4
     17  0000 ????	       00 05	   coarsec    equ	5
     18  0000 ????	       00 06	   noise      equ	6
     19  0000 ????	       00 07	   mixer      equ	7
     20  0000 ????	       00 08	   channela   equ	8
     21  0000 ????	       00 09	   channelb   equ	9
     22  0000 ????	       00 0a	   channelc   equ	10
     23  0000 ????	       00 0b	   envperiode_lo equ	11
     24  0000 ????	       00 0c	   envperiode_hi equ	12
     25  0000 ????	       00 0d	   envelope_shape equ	13
     26  0000 ????
     27  0000 ????	       00 0f	   soundfull  equ	%00001111
     28  0000 ????	       00 00	   soundpst   equ	%00000000
     29  0000 ????	       00 10	   envelope_on equ	%10000
     30  0000 ????	       00 2a	   mixer_default equ	%00101010
     31  0000 ????
     32  0000 ????						;x-positioning equates for life icons, bomb icons and score digits  
     33  0000 ????	       00 04	   posoffs    equ	4
     34  0000 ????	       00 1b	   posleft    equ	27
     35  0000 ????	       00 1b	   pos1       equ	posleft+(posoffs*0)
     36  0000 ????	       00 1f	   pos2       equ	posleft+(posoffs*1)
     37  0000 ????	       00 23	   pos3       equ	posleft+(posoffs*2)
     38  0000 ????	       00 27	   pos4       equ	posleft+(posoffs*3)
     39  0000 ????	       00 2b	   pos5       equ	posleft+(posoffs*4)
     40  0000 ????	       00 2f	   pos6       equ	posleft+(posoffs*5)
     41  0000 ????
     42  0000 ????	       00 0a	   topoffset  equ	10
     43  0000 ????	       00 17	   heroheight equ	23
     44  0000 ????
     45  0000 ????						;collision flags
     46  0000 ????	       00 00	   col_flag_compltl equ	0
     47  0000 ????	       00 01	   col_flag_compltr equ	1
     48  0000 ????	       00 02	   col_flag_enemy equ	2
     49  0000 ????	       00 03	   col_flag_lantern equ	3
     50  0000 ????	       00 04	   col_flag_flashw equ	4
     51  0000 ????	       00 05	   col_flag_bomb equ	5
     52  0000 ????	       00 06	   col_flag_water equ	6
     53  0000 ????
     54  0000 ????						;joystick buttons  
     55  0000 ????	       00 00	   joyup      equ	0
     56  0000 ????	       00 01	   joydown    equ	1
     57  0000 ????	       00 02	   joyleft    equ	2
     58  0000 ????	       00 03	   joyright   equ	3
     59  0000 ????	       00 04	   joyfire    equ	4
     60  0000 ????
     61  0000 ????						;-------------------------------------------------------------------------------
     62  0000 ????						;start game
hero.asm (63): error: Syntax Error ''.
     63  0000					      org	&100
     64  0000
     65  0000				   startgame
hero.asm (66): error: Unknown Mnemonic 'di'.
     66  0000					      di
hero.asm (67): error: Unknown Mnemonic 'im'.
     67  0000					      im	1
     68  0000
     69  0000							;-----------------------
     70  0000							;- start of init block -    
     71  0000							;-----------------------
hero.asm (72): error: Unknown Mnemonic 'ld'.
     72  0000					      ld	sp,&8000	;set stack pointer  
     73  0000
hero.asm (74): error: Unknown Mnemonic 'ld'.
     74  0000					      ld	hl,&c9fb	;patch rst38 -> ei ! ret
hero.asm (75): error: Unknown Mnemonic 'ld'.
     75  0000					      ld	(&38),hl
     76  0000
hero.asm (77): error: Unknown Mnemonic 'call'.
     77  0000					      call	blackout
hero.asm (78): error: Unknown Mnemonic 'call'.
     78  0000					      call	setupcrtc
hero.asm (79): error: Unknown Mnemonic 'call'.
     79  0000					      call	setupytab
     80  0000
hero.asm (81): error: Unknown Mnemonic 'ld'.
     81  0000					      ld	bc,&f700	;set PPI A & C to output
hero.asm (82): error: Unknown Mnemonic 'ld'.
     82  0000					      ld	a,%10000010
hero.asm (83): error: Unknown Mnemonic 'out'.
     83  0000					      out	(c),a
     84  0000
hero.asm (85): error: Unknown Mnemonic 'ld'.
     85  0000					      ld	bc,&7f00
hero.asm (86): error: Unknown Mnemonic 'ld'.
     86  0000					      ld	a,%10001100	;set mode 0/up dis, lo dis
hero.asm (87): error: Unknown Mnemonic 'out'.
     87  0000					      out	(c),a
     88  0000
hero.asm (89): error: Unknown Mnemonic 'ld'.
     89  0000					      ld	b,13
hero.asm (90): error: Unknown Mnemonic 'ld'.
     90  0000				   lppsgnul   ld	c,b
hero.asm (91): error: Unknown Mnemonic 'xor'.
     91  0000					      xor	a
hero.asm (92): error: Unknown Mnemonic 'push'.
     92  0000					      push	bc
hero.asm (93): error: Unknown Mnemonic 'call'.
     93  0000					      call	wrpsg
hero.asm (94): error: Unknown Mnemonic 'pop'.
     94  0000					      pop	bc
hero.asm (95): error: Unknown Mnemonic 'djnz'.
     95  0000					      djnz	lppsgnul
     96  0000
hero.asm (97): error: Unknown Mnemonic 'call'.
     97  0000					      call	allsoundstop
     98  0000
hero.asm (99): error: Unknown Mnemonic 'ld'.
     99  0000					      ld	c,envperiode_lo
hero.asm (100): error: Unknown Mnemonic 'xor'.
    100  0000					      xor	a	;duration = approx. 1s (12500*ts/16)
hero.asm (101): error: Unknown Mnemonic 'call'.
    101  0000					      call	wrpsg
    102  0000
    103  0000							;-----------------------
    104  0000							;-- end of init block --    
    105  0000							;-----------------------
    106  0000
    107  0000							;setup new game without screen swap
hero.asm (108): error: Unknown Mnemonic 'call'.
    108  0000					      call	resetgame
hero.asm (109): error: Unknown Mnemonic 'call'.
    109  0000					      call	swapscroutput
hero.asm (110): error: Unknown Mnemonic 'ld'.
    110  0000					      ld	bc,1
hero.asm (111): error: Unknown Mnemonic 'ld'.
    111  0000					      ld	d,201
hero.asm (112): error: Unknown Mnemonic 'ld'.
    112  0000					      ld	e,80
hero.asm (113): error: Unknown Mnemonic 'xor'.
    113  0000					      xor	a
hero.asm (114): error: Unknown Mnemonic 'call'.
    114  0000					      call	fillblock
hero.asm (115): error: Unknown Mnemonic 'call'.
    115  0000					      call	setuppowerpane
hero.asm (116): error: Unknown Mnemonic 'call'.
    116  0000					      call	setupactivision
hero.asm (117): error: Unknown Mnemonic 'call'.
    117  0000					      call	setuplevel
hero.asm (118): error: Unknown Mnemonic 'call'.
    118  0000					      call	drawlevel
hero.asm (119): error: Unknown Mnemonic 'call'.
    119  0000					      call	drawenergy
hero.asm (120): error: Unknown Mnemonic 'call'.
    120  0000					      call	drawlifes
hero.asm (121): error: Unknown Mnemonic 'call'.
    121  0000					      call	drawbombs
hero.asm (122): error: Unknown Mnemonic 'call'.
    122  0000					      call	drawscore
hero.asm (123): error: Unknown Mnemonic 'call'.
    123  0000					      call	swapscroutput
hero.asm (124): error: Unknown Mnemonic 'ld'.
    124  0000					      ld	bc,1
hero.asm (125): error: Unknown Mnemonic 'ld'.
    125  0000					      ld	d,201
hero.asm (126): error: Unknown Mnemonic 'ld'.
    126  0000					      ld	e,80
hero.asm (127): error: Unknown Mnemonic 'xor'.
    127  0000					      xor	a
hero.asm (128): error: Unknown Mnemonic 'call'.
    128  0000					      call	fillblock
hero.asm (129): error: Unknown Mnemonic 'call'.
    129  0000					      call	setuppowerpane
hero.asm (130): error: Unknown Mnemonic 'call'.
    130  0000					      call	setupactivision
hero.asm (131): error: Unknown Mnemonic 'call'.
    131  0000					      call	drawenergy
hero.asm (132): error: Unknown Mnemonic 'call'.
    132  0000					      call	drawlifes
hero.asm (133): error: Unknown Mnemonic 'call'.
    133  0000					      call	drawbombs
hero.asm (134): error: Unknown Mnemonic 'call'.
    134  0000					      call	drawscore
hero.asm (135): error: Unknown Mnemonic 'call'.
    135  0000					      call	swapscroutput
    136  0000
    137  0000							;program loop
    138  0000							;jumps here, if game over    
hero.asm (139): error: Unknown Mnemonic 'call'.
    139  0000					      call	swapscroutput
hero.asm (140): error: Unknown Mnemonic 'call'.
    140  0000					      call	drawtitlescreen
hero.asm (141): error: Unknown Mnemonic 'call'.
    141  0000					      call	swapscreen
hero.asm (142): error: Unknown Mnemonic 'call'.
    142  0000					      call	unblackout
hero.asm (143): error: Unknown Mnemonic 'call'.
    143  0000					      call	setlevelcolour
hero.asm (144): error: Unknown Mnemonic 'call'.
    144  0000				   pgmloop    call	writinganimation
    145  0000
    146  0000							;setup new game with screen swap!!			       
hero.asm (147): error: Unknown Mnemonic 'call'.
    147  0000					      call	resetgame
hero.asm (148): error: Unknown Mnemonic 'call'.
    148  0000					      call	swapscroutput
hero.asm (149): error: Unknown Mnemonic 'ld'.
    149  0000					      ld	bc,1
hero.asm (150): error: Unknown Mnemonic 'ld'.
    150  0000					      ld	d,201
hero.asm (151): error: Unknown Mnemonic 'ld'.
    151  0000					      ld	e,80
hero.asm (152): error: Unknown Mnemonic 'xor'.
    152  0000					      xor	a
hero.asm (153): error: Unknown Mnemonic 'call'.
    153  0000					      call	fillblock
hero.asm (154): error: Unknown Mnemonic 'call'.
    154  0000					      call	setuppowerpane
hero.asm (155): error: Unknown Mnemonic 'call'.
    155  0000					      call	setupactivision
hero.asm (156): error: Unknown Mnemonic 'call'.
    156  0000					      call	setuplevel
hero.asm (157): error: Unknown Mnemonic 'call'.
    157  0000					      call	drawlevel
hero.asm (158): error: Unknown Mnemonic 'call'.
    158  0000					      call	drawenergy
hero.asm (159): error: Unknown Mnemonic 'call'.
    159  0000					      call	drawlifes
hero.asm (160): error: Unknown Mnemonic 'call'.
    160  0000					      call	drawbombs
hero.asm (161): error: Unknown Mnemonic 'call'.
    161  0000					      call	drawscore
hero.asm (162): error: Unknown Mnemonic 'call'.
    162  0000					      call	swapscreen
hero.asm (163): error: Unknown Mnemonic 'call'.
    163  0000					      call	setlevelcolour
hero.asm (164): error: Unknown Mnemonic 'call'.
    164  0000					      call	swapscroutput
hero.asm (165): error: Unknown Mnemonic 'ld'.
    165  0000					      ld	bc,1
hero.asm (166): error: Unknown Mnemonic 'ld'.
    166  0000					      ld	d,201
hero.asm (167): error: Unknown Mnemonic 'ld'.
    167  0000					      ld	e,80
hero.asm (168): error: Unknown Mnemonic 'xor'.
    168  0000					      xor	a
hero.asm (169): error: Unknown Mnemonic 'call'.
    169  0000					      call	fillblock
hero.asm (170): error: Unknown Mnemonic 'call'.
    170  0000					      call	setuppowerpane
hero.asm (171): error: Unknown Mnemonic 'call'.
    171  0000					      call	setupactivision
hero.asm (172): error: Unknown Mnemonic 'call'.
    172  0000					      call	drawenergy
hero.asm (173): error: Unknown Mnemonic 'call'.
    173  0000					      call	drawlifes
hero.asm (174): error: Unknown Mnemonic 'call'.
    174  0000					      call	drawbombs
hero.asm (175): error: Unknown Mnemonic 'call'.
    175  0000					      call	drawscore
hero.asm (176): error: Unknown Mnemonic 'call'.
    176  0000					      call	swapscroutput
hero.asm (177): error: Unknown Mnemonic 'call'.
    177  0000					      call	resetgame
    178  0000
    179  0000							;skill selector
hero.asm (180): error: Unknown Mnemonic 'xor'.
    180  0000					      xor	a
hero.asm (181): error: Unknown Mnemonic 'ld'.
    181  0000					      ld	(rungame5),a
    182  0000
hero.asm (183): error: Unknown Mnemonic 'ld'.
    183  0000				   sklrstrt   ld	a,%00010000
hero.asm (184): error: Unknown Mnemonic 'call'.
    184  0000					      call	selectdingsound
hero.asm (185): error: Unknown Mnemonic 'xor'.
    185  0000					      xor	a
hero.asm (186): error: Unknown Mnemonic 'ld'.
    186  0000					      ld	(skilblnk),a
    187  0000					      set	7,a
hero.asm (188): error: Unknown Mnemonic 'ld'.
    188  0000					      ld	(sklfirpr),a
hero.asm (189): error: Unknown Mnemonic 'ld'.
    189  0000				   sklselc1   ld	a,sklblnkinit
hero.asm (190): error: Unknown Mnemonic 'ld'.
    190  0000					      ld	(sklblctr),a
    191  0000
hero.asm (192): error: Unknown Mnemonic 'ld'.
    192  0000				   sklselc2   ld	a,(skilblnk)
hero.asm (193): error: Unknown Mnemonic 'or'.
    193  0000					      or	a
hero.asm (194): error: Unknown Mnemonic 'jr'.
    194  0000					      jr	z,sklshow
    195  0000
hero.asm (196): error: Unknown Mnemonic 'xor'.
    196  0000					      xor	a
hero.asm (197): error: Unknown Mnemonic 'ld'.
    197  0000					      ld	(skilblnk),a
hero.asm (198): error: Unknown Mnemonic 'call'.
    198  0000					      call	clearlevel
hero.asm (199): error: Unknown Mnemonic 'jr'.
    199  0000					      jr	sklselct
    200  0000
    201  0000				   sklshow    set	7,a
hero.asm (202): error: Unknown Mnemonic 'ld'.
    202  0000					      ld	(skilblnk),a
hero.asm (203): error: Unknown Mnemonic 'call'.
    203  0000					      call	clearlevel
hero.asm (204): error: Unknown Mnemonic 'ld'.
    204  0000					      ld	b,pos1+1
hero.asm (205): error: Unknown Mnemonic 'ld'.
    205  0000					      ld	c,168+topoffset
hero.asm (206): error: Unknown Mnemonic 'ld'.
    206  0000					      ld	de,&1107
hero.asm (207): error: Unknown Mnemonic 'ld'.
    207  0000					      ld	hl,skill
hero.asm (208): error: Unknown Mnemonic 'call'.
    208  0000					      call	drawsprite
    209  0000
hero.asm (210): error: Unknown Mnemonic 'ld'.
    210  0000					      ld	a,(selskill)
hero.asm (211): error: Unknown Mnemonic 'and'.
    211  0000					      and	a
hero.asm (212): error: Unknown Mnemonic 'sla'.
    212  0000					      sla	a
hero.asm (213): error: Unknown Mnemonic 'ld'.
    213  0000					      ld	e,a
hero.asm (214): error: Unknown Mnemonic 'ld'.
    214  0000					      ld	d,0
hero.asm (215): error: Unknown Mnemonic 'ld'.
    215  0000					      ld	hl,numbadr
hero.asm (216): error: Unknown Mnemonic 'add'.
    216  0000					      add	hl,de
hero.asm (217): error: Unknown Mnemonic 'ld'.
    217  0000					      ld	e,(hl)
hero.asm (218): error: Unknown Mnemonic 'inc'.
    218  0000					      inc	hl
hero.asm (219): error: Unknown Mnemonic 'ld'.
    219  0000					      ld	d,(hl)
hero.asm (220): error: Unknown Mnemonic 'ex'.
    220  0000					      ex	de,hl
hero.asm (221): error: Unknown Mnemonic 'ld'.
    221  0000					      ld	b,pos6
hero.asm (222): error: Unknown Mnemonic 'ld'.
    222  0000					      ld	c,168+topoffset
hero.asm (223): error: Unknown Mnemonic 'ld'.
    223  0000					      ld	de,&0307	;width, height
hero.asm (224): error: Unknown Mnemonic 'call'.
    224  0000					      call	drawsprite
    225  0000
hero.asm (226): error: Unknown Mnemonic 'call'.
    226  0000				   sklselct   call	waitvsync
hero.asm (227): error: Unknown Mnemonic 'call'.
    227  0000					      call	flashwalls
hero.asm (228): error: Unknown Mnemonic 'call'.
    228  0000					      call	readjoystick
hero.asm (229): error: Unknown Mnemonic 'ld'.
    229  0000					      ld	a,(sklfirpr)
hero.asm (230): error: Unknown Mnemonic 'or'.
    230  0000					      or	a
hero.asm (231): error: Unknown Mnemonic 'jr'.
    231  0000					      jr	z,sklcheck
hero.asm (232): error: Unknown Mnemonic 'ld'.
    232  0000					      ld	a,(joybyte)
hero.asm (233): error: Unknown Mnemonic 'or'.
    233  0000					      or	a
hero.asm (234): error: Unknown Mnemonic 'jp'.
    234  0000					      jp	nz,sklnochk
    235  0000
hero.asm (236): error: Unknown Mnemonic 'ld'.
    236  0000				   sklcheck   ld	a,(joybyte)
hero.asm (237): error: Unknown Mnemonic 'ld'.
    237  0000					      ld	(sklfirpr),a
hero.asm (238): error: Unknown Mnemonic 'bit'.
    238  0000					      bit	joyleft,a
hero.asm (239): error: Unknown Mnemonic 'jr'.
    239  0000					      jr	nz,sklleft
hero.asm (240): error: Unknown Mnemonic 'bit'.
    240  0000					      bit	joyright,a
hero.asm (241): error: Unknown Mnemonic 'jr'.
    241  0000					      jr	nz,sklright
hero.asm (242): error: Unknown Mnemonic 'bit'.
    242  0000					      bit	joyfire,a
hero.asm (243): error: Unknown Mnemonic 'jr'.
    243  0000					      jr	nz,sklfire
hero.asm (244): error: Unknown Mnemonic 'jp'.
    244  0000					      jp	sklnochk
    245  0000
hero.asm (246): error: Unknown Mnemonic 'ld'.
    246  0000				   sklright   ld	a,(selskill)
hero.asm (247): error: Unknown Mnemonic 'inc'.
    247  0000					      inc	a
hero.asm (248): error: Unknown Mnemonic 'cp'.
    248  0000					      cp	6
hero.asm (249): error: Unknown Mnemonic 'jr'.
    249  0000					      jr	nz,sklrtwr
hero.asm (250): error: Unknown Mnemonic 'ld'.
    250  0000					      ld	a,1
hero.asm (251): error: Unknown Mnemonic 'ld'.
    251  0000				   sklrtwr    ld	(selskill),a
hero.asm (252): error: Unknown Mnemonic 'jp'.
    252  0000					      jp	sklrstrt
    253  0000
hero.asm (254): error: Unknown Mnemonic 'ld'.
    254  0000				   sklleft    ld	a,(selskill)
hero.asm (255): error: Unknown Mnemonic 'dec'.
    255  0000					      dec	a
hero.asm (256): error: Unknown Mnemonic 'or'.
    256  0000					      or	a
hero.asm (257): error: Unknown Mnemonic 'jr'.
    257  0000					      jr	nz,sklltwr
hero.asm (258): error: Unknown Mnemonic 'ld'.
    258  0000					      ld	a,5
hero.asm (259): error: Unknown Mnemonic 'ld'.
    259  0000				   sklltwr    ld	(selskill),a
hero.asm (260): error: Unknown Mnemonic 'jp'.
    260  0000					      jp	sklrstrt
    261  0000
hero.asm (262): error: Unknown Mnemonic 'ld'.
    262  0000				   sklfire    ld	a,(selskill)
hero.asm (263): error: Unknown Mnemonic 'cp'.
    263  0000					      cp	5
hero.asm (264): error: Unknown Mnemonic 'jr'.
    264  0000					      jr	z,sklpro
hero.asm (265): error: Unknown Mnemonic 'cp'.
    265  0000					      cp	4
hero.asm (266): error: Unknown Mnemonic 'jr'.
    266  0000					      jr	z,sklgm4
hero.asm (267): error: Unknown Mnemonic 'cp'.
    267  0000					      cp	3
hero.asm (268): error: Unknown Mnemonic 'jr'.
    268  0000					      jr	z,sklgm3
hero.asm (269): error: Unknown Mnemonic 'cp'.
    269  0000					      cp	2
hero.asm (270): error: Unknown Mnemonic 'jr'.
    270  0000					      jr	z,sklgm2
    271  0000
    272  0000							;game 1	 
hero.asm (273): error: Unknown Mnemonic 'xor'.
    273  0000					      xor	a
hero.asm (274): error: Unknown Mnemonic 'ld'.
    274  0000					      ld	(prolevel),a
hero.asm (275): error: Unknown Mnemonic 'ld'.
    275  0000					      ld	(level),a
hero.asm (276): error: Unknown Mnemonic 'ld'.
    276  0000					      ld	hl,level1
hero.asm (277): error: Unknown Mnemonic 'ld'.
    277  0000					      ld	a,1
hero.asm (278): error: Unknown Mnemonic 'ld'.
    278  0000					      ld	(level+1),a
hero.asm (279): error: Unknown Mnemonic 'ld'.
    279  0000					      ld	(levnumbr),a
hero.asm (280): error: Unknown Mnemonic 'jr'.
    280  0000					      jr	sklout
    281  0000
    282  0000							;game 2	 
hero.asm (283): error: Unknown Mnemonic 'xor'.
    283  0000				   sklgm2     xor	a
hero.asm (284): error: Unknown Mnemonic 'ld'.
    284  0000					      ld	(prolevel),a
hero.asm (285): error: Unknown Mnemonic 'ld'.
    285  0000					      ld	(level),a
hero.asm (286): error: Unknown Mnemonic 'ld'.
    286  0000					      ld	hl,level5
hero.asm (287): error: Unknown Mnemonic 'ld'.
    287  0000					      ld	a,5
hero.asm (288): error: Unknown Mnemonic 'ld'.
    288  0000					      ld	(level+1),a
hero.asm (289): error: Unknown Mnemonic 'ld'.
    289  0000					      ld	(levnumbr),a
hero.asm (290): error: Unknown Mnemonic 'jr'.
    290  0000					      jr	sklout
    291  0000
    292  0000							;game 3	 
hero.asm (293): error: Unknown Mnemonic 'xor'.
    293  0000				   sklgm3     xor	a
hero.asm (294): error: Unknown Mnemonic 'ld'.
    294  0000					      ld	(prolevel),a
hero.asm (295): error: Unknown Mnemonic 'ld'.
    295  0000					      ld	(level),a
hero.asm (296): error: Unknown Mnemonic 'ld'.
    296  0000					      ld	hl,level9
hero.asm (297): error: Unknown Mnemonic 'ld'.
    297  0000					      ld	a,9
hero.asm (298): error: Unknown Mnemonic 'ld'.
    298  0000					      ld	(level+1),a
hero.asm (299): error: Unknown Mnemonic 'ld'.
    299  0000					      ld	(levnumbr),a
hero.asm (300): error: Unknown Mnemonic 'jr'.
    300  0000					      jr	sklout
    301  0000
    302  0000							;game 4	 
hero.asm (303): error: Unknown Mnemonic 'xor'.
    303  0000				   sklgm4     xor	a
hero.asm (304): error: Unknown Mnemonic 'ld'.
    304  0000					      ld	(prolevel),a
hero.asm (305): error: Unknown Mnemonic 'ld'.
    305  0000					      ld	hl,level13
hero.asm (306): error: Unknown Mnemonic 'ld'.
    306  0000					      ld	a,1
hero.asm (307): error: Unknown Mnemonic 'ld'.
    307  0000					      ld	(level),a
hero.asm (308): error: Unknown Mnemonic 'ld'.
    308  0000					      ld	a,3
hero.asm (309): error: Unknown Mnemonic 'ld'.
    309  0000					      ld	(level+1),a
hero.asm (310): error: Unknown Mnemonic 'ld'.
    310  0000					      ld	a,13
hero.asm (311): error: Unknown Mnemonic 'ld'.
    311  0000					      ld	(levnumbr),a
hero.asm (312): error: Unknown Mnemonic 'jr'.
    312  0000					      jr	sklout
    313  0000
    314  0000							;game 5/pro	     
hero.asm (315): error: Unknown Mnemonic 'ld'.
    315  0000				   sklpro     ld	a,1
hero.asm (316): error: Unknown Mnemonic 'ld'.
    316  0000					      ld	(prolevel),a
hero.asm (317): error: Unknown Mnemonic 'ld'.
    317  0000					      ld	(rungame5),a
hero.asm (318): error: Unknown Mnemonic 'ld'.
    318  0000					      ld	hl,level17
    319  0000
hero.asm (320): error: Unknown Mnemonic 'ld'.
    320  0000				   sklout     ld	(pnextlev),hl
    321  0000
hero.asm (322): error: Unknown Mnemonic 'ld'.
    322  0000					      ld	a,%00010111
hero.asm (323): error: Unknown Mnemonic 'call'.
    323  0000					      call	selectdingsound
hero.asm (324): error: Unknown Mnemonic 'call'.
    324  0000					      call	clearlevel
hero.asm (325): error: Unknown Mnemonic 'call'.
    325  0000					      call	drawscore
hero.asm (326): error: Unknown Mnemonic 'call'.
    326  0000					      call	showlevel
hero.asm (327): error: Unknown Mnemonic 'ld'.
    327  0000					      ld	b,6
hero.asm (328): error: Unknown Mnemonic 'push'.
    328  0000				   waitding   push	bc
hero.asm (329): error: Unknown Mnemonic 'call'.
    329  0000					      call	waitvsync
hero.asm (330): error: Unknown Mnemonic 'ei'.
    330  0000					      ei
hero.asm (331): error: Unknown Mnemonic 'halt'.
    331  0000					      halt
hero.asm (332): error: Unknown Mnemonic 'halt'.
    332  0000					      halt
hero.asm (333): error: Unknown Mnemonic 'di'.
    333  0000					      di
hero.asm (334): error: Unknown Mnemonic 'pop'.
    334  0000					      pop	bc
hero.asm (335): error: Unknown Mnemonic 'djnz'.
    335  0000					      djnz	waitding
    336  0000
hero.asm (337): error: Unknown Mnemonic 'call'.
    337  0000					      call	allsoundstop
hero.asm (338): error: Unknown Mnemonic 'ld'.
    338  0000					      ld	c,envperiode_hi
hero.asm (339): error: Unknown Mnemonic 'ld'.
    339  0000					      ld	a,13
hero.asm (340): error: Unknown Mnemonic 'call'.
    340  0000					      call	wrpsg
hero.asm (341): error: Unknown Mnemonic 'ld'.
    341  0000					      ld	c,mixer
hero.asm (342): error: Unknown Mnemonic 'ld'.
    342  0000					      ld	a,mixer_default
hero.asm (343): error: Unknown Mnemonic 'call'.
    343  0000					      call	wrpsg
hero.asm (344): error: Unknown Mnemonic 'jr'.
    344  0000					      jr	newlevel
    345  0000
hero.asm (346): error: Unknown Mnemonic 'ei'.
    346  0000				   sklnochk   ei
hero.asm (347): error: Unknown Mnemonic 'halt'.
    347  0000					      halt
hero.asm (348): error: Unknown Mnemonic 'halt'.
    348  0000					      halt
hero.asm (349): error: Unknown Mnemonic 'di'.
    349  0000					      di
hero.asm (350): error: Unknown Mnemonic 'ld'.
    350  0000					      ld	a,(sklblctr)
hero.asm (351): error: Unknown Mnemonic 'or'.
    351  0000					      or	a
hero.asm (352): error: Unknown Mnemonic 'jp'.
    352  0000					      jp	z,sklselc1
hero.asm (353): error: Unknown Mnemonic 'dec'.
    353  0000					      dec	a
hero.asm (354): error: Unknown Mnemonic 'ld'.
    354  0000					      ld	(sklblctr),a
hero.asm (355): error: Unknown Mnemonic 'jp'.
    355  0000					      jp	sklselct
    356  0000
    357  0000							;new level begins here
hero.asm (358): error: Unknown Mnemonic 'ld'.
    358  0000				   newlevel   ld	a,15	;46		;set hero startpos x
hero.asm (359): error: Unknown Mnemonic 'ld'.
    359  0000					      ld	(herox),a
hero.asm (360): error: Unknown Mnemonic 'ld'.
    360  0000					      ld	(newherox),a
hero.asm (361): error: Unknown Mnemonic 'call'.
    361  0000					      call	setuplevel
hero.asm (362): error: Unknown Mnemonic 'ld'.
    362  0000					      ld	a,1
hero.asm (363): error: Unknown Mnemonic 'ld'.
    363  0000					      ld	(newlevl),a
hero.asm (364): error: Unknown Mnemonic 'ld'.
    364  0000					      ld	a,6
hero.asm (365): error: Unknown Mnemonic 'ld'.
    365  0000					      ld	(bombs),a
hero.asm (366): error: Unknown Mnemonic 'ld'.
    366  0000					      ld	a,powercntrinit
hero.asm (367): error: Unknown Mnemonic 'ld'.
    367  0000					      ld	(powercnt),a
hero.asm (368): error: Unknown Mnemonic 'xor'.
    368  0000					      xor	a
hero.asm (369): error: Unknown Mnemonic 'ld'.
    369  0000					      ld	(timeout),a
    370  0000
    371  0000							;level restarts here, after hero has died 
hero.asm (372): error: Unknown Mnemonic 'ld'.
    372  0000				   restart    ld	c,channelb	;volume b, pssst!!!
hero.asm (373): error: Unknown Mnemonic 'ld'.
    373  0000					      ld	a,%00000000
hero.asm (374): error: Unknown Mnemonic 'call'.
    374  0000					      call	wrpsg
    375  0000
hero.asm (376): error: Unknown Mnemonic 'ld'.
    376  0000					      ld	a,&c9	;patch make roto sound
hero.asm (377): error: Unknown Mnemonic 'ld'.
    377  0000					      ld	(makerotosound),a
    378  0000
hero.asm (379): error: Unknown Mnemonic 'call'.
    379  0000					      call	swapscroutput	;setup new level
hero.asm (380): error: Unknown Mnemonic 'call'.
    380  0000					      call	drawlevel
hero.asm (381): error: Unknown Mnemonic 'call'.
    381  0000					      call	drawenergy
hero.asm (382): error: Unknown Mnemonic 'call'.
    382  0000					      call	drawlifes
hero.asm (383): error: Unknown Mnemonic 'call'.
    383  0000					      call	drawbombs
hero.asm (384): error: Unknown Mnemonic 'call'.
    384  0000					      call	drawscore
hero.asm (385): error: Unknown Mnemonic 'call'.
    385  0000					      call	swapscreen
hero.asm (386): error: Unknown Mnemonic 'call'.
    386  0000					      call	setlevelcolour
hero.asm (387): error: Unknown Mnemonic 'call'.
    387  0000					      call	swapscroutput
hero.asm (388): error: Unknown Mnemonic 'call'.
    388  0000					      call	clearlevel
hero.asm (389): error: Unknown Mnemonic 'call'.
    389  0000					      call	drawscore
hero.asm (390): error: Unknown Mnemonic 'call'.
    390  0000					      call	swapscroutput
    391  0000
hero.asm (392): error: Unknown Mnemonic 'xor'.
    392  0000					      xor	a	;start level, hero is flying
hero.asm (393): error: Unknown Mnemonic 'ld'.
    393  0000					      ld	(herodir),a
hero.asm (394): error: Unknown Mnemonic 'cpl'.
    394  0000					      cpl
hero.asm (395): error: Unknown Mnemonic 'ld'.
    395  0000					      ld	(herofly),a	;hero is flying
hero.asm (396): error: Unknown Mnemonic 'call'.
    396  0000					      call	fillenergy	;fill up energy "movie"     
    397  0000
hero.asm (398): error: Unknown Mnemonic 'xor'.
    398  0000					      xor	a	;no old laser to be erased
hero.asm (399): error: Unknown Mnemonic 'ld'.
    399  0000					      ld	(oldlasln),a
hero.asm (400): error: Unknown Mnemonic 'ld'.
    400  0000					      ld	(bombset),a	;no bombset
hero.asm (401): error: Unknown Mnemonic 'ld'.
    401  0000					      ld	(dntvsync),a	;no "no vsync" flag
hero.asm (402): error: Unknown Mnemonic 'ld'.
    402  0000					      ld	(updtscre),a	;no "update score" flag
hero.asm (403): error: Unknown Mnemonic 'ld'.
    403  0000					      ld	(heroclsn),a	;clear collision flags 	
hero.asm (404): error: Unknown Mnemonic 'ld'.
    404  0000					      ld	(newlevl),a	;no new level!!!
hero.asm (405): error: Unknown Mnemonic 'ld'.
    405  0000					      ld	a,bmbsndinit
hero.asm (406): error: Unknown Mnemonic 'ld'.
    406  0000					      ld	(bombsnd),a
hero.asm (407): error: Unknown Mnemonic 'ld'.
    407  0000					      ld	a,boumdlyinit
hero.asm (408): error: Unknown Mnemonic 'ld'.
    408  0000					      ld	(boumctr),a
    409  0000
    410  0000							;*****************************
    411  0000							;****** game loop start ******
    412  0000							;*****************************
    413  0000
    414  0000				   gameloop		;update changed x,y 
hero.asm (415): error: Unknown Mnemonic 'ld'.
    415  0000					      ld	a,(newherox)
hero.asm (416): error: Unknown Mnemonic 'ld'.
    416  0000					      ld	(herox),a
hero.asm (417): error: Unknown Mnemonic 'ld'.
    417  0000					      ld	a,(newheroy)
hero.asm (418): error: Unknown Mnemonic 'ld'.
    418  0000					      ld	(heroy),a
    419  0000
    420  0000							;draw hero twice, 2x vsync
hero.asm (421): error: Unknown Mnemonic 'ld'.
    421  0000					      ld	b,2
hero.asm (422): error: Unknown Mnemonic 'push'.
    422  0000				   vsrep      push	bc
hero.asm (423): error: Unknown Mnemonic 'ld'.
    423  0000					      ld	a,(dntvsync)
hero.asm (424): error: Unknown Mnemonic 'or'.
    424  0000					      or	a
hero.asm (425): error: Unknown Mnemonic 'jr'.
    425  0000					      jr	nz,refiff
hero.asm (426): error: Unknown Mnemonic 'ld'.
    426  0000					      ld	b,&F5
hero.asm (427): error: Unknown Mnemonic 'in'.
    427  0000				   vsync2     in	a,(c)
hero.asm (428): error: Unknown Mnemonic 'rra'.
    428  0000					      rra
hero.asm (429): error: Unknown Mnemonic 'jr'.
    429  0000					      jr	nc,vsync2
hero.asm (430): error: Unknown Mnemonic 'jr'.
    430  0000					      jr	vsync3
    431  0000
hero.asm (432): error: Unknown Mnemonic 'ei'.
    432  0000				   refiff     ei
hero.asm (433): error: Unknown Mnemonic 'halt'.
    433  0000					      halt
hero.asm (434): error: Unknown Mnemonic 'di'.
    434  0000					      di
    435  0000							;flashing col
hero.asm (436): error: Unknown Mnemonic 'call'.
    436  0000				   vsync3     call	flashwalls
    437  0000
    438  0000							;roderick is standing on raft -> movement patch
hero.asm (439): error: Unknown Mnemonic 'ld'.
    439  0000					      ld	a,(heroonraft)
hero.asm (440): error: Unknown Mnemonic 'or'.
    440  0000					      or	a
hero.asm (441): error: Unknown Mnemonic 'jr'.
    441  0000					      jr	z,dhnormal
hero.asm (442): error: Unknown Mnemonic 'ld'.
    442  0000					      ld	a,(herox)
hero.asm (443): error: Unknown Mnemonic 'ld'.
    443  0000					      ld	b,a
hero.asm (444): error: Unknown Mnemonic 'ld'.
    444  0000					      ld	a,(heroy)
hero.asm (445): error: Unknown Mnemonic 'ld'.
    445  0000					      ld	c,a
hero.asm (446): error: Unknown Mnemonic 'ld'.
    446  0000					      ld	de,&0418
hero.asm (447): error: Unknown Mnemonic 'ld'.
    447  0000					      ld	hl,heroback
hero.asm (448): error: Unknown Mnemonic 'push'.
    448  0000					      push	de
hero.asm (449): error: Unknown Mnemonic 'push'.
    449  0000					      push	hl
hero.asm (450): error: Unknown Mnemonic 'call'.
    450  0000					      call	drawbackground
hero.asm (451): error: Unknown Mnemonic 'pop'.
    451  0000					      pop	hl
hero.asm (452): error: Unknown Mnemonic 'pop'.
    452  0000					      pop	de
hero.asm (453): error: Unknown Mnemonic 'ld'.
    453  0000					      ld	a,(newherox)
hero.asm (454): error: Unknown Mnemonic 'ld'.
    454  0000					      ld	(herox),a
hero.asm (455): error: Unknown Mnemonic 'ld'.
    455  0000					      ld	b,a
hero.asm (456): error: Unknown Mnemonic 'ld'.
    456  0000					      ld	a,(newheroy)
hero.asm (457): error: Unknown Mnemonic 'ld'.
    457  0000					      ld	(heroy),a
hero.asm (458): error: Unknown Mnemonic 'ld'.
    458  0000					      ld	c,a
hero.asm (459): error: Unknown Mnemonic 'call'.
    459  0000					      call	savebackground
hero.asm (460): error: Unknown Mnemonic 'xor'.
    460  0000					      xor	a	;nop
hero.asm (461): error: Unknown Mnemonic 'jr'.
    461  0000					      jr	dhnorm2
    462  0000
    463  0000							;normal draw hero twice
hero.asm (464): error: Unknown Mnemonic 'ld'.
    464  0000				   dhnormal   ld	a,&76	;halt 
hero.asm (465): error: Unknown Mnemonic 'ld'.
    465  0000				   dhnorm2    ld	(dcrpjmpi),a
hero.asm (466): error: Unknown Mnemonic 'ld'.
    466  0000					      ld	(dcrpjmpi+1),a
hero.asm (467): error: Unknown Mnemonic 'ld'.
    467  0000					      ld	(hltptch2),a
hero.asm (468): error: Unknown Mnemonic 'ld'.
    468  0000					      ld	(hltptch3),a
hero.asm (469): error: Unknown Mnemonic 'call'.
    469  0000					      call	drawhero
hero.asm (470): error: Unknown Mnemonic 'ld'.
    470  0000					      ld	a,(dntvsync)
hero.asm (471): error: Unknown Mnemonic 'or'.
    471  0000					      or	a
hero.asm (472): error: Unknown Mnemonic 'jr'.
    472  0000					      jr	nz,gl2
hero.asm (473): error: Unknown Mnemonic 'call'.
    473  0000					      call	vsyncgap
hero.asm (474): error: Unknown Mnemonic 'xor'.
    474  0000				   gl2	      xor	a
hero.asm (475): error: Unknown Mnemonic 'ld'.
    475  0000					      ld	(joybyte),a
    476  0000
    477  0000							;crushing walls?
hero.asm (478): error: Unknown Mnemonic 'pop'.
    478  0000					      pop	bc
hero.asm (479): error: Unknown Mnemonic 'push'.
    479  0000					      push	bc
hero.asm (480): error: Unknown Mnemonic 'ld'.
    480  0000					      ld	a,b
hero.asm (481): error: Unknown Mnemonic 'cp'.
    481  0000					      cp	2
hero.asm (482): error: Unknown Mnemonic 'jp'.
    482  0000					      jp	nz,crushend
hero.asm (483): error: Unknown Mnemonic 'ld'.
    483  0000					      ld	hl,(clvptrb1)
hero.asm (484): error: Unknown Mnemonic 'ld'.
    484  0000					      ld	de,120
hero.asm (485): error: Unknown Mnemonic 'add'.
    485  0000					      add	hl,de
hero.asm (486): error: Unknown Mnemonic 'bit'.
    486  0000					      bit	7,(hl)
hero.asm (487): error: Unknown Mnemonic 'jp'.
    487  0000					      jp	z,crushend
    488  0000
hero.asm (489): error: Unknown Mnemonic 'ld'.
    489  0000					      ld	a,(crushctr)
hero.asm (490): error: Unknown Mnemonic 'or'.
    490  0000					      or	a
hero.asm (491): error: Unknown Mnemonic 'jr'.
    491  0000					      jr	z,crushgo
hero.asm (492): error: Unknown Mnemonic 'dec'.
    492  0000					      dec	a
hero.asm (493): error: Unknown Mnemonic 'ld'.
    493  0000					      ld	(crushctr),a
hero.asm (494): error: Unknown Mnemonic 'jp'.
    494  0000					      jp	crushend
    495  0000
hero.asm (496): error: Unknown Mnemonic 'ld'.
    496  0000				   crushgo    ld	a,crushctrinit
hero.asm (497): error: Unknown Mnemonic 'ld'.
    497  0000					      ld	(crushctr),a
    498  0000
hero.asm (499): error: Unknown Mnemonic 'xor'.
    499  0000					      xor	a	;patch halt to nop
hero.asm (500): error: Unknown Mnemonic 'ld'.
    500  0000					      ld	(dcrpjmpi),a
    501  0000
hero.asm (502): error: Unknown Mnemonic 'inc'.
    502  0000					      inc	hl
hero.asm (503): error: Unknown Mnemonic 'inc'.
    503  0000					      inc	hl
hero.asm (504): error: Unknown Mnemonic 'inc'.
    504  0000					      inc	hl
hero.asm (505): error: Unknown Mnemonic 'inc'.
    505  0000					      inc	hl
hero.asm (506): error: Unknown Mnemonic 'ld'.
    506  0000					      ld	a,(hl)	;crush block cntr
hero.asm (507): error: Unknown Mnemonic 'bit'.
    507  0000					      bit	7,a
hero.asm (508): error: Unknown Mnemonic 'jp'.
    508  0000					      jp	nz,crushopn
    509  0000
    510  0000							;***CRUSH CLOSE***	    
hero.asm (511): error: Unknown Mnemonic 'ld'.
    511  0000					      ld	b,a
hero.asm (512): error: Unknown Mnemonic 'or'.
    512  0000					      or	a
hero.asm (513): error: Unknown Mnemonic 'jr'.
    513  0000					      jr	nz,crushdec
hero.asm (514): error: Unknown Mnemonic 'inc'.
    514  0000					      inc	a
    515  0000					      set	7,a
hero.asm (516): error: Unknown Mnemonic 'jr'.
    516  0000					      jr	crushcwr
hero.asm (517): error: Unknown Mnemonic 'dec'.
    517  0000				   crushdec   dec	a
hero.asm (518): error: Unknown Mnemonic 'ld'.
    518  0000				   crushcwr   ld	(hl),a
    519  0000
    520  0000							;CRUSH CLOSE: decrease "erasing laser length" 
hero.asm (521): error: Unknown Mnemonic 'ld'.
    521  0000					      ld	a,(oldlasy)
hero.asm (522): error: Unknown Mnemonic 'sub'.
    522  0000					      sub	52+topoffset+1
hero.asm (523): error: Unknown Mnemonic 'jr'.
    523  0000					      jr	c,nolascor
hero.asm (524): error: Unknown Mnemonic 'sub'.
    524  0000					      sub	38
hero.asm (525): error: Unknown Mnemonic 'jr'.
    525  0000					      jr	nc,nolascor
hero.asm (526): error: Unknown Mnemonic 'ld'.
    526  0000					      ld	a,(oldlasln)
hero.asm (527): error: Unknown Mnemonic 'or'.
    527  0000					      or	a
hero.asm (528): error: Unknown Mnemonic 'jr'.
    528  0000					      jr	z,nolascor
hero.asm (529): error: Unknown Mnemonic 'sub'.
    529  0000					      sub	2
hero.asm (530): error: Unknown Mnemonic 'jr'.
    530  0000					      jr	nc,stcnewls
hero.asm (531): error: Unknown Mnemonic 'xor'.
    531  0000					      xor	a
hero.asm (532): error: Unknown Mnemonic 'ld'.
    532  0000				   stcnewls   ld	(oldlasln),a
    533  0000
    534  0000							;CRUSH CLOSE LEFT
hero.asm (535): error: Unknown Mnemonic 'push'.
    535  0000				   nolascor   push	bc
hero.asm (536): error: Unknown Mnemonic 'ld'.
    536  0000					      ld	a,19
hero.asm (537): error: Unknown Mnemonic 'sub'.
    537  0000					      sub	b
    538  0000							;*set block in mem
hero.asm (539): error: Unknown Mnemonic 'ld'.
    539  0000					      ld	d,0
hero.asm (540): error: Unknown Mnemonic 'ld'.
    540  0000					      ld	e,a
hero.asm (541): error: Unknown Mnemonic 'ld'.
    541  0000					      ld	hl,(clvptrb2)
hero.asm (542): error: Unknown Mnemonic 'add'.
    542  0000					      add	hl,de
hero.asm (543): error: Unknown Mnemonic 'ld'.
    543  0000					      ld	a,initialwallstrength or flashingwall
hero.asm (544): error: Unknown Mnemonic 'ld'.
    544  0000					      ld	(hl),a
    545  0000
    546  0000							;*prepare draw block
hero.asm (547): error: Unknown Mnemonic 'sla'.
    547  0000					      sla	e
hero.asm (548): error: Unknown Mnemonic 'ld'.
    548  0000					      ld	b,e
hero.asm (549): error: Unknown Mnemonic 'ld'.
    549  0000					      ld	c,52+topoffset+2
    550  0000
    551  0000							;*collision test: hero in y range?
hero.asm (552): error: Unknown Mnemonic 'ld'.
    552  0000					      ld	a,(newheroy)
hero.asm (553): error: Unknown Mnemonic 'cp'.
    553  0000					      cp	28+topoffset+1	;above crushing walls?
hero.asm (554): error: Unknown Mnemonic 'jr'.
    554  0000					      jr	c,crnocllt	;yes, no collision detection 
hero.asm (555): error: Unknown Mnemonic 'cp'.
    555  0000					      cp	92+topoffset	;below crushing walls?
hero.asm (556): error: Unknown Mnemonic 'jr'.
    556  0000					      jr	nc,crnocllt	;yes, no collision detection 
    557  0000
    558  0000							;*collision test: hero in x range?
hero.asm (559): error: Unknown Mnemonic 'ld'.
    559  0000					      ld	yl,1	;yl=flag, 1=hero is in y range, detection
hero.asm (560): error: Unknown Mnemonic 'ld'.
    560  0000					      ld	a,(newherox)
hero.asm (561): error: Unknown Mnemonic 'res'.
    561  0000					      res	0,a
hero.asm (562): error: Unknown Mnemonic 'sub'.
    562  0000					      sub	b
hero.asm (563): error: Unknown Mnemonic 'jr'.
    563  0000					      jr	z,crcolylt
hero.asm (564): error: Unknown Mnemonic 'jr'.
    564  0000					      jr	nc,crycollt
    565  0000
    566  0000							;*collision!!!!!!!
hero.asm (567): error: Unknown Mnemonic 'ld'.
    567  0000				   crcolylt   ld	a,(heroclsn)
    568  0000					      set	col_flag_flashw,a
hero.asm (569): error: Unknown Mnemonic 'ld'.
    569  0000					      ld	(heroclsn),a
hero.asm (570): error: Unknown Mnemonic 'ld'.
    570  0000					      ld	a,(newherox)
hero.asm (571): error: Unknown Mnemonic 'sub'.
    571  0000					      sub	b
hero.asm (572): error: Unknown Mnemonic 'jr'.
    572  0000					      jr	z,crcnndlt
hero.asm (573): error: Unknown Mnemonic 'ld'.
    573  0000					      ld	e,a
hero.asm (574): error: Unknown Mnemonic 'ld'.
    574  0000					      ld	d,&26
hero.asm (575): error: Unknown Mnemonic 'jr'.
    575  0000					      jr	crcontlt
    576  0000
    577  0000							;*continue draw block
hero.asm (578): error: Unknown Mnemonic 'ld'.
    578  0000				   crnocllt   ld	yl,0	;yl=flag, 0=hero is not in y range, no detection
hero.asm (579): error: Unknown Mnemonic 'ld'.
    579  0000				   crycollt   ld	de,&2602
hero.asm (580): error: Unknown Mnemonic 'ld'.
    580  0000				   crcontlt   ld	a,%00111111
hero.asm (581): error: Unknown Mnemonic 'call'.
    581  0000					      call	fillblock
hero.asm (582): error: Unknown Mnemonic 'pop'.
    582  0000				   crcnndlt   pop	bc
    583  0000
    584  0000							;CRUSH CLOSE RIGHT
hero.asm (585): error: Unknown Mnemonic 'push'.
    585  0000					      push	bc
hero.asm (586): error: Unknown Mnemonic 'ld'.
    586  0000					      ld	a,20
hero.asm (587): error: Unknown Mnemonic 'add'.
    587  0000					      add	b
    588  0000							;*set block in mem
hero.asm (589): error: Unknown Mnemonic 'ld'.
    589  0000					      ld	d,0
hero.asm (590): error: Unknown Mnemonic 'ld'.
    590  0000					      ld	e,a
hero.asm (591): error: Unknown Mnemonic 'ld'.
    591  0000					      ld	hl,(clvptrb2)
hero.asm (592): error: Unknown Mnemonic 'add'.
    592  0000					      add	hl,de
hero.asm (593): error: Unknown Mnemonic 'ld'.
    593  0000					      ld	a,initialwallstrength or flashingwall
hero.asm (594): error: Unknown Mnemonic 'ld'.
    594  0000					      ld	(hl),a
    595  0000
    596  0000							;*prepare draw block
hero.asm (597): error: Unknown Mnemonic 'sla'.
    597  0000					      sla	e
hero.asm (598): error: Unknown Mnemonic 'ld'.
    598  0000					      ld	b,e
hero.asm (599): error: Unknown Mnemonic 'ld'.
    599  0000					      ld	c,52+topoffset+2
    600  0000
    601  0000							;*collision test: hero in x range?
hero.asm (602): error: Unknown Mnemonic 'ld'.
    602  0000					      ld	a,yl
hero.asm (603): error: Unknown Mnemonic 'or'.
    603  0000					      or	a
hero.asm (604): error: Unknown Mnemonic 'jr'.
    604  0000					      jr	z,crycolrt
    605  0000
hero.asm (606): error: Unknown Mnemonic 'ld'.
    606  0000					      ld	a,(newherox)
hero.asm (607): error: Unknown Mnemonic 'add'.
    607  0000					      add	4
hero.asm (608): error: Unknown Mnemonic 'res'.
    608  0000					      res	0,a
hero.asm (609): error: Unknown Mnemonic 'sub'.
    609  0000					      sub	b
hero.asm (610): error: Unknown Mnemonic 'jr'.
    610  0000					      jr	c,crycolrt
    611  0000
    612  0000							;*collision!!!!!!!
hero.asm (613): error: Unknown Mnemonic 'ld'.
    613  0000				   crcolyrt   ld	a,(heroclsn)
    614  0000					      set	col_flag_flashw,a
hero.asm (615): error: Unknown Mnemonic 'ld'.
    615  0000					      ld	(heroclsn),a
hero.asm (616): error: Unknown Mnemonic 'ld'.
    616  0000					      ld	a,(newherox)
hero.asm (617): error: Unknown Mnemonic 'add'.
    617  0000					      add	4
hero.asm (618): error: Unknown Mnemonic 'sub'.
    618  0000					      sub	b
hero.asm (619): error: Unknown Mnemonic 'jr'.
    619  0000					      jr	z,crycolrt
hero.asm (620): error: Unknown Mnemonic 'ld'.
    620  0000					      ld	e,a
hero.asm (621): error: Unknown Mnemonic 'ld'.
    621  0000					      ld	d,&26
hero.asm (622): error: Unknown Mnemonic 'inc'.
    622  0000					      inc	b
hero.asm (623): error: Unknown Mnemonic 'jr'.
    623  0000					      jr	crcontrt
    624  0000
    625  0000							;*continue draw block
hero.asm (626): error: Unknown Mnemonic 'ld'.
    626  0000				   crycolrt   ld	de,&2602
hero.asm (627): error: Unknown Mnemonic 'ld'.
    627  0000				   crcontrt   ld	a,%00111111
hero.asm (628): error: Unknown Mnemonic 'call'.
    628  0000					      call	fillblock
hero.asm (629): error: Unknown Mnemonic 'pop'.
    629  0000				   crcnndrt   pop	bc
hero.asm (630): error: Unknown Mnemonic 'jr'.
    630  0000					      jr	crushend
    631  0000
    632  0000				   crushopn		;***CRUSH OPEN***
hero.asm (633): error: Unknown Mnemonic 'res'.
    633  0000					      res	7,a
hero.asm (634): error: Unknown Mnemonic 'ld'.
    634  0000					      ld	b,a
hero.asm (635): error: Unknown Mnemonic 'cp'.
    635  0000					      cp	7	;crush width
hero.asm (636): error: Unknown Mnemonic 'jr'.
    636  0000					      jr	nz,crushinc
hero.asm (637): error: Unknown Mnemonic 'dec'.
    637  0000					      dec	a
hero.asm (638): error: Unknown Mnemonic 'jr'.
    638  0000					      jr	crushowr
hero.asm (639): error: Unknown Mnemonic 'inc'.
    639  0000				   crushinc   inc	a
    640  0000					      set	7,a
hero.asm (641): error: Unknown Mnemonic 'ld'.
    641  0000				   crushowr   ld	(hl),a
    642  0000							;CRUSH CLOSE LEFT
hero.asm (643): error: Unknown Mnemonic 'push'.
    643  0000					      push	bc
hero.asm (644): error: Unknown Mnemonic 'ld'.
    644  0000					      ld	a,20
hero.asm (645): error: Unknown Mnemonic 'sub'.
    645  0000					      sub	b
    646  0000							;*set block in mem
hero.asm (647): error: Unknown Mnemonic 'ld'.
    647  0000					      ld	d,0
hero.asm (648): error: Unknown Mnemonic 'ld'.
    648  0000					      ld	e,a
hero.asm (649): error: Unknown Mnemonic 'ld'.
    649  0000					      ld	hl,(clvptrb2)
hero.asm (650): error: Unknown Mnemonic 'add'.
    650  0000					      add	hl,de
hero.asm (651): error: Unknown Mnemonic 'xor'.
    651  0000					      xor	a
hero.asm (652): error: Unknown Mnemonic 'ld'.
    652  0000					      ld	(hl),a
    653  0000							;*draw block
hero.asm (654): error: Unknown Mnemonic 'sla'.
    654  0000					      sla	e
hero.asm (655): error: Unknown Mnemonic 'ld'.
    655  0000					      ld	b,e
hero.asm (656): error: Unknown Mnemonic 'ld'.
    656  0000					      ld	c,52+topoffset+2
hero.asm (657): error: Unknown Mnemonic 'ld'.
    657  0000					      ld	de,&2602
hero.asm (658): error: Unknown Mnemonic 'call'.
    658  0000					      call	fillblock
hero.asm (659): error: Unknown Mnemonic 'pop'.
    659  0000					      pop	bc
    660  0000							;CRUSH CLOSE RIGHT
hero.asm (661): error: Unknown Mnemonic 'push'.
    661  0000					      push	bc
hero.asm (662): error: Unknown Mnemonic 'ld'.
    662  0000					      ld	a,19
hero.asm (663): error: Unknown Mnemonic 'add'.
    663  0000					      add	b
    664  0000							;*set block in mem
hero.asm (665): error: Unknown Mnemonic 'ld'.
    665  0000					      ld	d,0
hero.asm (666): error: Unknown Mnemonic 'ld'.
    666  0000					      ld	e,a
hero.asm (667): error: Unknown Mnemonic 'ld'.
    667  0000					      ld	hl,(clvptrb2)
hero.asm (668): error: Unknown Mnemonic 'add'.
    668  0000					      add	hl,de
hero.asm (669): error: Unknown Mnemonic 'xor'.
    669  0000					      xor	a
hero.asm (670): error: Unknown Mnemonic 'ld'.
    670  0000					      ld	(hl),a
    671  0000							;*draw block
hero.asm (672): error: Unknown Mnemonic 'sla'.
    672  0000					      sla	e
hero.asm (673): error: Unknown Mnemonic 'ld'.
    673  0000					      ld	b,e
hero.asm (674): error: Unknown Mnemonic 'ld'.
    674  0000					      ld	c,52+topoffset+2
hero.asm (675): error: Unknown Mnemonic 'ld'.
    675  0000					      ld	de,&2602
hero.asm (676): error: Unknown Mnemonic 'call'.
    676  0000					      call	fillblock
hero.asm (677): error: Unknown Mnemonic 'pop'.
    677  0000					      pop	bc
    678  0000							;- end crushcode --------
    679  0000
hero.asm (680): error: Unknown Mnemonic 'xor'.
    680  0000				   crushend   xor	a
hero.asm (681): error: Unknown Mnemonic 'ld'.
    681  0000					      ld	(dntvsync),a
    682  0000
    683  0000							;update score?
hero.asm (684): error: Unknown Mnemonic 'ld'.
    684  0000					      ld	a,(updtscre)
hero.asm (685): error: Unknown Mnemonic 'or'.
    685  0000					      or	a
hero.asm (686): error: Unknown Mnemonic 'jr'.
    686  0000					      jr	z,dolassnd
hero.asm (687): error: Unknown Mnemonic 'xor'.
    687  0000					      xor	a
hero.asm (688): error: Unknown Mnemonic 'ld'.
    688  0000					      ld	(updtscre),a
hero.asm (689): error: Unknown Mnemonic 'call'.
    689  0000					      call	drawscore
    690  0000
    691  0000							;do laser beam sound
hero.asm (692): error: Unknown Mnemonic 'ld'.
    692  0000				   dolassnd   ld	a,(oldlasln)
hero.asm (693): error: Unknown Mnemonic 'or'.
    693  0000					      or	a
hero.asm (694): error: Unknown Mnemonic 'jr'.
    694  0000					      jr	z,laserpst
hero.asm (695): error: Unknown Mnemonic 'ld'.
    695  0000					      ld	c,channela
hero.asm (696): error: Unknown Mnemonic 'ld'.
    696  0000					      ld	a,soundfull
hero.asm (697): error: Unknown Mnemonic 'call'.
    697  0000					      call	wrpsg
hero.asm (698): error: Unknown Mnemonic 'ld'.
    698  0000					      ld	c,channelc
hero.asm (699): error: Unknown Mnemonic 'ld'.
    699  0000					      ld	a,soundfull
hero.asm (700): error: Unknown Mnemonic 'call'.
    700  0000					      call	wrpsg
hero.asm (701): error: Unknown Mnemonic 'ld'.
    701  0000					      ld	c,finec
hero.asm (702): error: Unknown Mnemonic 'ld'.
    702  0000					      ld	a,(lssndr)
hero.asm (703): error: Unknown Mnemonic 'sub'.
    703  0000					      sub	10
hero.asm (704): error: Unknown Mnemonic 'ld'.
    704  0000					      ld	(lssndr),a
hero.asm (705): error: Unknown Mnemonic 'call'.
    705  0000					      call	wrpsg
hero.asm (706): error: Unknown Mnemonic 'ld'.
    706  0000					      ld	c,finea
hero.asm (707): error: Unknown Mnemonic 'ld'.
    707  0000					      ld	a,(lssndl)
hero.asm (708): error: Unknown Mnemonic 'sub'.
    708  0000					      sub	9
hero.asm (709): error: Unknown Mnemonic 'ld'.
    709  0000					      ld	(lssndl),a
hero.asm (710): error: Unknown Mnemonic 'call'.
    710  0000					      call	wrpsg
hero.asm (711): error: Unknown Mnemonic 'ld'.
    711  0000					      ld	a,(lssndctr)
hero.asm (712): error: Unknown Mnemonic 'dec'.
    712  0000					      dec	a
hero.asm (713): error: Unknown Mnemonic 'jr'.
    713  0000					      jr	nz,frsndset
hero.asm (714): error: Unknown Mnemonic 'ld'.
    714  0000					      ld	a,lasersndintl
hero.asm (715): error: Unknown Mnemonic 'ld'.
    715  0000					      ld	(lssndl),a
hero.asm (716): error: Unknown Mnemonic 'ld'.
    716  0000					      ld	a,lasersndintr
hero.asm (717): error: Unknown Mnemonic 'ld'.
    717  0000					      ld	(lssndr),a
hero.asm (718): error: Unknown Mnemonic 'ld'.
    718  0000					      ld	a,lssndctri
hero.asm (719): error: Unknown Mnemonic 'ld'.
    719  0000				   frsndset   ld	(lssndctr),a
hero.asm (720): error: Unknown Mnemonic 'jr'.
    720  0000					      jr	overlas
    721  0000
hero.asm (722): error: Unknown Mnemonic 'ld'.
    722  0000				   laserpst   ld	c,channela
hero.asm (723): error: Unknown Mnemonic 'ld'.
    723  0000					      ld	a,soundpst
hero.asm (724): error: Unknown Mnemonic 'call'.
    724  0000					      call	wrpsg
hero.asm (725): error: Unknown Mnemonic 'ld'.
    725  0000					      ld	c,channelc
hero.asm (726): error: Unknown Mnemonic 'ld'.
    726  0000					      ld	a,soundpst
hero.asm (727): error: Unknown Mnemonic 'call'.
    727  0000					      call	wrpsg
    728  0000
hero.asm (729): error: Unknown Mnemonic 'pop'.
    729  0000				   overlas    pop	bc
    730  0000
    731  0000							;collision test
hero.asm (732): error: Unknown Mnemonic 'ld'.
    732  0000					      ld	a,b
hero.asm (733): error: Unknown Mnemonic 'cp'.
    733  0000					      cp	1
hero.asm (734): error: Unknown Mnemonic 'jr'.
    734  0000					      jr	z,vsloop
hero.asm (735): error: Unknown Mnemonic 'push'.
    735  0000					      push	bc
hero.asm (736): error: Unknown Mnemonic 'call'.
    736  0000					      call	collisiontest
    737  0000
    738  0000							;decrease power
hero.asm (739): error: Unknown Mnemonic 'ld'.
    739  0000					      ld	a,(powercnt)
hero.asm (740): error: Unknown Mnemonic 'dec'.
    740  0000					      dec	a
hero.asm (741): error: Unknown Mnemonic 'or'.
    741  0000					      or	a
hero.asm (742): error: Unknown Mnemonic 'jr'.
    742  0000					      jr	z,decrpowr
hero.asm (743): error: Unknown Mnemonic 'ld'.
    743  0000					      ld	(powercnt),a
hero.asm (744): error: Unknown Mnemonic 'jr'.
    744  0000					      jr	drwenmis
hero.asm (745): error: Unknown Mnemonic 'ld'.
    745  0000				   decrpowr   ld	a,powercntrinit
hero.asm (746): error: Unknown Mnemonic 'ld'.
    746  0000					      ld	(powercnt),a
hero.asm (747): error: Unknown Mnemonic 'ld'.
    747  0000					      ld	a,(energy)
hero.asm (748): error: Unknown Mnemonic 'or'.
    748  0000					      or	a
hero.asm (749): error: Unknown Mnemonic 'jp'.
    749  0000					      jp	z,timeover
hero.asm (750): error: Unknown Mnemonic 'dec'.
    750  0000					      dec	a
hero.asm (751): error: Unknown Mnemonic 'ld'.
    751  0000					      ld	(energy),a
hero.asm (752): error: Unknown Mnemonic 'call'.
    752  0000					      call	drawenergy
hero.asm (753): error: Unknown Mnemonic 'ei'.
    753  0000					      ei
hero.asm (754): error: Unknown Mnemonic 'jr'.
    754  0000					      jr	dcrpjmpi
    755  0000
    756  0000							;draw enemies
hero.asm (757): error: Unknown Mnemonic 'ei'.
    757  0000				   drwenmis   ei
hero.asm (758): error: Unknown Mnemonic 'halt'.
    758  0000					      halt
hero.asm (759): error: Unknown Mnemonic 'halt'.
    759  0000				   dcrpjmpi   halt
hero.asm (760): error: Unknown Mnemonic 'halt'.
    760  0000					      halt
    761  0000							;halt
hero.asm (762): error: Unknown Mnemonic 'di'.
    762  0000					      di
hero.asm (763): error: Unknown Mnemonic 'ld'.
    763  0000					      ld	b,8
hero.asm (764): error: Unknown Mnemonic 'call'.
    764  0000					      call	waitsl
    765  0000
hero.asm (766): error: Unknown Mnemonic 'call'.
    766  0000					      call	drawenemies
hero.asm (767): error: Unknown Mnemonic 'pop'.
    767  0000					      pop	bc
    768  0000
hero.asm (769): error: Unknown Mnemonic 'djnz'.
    769  0000				   vsloop     djnz	vsloop2
hero.asm (770): error: Unknown Mnemonic 'jr'.
    770  0000					      jr	novsloop
hero.asm (771): error: Unknown Mnemonic 'jp'.
    771  0000				   vsloop2    jp	vsrep
    772  0000
    773  0000							;update joystick status and move calc new x, y of hero sprite
hero.asm (774): error: Unknown Mnemonic 'ei'.
    774  0000				   novsloop   ei
hero.asm (775): error: Unknown Mnemonic 'halt'.
    775  0000					      halt
hero.asm (776): error: Unknown Mnemonic 'di'.
    776  0000					      di
hero.asm (777): error: Unknown Mnemonic 'call'.
    777  0000					      call	readjoystick
hero.asm (778): error: Unknown Mnemonic 'call'.
    778  0000					      call	heromove
    779  0000
    780  0000							;give up
hero.asm (781): error: Unknown Mnemonic 'ld'.
    781  0000					      ld	a,(escbyte)
hero.asm (782): error: Unknown Mnemonic 'bit'.
    782  0000					      bit	2,a
    783  0000							;call nz,giveupquestion
hero.asm (784): error: Unknown Mnemonic 'jr'.
    784  0000					      jr	z,wimpjmp	;delete....
hero.asm (785): error: Unknown Mnemonic 'ld'.
    785  0000					      ld	(wimp),a	;....this, if enough mem left
hero.asm (786): error: Unknown Mnemonic 'ld'.
    786  0000				   wimpjmp    ld	a,(wimp)
hero.asm (787): error: Unknown Mnemonic 'or'.
    787  0000					      or	a
hero.asm (788): error: Unknown Mnemonic 'jp'.
    788  0000					      jp	nz,gaveup
    789  0000
    790  0000							;2.-4. sync block
    791  0000							;place to fill non painting, logic stuff
hero.asm (792): error: Unknown Mnemonic 'ei'.
    792  0000					      ei
hero.asm (793): error: Unknown Mnemonic 'halt'.
    793  0000					      halt
hero.asm (794): error: Unknown Mnemonic 'halt'.
    794  0000				   hltptch2   halt
hero.asm (795): error: Unknown Mnemonic 'halt'.
    795  0000				   hltptch3   halt
hero.asm (796): error: Unknown Mnemonic 'di'.
    796  0000					      di
hero.asm (797): error: Unknown Mnemonic 'ld'.
    797  0000					      ld	a,(hltptch2)
hero.asm (798): error: Unknown Mnemonic 'or'.
    798  0000					      or	a
hero.asm (799): error: Unknown Mnemonic 'jr'.
    799  0000					      jr	nz,restrbck
hero.asm (800): error: Unknown Mnemonic 'ld'.
    800  0000					      ld	b,8
hero.asm (801): error: Unknown Mnemonic 'call'.
    801  0000					      call	waitsl
    802  0000
    803  0000							;restore hero's background, draw placed bomb and enemies 
hero.asm (804): error: Unknown Mnemonic 'ld'.
    804  0000				   restrbck   ld	a,(herox)
hero.asm (805): error: Unknown Mnemonic 'ld'.
    805  0000					      ld	b,a
hero.asm (806): error: Unknown Mnemonic 'ld'.
    806  0000					      ld	a,(heroy)
hero.asm (807): error: Unknown Mnemonic 'ld'.
    807  0000					      ld	c,a
hero.asm (808): error: Unknown Mnemonic 'ld'.
    808  0000					      ld	de,&0418
hero.asm (809): error: Unknown Mnemonic 'ld'.
    809  0000					      ld	hl,heroback
    810  0000
hero.asm (811): error: Unknown Mnemonic 'push'.
    811  0000					      push	de
hero.asm (812): error: Unknown Mnemonic 'push'.
    812  0000					      push	hl
    813  0000
hero.asm (814): error: Unknown Mnemonic 'call'.
    814  0000					      call	drawbackground
hero.asm (815): error: Unknown Mnemonic 'call'.
    815  0000					      call	drawbomb
hero.asm (816): error: Unknown Mnemonic 'call'.
    816  0000					      call	drawfire
hero.asm (817): error: Unknown Mnemonic 'call'.
    817  0000					      call	pointscounter
    818  0000
    819  0000							;test collision flag 
hero.asm (820): error: Unknown Mnemonic 'ld'.
    820  0000					      ld	a,(heroclsn)
hero.asm (821): error: Unknown Mnemonic 'bit'.
    821  0000					      bit	col_flag_enemy,a
hero.asm (822): error: Unknown Mnemonic 'jr'.
    822  0000					      jr	nz,herodie
hero.asm (823): error: Unknown Mnemonic 'bit'.
    823  0000					      bit	col_flag_bomb,a
hero.asm (824): error: Unknown Mnemonic 'jp'.
    824  0000					      jp	nz,herodiesbomb
hero.asm (825): error: Unknown Mnemonic 'bit'.
    825  0000					      bit	col_flag_water,a
hero.asm (826): error: Unknown Mnemonic 'jr'.
    826  0000					      jr	nz,heroflwl
hero.asm (827): error: Unknown Mnemonic 'bit'.
    827  0000					      bit	col_flag_flashw,a
hero.asm (828): error: Unknown Mnemonic 'jr'.
    828  0000					      jr	nz,heroflwl
hero.asm (829): error: Unknown Mnemonic 'bit'.
    829  0000					      bit	col_flag_lantern,a
hero.asm (830): error: Unknown Mnemonic 'jr'.
    830  0000					      jr	nz,latnolgt
hero.asm (831): error: Unknown Mnemonic 'bit'.
    831  0000					      bit	col_flag_compltr,a
hero.asm (832): error: Unknown Mnemonic 'jr'.
    832  0000					      jr	nz,levcmplr
hero.asm (833): error: Unknown Mnemonic 'bit'.
    833  0000					      bit	col_flag_compltl,a
hero.asm (834): error: Unknown Mnemonic 'jr'.
    834  0000					      jr	nz,levcmpll
hero.asm (835): error: Unknown Mnemonic 'jr'.
    835  0000					      jr	savherbg
    836  0000
hero.asm (837): error: Unknown Mnemonic 'pop'.
    837  0000				   levcmplr   pop	hl
hero.asm (838): error: Unknown Mnemonic 'pop'.
    838  0000					      pop	de
hero.asm (839): error: Unknown Mnemonic 'ld'.
    839  0000					      ld	a,(herofly)
hero.asm (840): error: Unknown Mnemonic 'or'.
    840  0000					      or	a
hero.asm (841): error: Unknown Mnemonic 'jr'.
    841  0000					      jr	nz,lvcmplr2
hero.asm (842): error: Unknown Mnemonic 'ld'.
    842  0000					      ld	a,(herodir)
hero.asm (843): error: Unknown Mnemonic 'or'.
    843  0000					      or	a
hero.asm (844): error: Unknown Mnemonic 'jr'.
    844  0000					      jr	z,lvcmplr2
hero.asm (845): error: Unknown Mnemonic 'ld'.
    845  0000					      ld	a,(colsavb)
hero.asm (846): error: Unknown Mnemonic 'add'.
    846  0000					      add	3
hero.asm (847): error: Unknown Mnemonic 'ld'.
    847  0000					      ld	(newherox),a
hero.asm (848): error: Unknown Mnemonic 'ld'.
    848  0000				   lvcmplr2   ld	hl,minrescr
hero.asm (849): error: Unknown Mnemonic 'jp'.
    849  0000					      jp	levelcompleted
    850  0000
hero.asm (851): error: Unknown Mnemonic 'pop'.
    851  0000				   levcmpll   pop	hl
hero.asm (852): error: Unknown Mnemonic 'pop'.
    852  0000					      pop	de
hero.asm (853): error: Unknown Mnemonic 'ld'.
    853  0000					      ld	a,(herofly)
hero.asm (854): error: Unknown Mnemonic 'or'.
    854  0000					      or	a
hero.asm (855): error: Unknown Mnemonic 'jr'.
    855  0000					      jr	nz,lvcmpll2
hero.asm (856): error: Unknown Mnemonic 'ld'.
    856  0000					      ld	a,(herodir)
hero.asm (857): error: Unknown Mnemonic 'or'.
    857  0000					      or	a
hero.asm (858): error: Unknown Mnemonic 'jr'.
    858  0000					      jr	nz,lvcmpll2
hero.asm (859): error: Unknown Mnemonic 'ld'.
    859  0000					      ld	a,(colsavb)
hero.asm (860): error: Unknown Mnemonic 'sub'.
    860  0000					      sub	3
hero.asm (861): error: Unknown Mnemonic 'ld'.
    861  0000					      ld	(newherox),a
hero.asm (862): error: Unknown Mnemonic 'ld'.
    862  0000				   lvcmpll2   ld	hl,minrescl
hero.asm (863): error: Unknown Mnemonic 'jp'.
    863  0000					      jp	levelcompleted
    864  0000
hero.asm (865): error: Unknown Mnemonic 'pop'.
    865  0000				   herodie    pop	hl
hero.asm (866): error: Unknown Mnemonic 'pop'.
    866  0000					      pop	de
hero.asm (867): error: Unknown Mnemonic 'jp'.
    867  0000					      jp	herodies
    868  0000
hero.asm (869): error: Unknown Mnemonic 'pop'.
    869  0000				   heroflwl   pop	hl
hero.asm (870): error: Unknown Mnemonic 'pop'.
    870  0000					      pop	de
hero.asm (871): error: Unknown Mnemonic 'ld'.
    871  0000					      ld	a,(newheroy)
hero.asm (872): error: Unknown Mnemonic 'ld'.
    872  0000					      ld	(heroy),a
hero.asm (873): error: Unknown Mnemonic 'jp'.
    873  0000					      jp	herodies
    874  0000
hero.asm (875): error: Unknown Mnemonic 'res'.
    875  0000				   latnolgt   res	col_flag_lantern,a
hero.asm (876): error: Unknown Mnemonic 'ld'.
    876  0000					      ld	(heroclsn),a
hero.asm (877): error: Unknown Mnemonic 'ld'.
    877  0000					      ld	a,(colsavb)
hero.asm (878): error: Unknown Mnemonic 'ld'.
    878  0000					      ld	b,a
hero.asm (879): error: Unknown Mnemonic 'ld'.
    879  0000					      ld	a,(colsavc)
hero.asm (880): error: Unknown Mnemonic 'ld'.
    880  0000					      ld	c,a
hero.asm (881): error: Unknown Mnemonic 'ld'.
    881  0000					      ld	de,&030b
hero.asm (882): error: Unknown Mnemonic 'ld'.
    882  0000					      ld	hl,lantnoff
hero.asm (883): error: Unknown Mnemonic 'call'.
    883  0000					      call	drawsprite
    884  0000
    885  0000							;save hero's background 
hero.asm (886): error: Unknown Mnemonic 'pop'.
    886  0000				   savherbg   pop	hl
hero.asm (887): error: Unknown Mnemonic 'pop'.
    887  0000					      pop	de
    888  0000
hero.asm (889): error: Unknown Mnemonic 'ld'.
    889  0000					      ld	a,1
hero.asm (890): error: Unknown Mnemonic 'ld'.
    890  0000					      ld	(dntvsync),a
hero.asm (891): error: Unknown Mnemonic 'call'.
    891  0000					      call	waitvsync
    892  0000
hero.asm (893): error: Unknown Mnemonic 'ld'.
    893  0000					      ld	a,(newherox)
hero.asm (894): error: Unknown Mnemonic 'ld'.
    894  0000					      ld	b,a
hero.asm (895): error: Unknown Mnemonic 'ld'.
    895  0000					      ld	a,(newheroy)
hero.asm (896): error: Unknown Mnemonic 'ld'.
    896  0000					      ld	c,a
hero.asm (897): error: Unknown Mnemonic 'call'.
    897  0000					      call	savebackground
    898  0000
    899  0000							;update movement of hero's legs
hero.asm (900): error: Unknown Mnemonic 'ld'.
    900  0000				   svlgs3     ld	a,(horunng)
hero.asm (901): error: Unknown Mnemonic 'or'.
    901  0000					      or	a
hero.asm (902): error: Unknown Mnemonic 'jr'.
    902  0000					      jr	nz,svlgsrun
hero.asm (903): error: Unknown Mnemonic 'jr'.
    903  0000					      jr	svlgs
hero.asm (904): error: Unknown Mnemonic 'ld'.
    904  0000				   svlgsrun   ld	a,(herolegs)
hero.asm (905): error: Unknown Mnemonic 'inc'.
    905  0000					      inc	a
hero.asm (906): error: Unknown Mnemonic 'cp'.
    906  0000					      cp	12
hero.asm (907): error: Unknown Mnemonic 'jr'.
    907  0000					      jr	nz,svlgs
hero.asm (908): error: Unknown Mnemonic 'ld'.
    908  0000					      ld	a,2
hero.asm (909): error: Unknown Mnemonic 'cp'.
    909  0000				   svlgs      cp	1
hero.asm (910): error: Unknown Mnemonic 'jr'.
    910  0000					      jr	nz,svlgs2
hero.asm (911): error: Unknown Mnemonic 'ld'.
    911  0000					      ld	a,2
hero.asm (912): error: Unknown Mnemonic 'ld'.
    912  0000				   svlgs2     ld	(herolegs),a
    913  0000
    914  0000							;repeat game loop 
hero.asm (915): error: Unknown Mnemonic 'jp'.
    915  0000					      jp	gameloop
    916  0000
    917  0000							;timeout
    918  0000				   timeover
hero.asm (919): error: Unknown Mnemonic 'ld'.
    919  0000					      ld	a,1
hero.asm (920): error: Unknown Mnemonic 'ld'.
    920  0000					      ld	(timeout),a
hero.asm (921): error: Unknown Mnemonic 'ld'.
    921  0000					      ld	hl,(pcurlev)
hero.asm (922): error: Unknown Mnemonic 'ld'.
    922  0000					      ld	(pnextlev),hl
hero.asm (923): error: Unknown Mnemonic 'jr'.
    923  0000					      jr	herodies
    924  0000
    925  0000				   herodiesbomb
hero.asm (926): error: Unknown Mnemonic 'call'.
    926  0000					      call	waitvsync
hero.asm (927): error: Unknown Mnemonic 'call'.
    927  0000					      call	drawbomb
hero.asm (928): error: Unknown Mnemonic 'ld'.
    928  0000					      ld	a,(herox)
hero.asm (929): error: Unknown Mnemonic 'ld'.
    929  0000					      ld	b,a
hero.asm (930): error: Unknown Mnemonic 'ld'.
    930  0000					      ld	a,(heroy)
hero.asm (931): error: Unknown Mnemonic 'ld'.
    931  0000					      ld	c,a
hero.asm (932): error: Unknown Mnemonic 'ld'.
    932  0000					      ld	de,&0418
hero.asm (933): error: Unknown Mnemonic 'ld'.
    933  0000					      ld	hl,herodead
hero.asm (934): error: Unknown Mnemonic 'ld'.
    934  0000					      ld	a,(bombset)
hero.asm (935): error: Unknown Mnemonic 'or'.
    935  0000					      or	a
hero.asm (936): error: Unknown Mnemonic 'jr'.
    936  0000					      jr	z,herodibm
hero.asm (937): error: Unknown Mnemonic 'call'.
    937  0000					      call	drawsprite_or
hero.asm (938): error: Unknown Mnemonic 'jr'.
    938  0000					      jr	herodiesbomb
hero.asm (939): error: Unknown Mnemonic 'call'.
    939  0000				   herodibm   call	drawsprite
hero.asm (940): error: Unknown Mnemonic 'call'.
    940  0000					      call	ziiing
hero.asm (941): error: Unknown Mnemonic 'ld'.
    941  0000					      ld	a,(lifes)
hero.asm (942): error: Unknown Mnemonic 'or'.
    942  0000					      or	a
hero.asm (943): error: Unknown Mnemonic 'jp'.
    943  0000					      jp	z,gamov2
hero.asm (944): error: Unknown Mnemonic 'dec'.
    944  0000					      dec	a
hero.asm (945): error: Unknown Mnemonic 'ld'.
    945  0000					      ld	(lifes),a
hero.asm (946): error: Unknown Mnemonic 'jr'.
    946  0000					      jr	hodi2
    947  0000
    948  0000							;wimp gave up!!!
hero.asm (949): error: Unknown Mnemonic 'xor'.
    949  0000				   gaveup     xor	a
hero.asm (950): error: Unknown Mnemonic 'ld'.
    950  0000					      ld	(lifes),a
hero.asm (951): error: Unknown Mnemonic 'ld'.
    951  0000					      ld	(scrnswap),a
hero.asm (952): error: Unknown Mnemonic 'ld'.
    952  0000					      ld	(energy),a
    953  0000
hero.asm (954): error: Unknown Mnemonic 'call'.
    954  0000				   herodies   call	herosilence
hero.asm (955): error: Unknown Mnemonic 'xor'.
    955  0000					      xor	a
hero.asm (956): error: Unknown Mnemonic 'ld'.
    956  0000					      ld	(backclr),a
hero.asm (957): error: Unknown Mnemonic 'call'.
    957  0000					      call	setbackclr
hero.asm (958): error: Unknown Mnemonic 'ei'.
    958  0000					      ei
hero.asm (959): error: Unknown Mnemonic 'halt'.
    959  0000					      halt
hero.asm (960): error: Unknown Mnemonic 'halt'.
    960  0000					      halt
hero.asm (961): error: Unknown Mnemonic 'halt'.
    961  0000					      halt
hero.asm (962): error: Unknown Mnemonic 'di'.
    962  0000					      di
hero.asm (963): error: Unknown Mnemonic 'ld'.
    963  0000					      ld	a,(herox)
hero.asm (964): error: Unknown Mnemonic 'ld'.
    964  0000					      ld	b,a
hero.asm (965): error: Unknown Mnemonic 'ld'.
    965  0000					      ld	a,(heroy)
hero.asm (966): error: Unknown Mnemonic 'ld'.
    966  0000					      ld	c,a
hero.asm (967): error: Unknown Mnemonic 'ld'.
    967  0000					      ld	de,&0418
hero.asm (968): error: Unknown Mnemonic 'ld'.
    968  0000					      ld	hl,heroback
hero.asm (969): error: Unknown Mnemonic 'push'.
    969  0000					      push	bc
hero.asm (970): error: Unknown Mnemonic 'push'.
    970  0000					      push	de
hero.asm (971): error: Unknown Mnemonic 'call'.
    971  0000					      call	drawbackground
hero.asm (972): error: Unknown Mnemonic 'xor'.
    972  0000					      xor	a	;erase laser beam
hero.asm (973): error: Unknown Mnemonic 'ld'.
    973  0000					      ld	(joybyte),a
hero.asm (974): error: Unknown Mnemonic 'call'.
    974  0000					      call	drawfire
hero.asm (975): error: Unknown Mnemonic 'pop'.
    975  0000					      pop	de
hero.asm (976): error: Unknown Mnemonic 'pop'.
    976  0000					      pop	bc
    977  0000
hero.asm (978): error: Unknown Mnemonic 'push'.
    978  0000					      push	bc
hero.asm (979): error: Unknown Mnemonic 'push'.
    979  0000					      push	de
hero.asm (980): error: Unknown Mnemonic 'ld'.
    980  0000					      ld	hl,herodead
hero.asm (981): error: Unknown Mnemonic 'call'.
    981  0000					      call	drawsprite_or
hero.asm (982): error: Unknown Mnemonic 'pop'.
    982  0000					      pop	de
hero.asm (983): error: Unknown Mnemonic 'pop'.
    983  0000					      pop	bc
hero.asm (984): error: Unknown Mnemonic 'ld'.
    984  0000					      ld	a,(lifes)
hero.asm (985): error: Unknown Mnemonic 'or'.
    985  0000					      or	a
hero.asm (986): error: Unknown Mnemonic 'jr'.
    986  0000					      jr	z,gameover
hero.asm (987): error: Unknown Mnemonic 'dec'.
    987  0000					      dec	a
hero.asm (988): error: Unknown Mnemonic 'ld'.
    988  0000					      ld	(lifes),a
hero.asm (989): error: Unknown Mnemonic 'push'.
    989  0000					      push	bc
hero.asm (990): error: Unknown Mnemonic 'push'.
    990  0000					      push	de
hero.asm (991): error: Unknown Mnemonic 'call'.
    991  0000					      call	ziiing
hero.asm (992): error: Unknown Mnemonic 'pop'.
    992  0000					      pop	de
hero.asm (993): error: Unknown Mnemonic 'pop'.
    993  0000					      pop	bc
hero.asm (994): error: Unknown Mnemonic 'ld'.
    994  0000					      ld	hl,heroback
hero.asm (995): error: Unknown Mnemonic 'call'.
    995  0000					      call	drawbackground
hero.asm (996): error: Unknown Mnemonic 'call'.
    996  0000				   hodi2      call	drawlifes
hero.asm (997): error: Unknown Mnemonic 'ld'.
    997  0000					      ld	a,(timeout)
hero.asm (998): error: Unknown Mnemonic 'or'.
    998  0000					      or	a
hero.asm (999): error: Unknown Mnemonic 'jp'.
    999  0000					      jp	nz,newlevel
   1000  0000
   1001  0000							;was a collision with a crushing wall?
hero.asm (1002): error: Unknown Mnemonic 'ld'.
   1002  0000					      ld	hl,(clvptrb1)
hero.asm (1003): error: Unknown Mnemonic 'ld'.
   1003  0000					      ld	de,120
hero.asm (1004): error: Unknown Mnemonic 'add'.
   1004  0000					      add	hl,de
hero.asm (1005): error: Unknown Mnemonic 'bit'.
   1005  0000					      bit	7,(hl)
hero.asm (1006): error: Unknown Mnemonic 'jr'.
   1006  0000					      jr	nz,crushcollision
   1007  0000
   1008  0000							;no crushing wall collision
hero.asm (1009): error: Unknown Mnemonic 'ld'.
   1009  0000					      ld	a,(herox)
hero.asm (1010): error: Unknown Mnemonic 'ld'.
   1010  0000					      ld	(newherox),a
hero.asm (1011): error: Unknown Mnemonic 'ld'.
   1011  0000					      ld	a,(heroy)
hero.asm (1012): error: Unknown Mnemonic 'ld'.
   1012  0000					      ld	(newheroy),a
hero.asm (1013): error: Unknown Mnemonic 'jp'.
   1013  0000					      jp	restart
   1014  0000
   1015  0000				   crushcollision
   1016  0000							;yes, crushing wall collision
hero.asm (1017): error: Unknown Mnemonic 'ld'.
   1017  0000					      ld	a,38
hero.asm (1018): error: Unknown Mnemonic 'ld'.
   1018  0000					      ld	(herox),a
hero.asm (1019): error: Unknown Mnemonic 'ld'.
   1019  0000					      ld	(newherox),a
hero.asm (1020): error: Unknown Mnemonic 'ld'.
   1020  0000					      ld	a,topoffset+14
hero.asm (1021): error: Unknown Mnemonic 'ld'.
   1021  0000					      ld	(heroy),a
hero.asm (1022): error: Unknown Mnemonic 'ld'.
   1022  0000					      ld	(newheroy),a
hero.asm (1023): error: Unknown Mnemonic 'jp'.
   1023  0000					      jp	restart
   1024  0000
   1025  0000				   gameover
hero.asm (1026): error: Unknown Mnemonic 'call'.
   1026  0000					      call	drawenergy
hero.asm (1027): error: Unknown Mnemonic 'call'.
   1027  0000					      call	drawlifes
hero.asm (1028): error: Unknown Mnemonic 'call'.
   1028  0000					      call	ziiing
hero.asm (1029): error: Unknown Mnemonic 'call'.
   1029  0000				   gamov2     call	swapscroutput
hero.asm (1030): error: Unknown Mnemonic 'call'.
   1030  0000					      call	drawtitlescreen
hero.asm (1031): error: Unknown Mnemonic 'call'.
   1031  0000					      call	swapscroutput
hero.asm (1032): error: Unknown Mnemonic 'jp'.
   1032  0000					      jp	pgmloop
   1033  0000
   1034  0000				   levelcompleted
hero.asm (1035): error: Unknown Mnemonic 'ld'.
   1035  0000					      ld	a,(colsavb)
hero.asm (1036): error: Unknown Mnemonic 'ld'.
   1036  0000					      ld	b,a
hero.asm (1037): error: Unknown Mnemonic 'ld'.
   1037  0000					      ld	a,(colsavc)
hero.asm (1038): error: Unknown Mnemonic 'ld'.
   1038  0000					      ld	c,a
hero.asm (1039): error: Unknown Mnemonic 'ld'.
   1039  0000					      ld	de,&040c
hero.asm (1040): error: Unknown Mnemonic 'call'.
   1040  0000					      call	drawsprite
hero.asm (1041): error: Unknown Mnemonic 'ld'.
   1041  0000					      ld	a,(herofly)
hero.asm (1042): error: Unknown Mnemonic 'or'.
   1042  0000					      or	a
hero.asm (1043): error: Unknown Mnemonic 'jr'.
   1043  0000					      jr	nz,levcmpld
hero.asm (1044): error: Unknown Mnemonic 'xor'.
   1044  0000					      xor	a
hero.asm (1045): error: Unknown Mnemonic 'ld'.
   1045  0000					      ld	(herolegs),a
hero.asm (1046): error: Unknown Mnemonic 'call'.
   1046  0000				   levcmpld   call	drawhero
   1047  0000
hero.asm (1048): error: Unknown Mnemonic 'call'.
   1048  0000					      call	allsoundstop
   1049  0000
   1050  0000
   1051  0000							;miner rescued -> 1000 pts
hero.asm (1052): error: Unknown Mnemonic 'ld'.
   1052  0000					      ld	b,11
hero.asm (1053): error: Unknown Mnemonic 'push'.
   1053  0000				   minrscpt   push	bc
hero.asm (1054): error: Unknown Mnemonic 'ld'.
   1054  0000					      ld	c,&90
hero.asm (1055): error: Unknown Mnemonic 'call'.
   1055  0000					      call	addpoints
hero.asm (1056): error: Unknown Mnemonic 'pop'.
   1056  0000					      pop	bc
hero.asm (1057): error: Unknown Mnemonic 'djnz'.
   1057  0000					      djnz	minrscpt
hero.asm (1058): error: Unknown Mnemonic 'ld'.
   1058  0000					      ld	c,&10
hero.asm (1059): error: Unknown Mnemonic 'call'.
   1059  0000					      call	addpoints
hero.asm (1060): error: Unknown Mnemonic 'call'.
   1060  0000					      call	drawscore
   1061  0000
   1062  0000							;count down remaining power/energy
hero.asm (1063): error: Unknown Mnemonic 'ld'.
   1063  0000					      ld	a,(energy)
hero.asm (1064): error: Unknown Mnemonic 'or'.
   1064  0000					      or	a
hero.asm (1065): error: Unknown Mnemonic 'jr'.
   1065  0000					      jr	z,countbmb
hero.asm (1066): error: Unknown Mnemonic 'ld'.
   1066  0000					      ld	c,mixer
hero.asm (1067): error: Unknown Mnemonic 'ld'.
   1067  0000					      ld	a,%00111000
hero.asm (1068): error: Unknown Mnemonic 'call'.
   1068  0000					      call	wrpsg
hero.asm (1069): error: Unknown Mnemonic 'ld'.
   1069  0000					      ld	c,fineb
hero.asm (1070): error: Unknown Mnemonic 'ld'.
   1070  0000					      ld	a,%10001000
hero.asm (1071): error: Unknown Mnemonic 'call'.
   1071  0000					      call	wrpsg
   1072  0000
hero.asm (1073): error: Unknown Mnemonic 'ld'.
   1073  0000					      ld	c,envperiode_hi
hero.asm (1074): error: Unknown Mnemonic 'ld'.
   1074  0000					      ld	a,2	;duration = approx. 1/4
hero.asm (1075): error: Unknown Mnemonic 'call'.
   1075  0000					      call	wrpsg
   1076  0000
hero.asm (1077): error: Unknown Mnemonic 'ld'.
   1077  0000					      ld	c,fineb
hero.asm (1078): error: Unknown Mnemonic 'ld'.
   1078  0000					      ld	a,%10100100
hero.asm (1079): error: Unknown Mnemonic 'call'.
   1079  0000					      call	wrpsg
   1080  0000
hero.asm (1081): error: Unknown Mnemonic 'ld'.
   1081  0000					      ld	c,channelb
hero.asm (1082): error: Unknown Mnemonic 'ld'.
   1082  0000					      ld	a,soundfull or envelope_on
hero.asm (1083): error: Unknown Mnemonic 'call'.
   1083  0000					      call	wrpsg
   1084  0000
hero.asm (1085): error: Unknown Mnemonic 'ld'.
   1085  0000					      ld	c,envelope_shape
hero.asm (1086): error: Unknown Mnemonic 'ld'.
   1086  0000					      ld	a,%1000	;envshape: \|\|\|\|\|
hero.asm (1087): error: Unknown Mnemonic 'call'.
   1087  0000					      call	wrpsg
   1088  0000
hero.asm (1089): error: Unknown Mnemonic 'call'.
   1089  0000				   decpower   call	waitvsync
   1090  0000
hero.asm (1091): error: Unknown Mnemonic 'ld'.
   1091  0000					      ld	a,(curlvnbr)
hero.asm (1092): error: Unknown Mnemonic 'and'.
   1092  0000					      and	a
hero.asm (1093): error: Unknown Mnemonic 'sla'.
   1093  0000					      sla	a
hero.asm (1094): error: Unknown Mnemonic 'ld'.
   1094  0000					      ld	b,a
hero.asm (1095): error: Unknown Mnemonic 'push'.
   1095  0000				   setpts1    push	bc
hero.asm (1096): error: Unknown Mnemonic 'ld'.
   1096  0000					      ld	c,&05
hero.asm (1097): error: Unknown Mnemonic 'call'.
   1097  0000					      call	addpoints
hero.asm (1098): error: Unknown Mnemonic 'pop'.
   1098  0000					      pop	bc
hero.asm (1099): error: Unknown Mnemonic 'djnz'.
   1099  0000					      djnz	setpts1
hero.asm (1100): error: Unknown Mnemonic 'ld'.
   1100  0000					      ld	c,&10
hero.asm (1101): error: Unknown Mnemonic 'call'.
   1101  0000					      call	addpoints
hero.asm (1102): error: Unknown Mnemonic 'call'.
   1102  0000					      call	drawscore
hero.asm (1103): error: Unknown Mnemonic 'call'.
   1103  0000					      call	waitvsync
   1104  0000
hero.asm (1105): error: Unknown Mnemonic 'ld'.
   1105  0000					      ld	a,(curlvnbr)
hero.asm (1106): error: Unknown Mnemonic 'and'.
   1106  0000					      and	a
hero.asm (1107): error: Unknown Mnemonic 'sla'.
   1107  0000					      sla	a
hero.asm (1108): error: Unknown Mnemonic 'ld'.
   1108  0000					      ld	b,a
hero.asm (1109): error: Unknown Mnemonic 'push'.
   1109  0000				   setpts2    push	bc
hero.asm (1110): error: Unknown Mnemonic 'ld'.
   1110  0000					      ld	c,&05
hero.asm (1111): error: Unknown Mnemonic 'call'.
   1111  0000					      call	addpoints
hero.asm (1112): error: Unknown Mnemonic 'pop'.
   1112  0000					      pop	bc
hero.asm (1113): error: Unknown Mnemonic 'djnz'.
   1113  0000					      djnz	setpts2
hero.asm (1114): error: Unknown Mnemonic 'ld'.
   1114  0000					      ld	c,&15
hero.asm (1115): error: Unknown Mnemonic 'call'.
   1115  0000					      call	addpoints
hero.asm (1116): error: Unknown Mnemonic 'call'.
   1116  0000					      call	drawscore
   1117  0000
hero.asm (1118): error: Unknown Mnemonic 'ld'.
   1118  0000					      ld	a,(energy)
hero.asm (1119): error: Unknown Mnemonic 'dec'.
   1119  0000					      dec	a
hero.asm (1120): error: Unknown Mnemonic 'ld'.
   1120  0000					      ld	(energy),a
hero.asm (1121): error: Unknown Mnemonic 'push'.
   1121  0000					      push	af
hero.asm (1122): error: Unknown Mnemonic 'call'.
   1122  0000					      call	drawenergy
hero.asm (1123): error: Unknown Mnemonic 'pop'.
   1123  0000					      pop	af
hero.asm (1124): error: Unknown Mnemonic 'jr'.
   1124  0000					      jr	nz,decpower
   1125  0000
   1126  0000							;count down remaining bombs
hero.asm (1127): error: Unknown Mnemonic 'call'.
   1127  0000				   countbmb   call	allsoundstop
hero.asm (1128): error: Unknown Mnemonic 'ld'.
   1128  0000					      ld	c,mixer
hero.asm (1129): error: Unknown Mnemonic 'ld'.
   1129  0000					      ld	a,mixer_default
hero.asm (1130): error: Unknown Mnemonic 'call'.
   1130  0000					      call	wrpsg
hero.asm (1131): error: Unknown Mnemonic 'ld'.
   1131  0000					      ld	c,envperiode_hi
hero.asm (1132): error: Unknown Mnemonic 'ld'.
   1132  0000					      ld	a,8
hero.asm (1133): error: Unknown Mnemonic 'call'.
   1133  0000					      call	wrpsg
   1134  0000
hero.asm (1135): error: Unknown Mnemonic 'ld'.
   1135  0000				   decbombs   ld	a,(bombs)
hero.asm (1136): error: Unknown Mnemonic 'or'.
   1136  0000					      or	a
hero.asm (1137): error: Unknown Mnemonic 'jr'.
   1137  0000					      jr	z,nocntbmb
hero.asm (1138): error: Unknown Mnemonic 'dec'.
   1138  0000					      dec	a
hero.asm (1139): error: Unknown Mnemonic 'ld'.
   1139  0000					      ld	(bombs),a
hero.asm (1140): error: Unknown Mnemonic 'push'.
   1140  0000					      push	af
hero.asm (1141): error: Unknown Mnemonic 'ld'.
   1141  0000					      ld	c,noise
hero.asm (1142): error: Unknown Mnemonic 'ld'.
   1142  0000					      ld	a,%11111
hero.asm (1143): error: Unknown Mnemonic 'call'.
   1143  0000					      call	wrpsg
hero.asm (1144): error: Unknown Mnemonic 'ld'.
   1144  0000					      ld	c,envelope_shape
hero.asm (1145): error: Unknown Mnemonic 'ld'.
   1145  0000					      ld	a,%0000	;envshape: \_____
hero.asm (1146): error: Unknown Mnemonic 'call'.
   1146  0000					      call	wrpsg
hero.asm (1147): error: Unknown Mnemonic 'ld'.
   1147  0000					      ld	c,channelb
hero.asm (1148): error: Unknown Mnemonic 'ld'.
   1148  0000					      ld	a,soundfull or envelope_on
hero.asm (1149): error: Unknown Mnemonic 'call'.
   1149  0000					      call	wrpsg
hero.asm (1150): error: Unknown Mnemonic 'ld'.
   1150  0000					      ld	c,&50
hero.asm (1151): error: Unknown Mnemonic 'call'.
   1151  0000					      call	addpoints
hero.asm (1152): error: Unknown Mnemonic 'call'.
   1152  0000					      call	drawscore
hero.asm (1153): error: Unknown Mnemonic 'call'.
   1153  0000					      call	drawbombs
hero.asm (1154): error: Unknown Mnemonic 'pop'.
   1154  0000					      pop	af
hero.asm (1155): error: Unknown Mnemonic 'ld'.
   1155  0000					      ld	b,13
hero.asm (1156): error: Unknown Mnemonic 'push'.
   1156  0000				   bombpaus   push	bc
hero.asm (1157): error: Unknown Mnemonic 'call'.
   1157  0000					      call	waitvsync
hero.asm (1158): error: Unknown Mnemonic 'ei'.
   1158  0000					      ei
hero.asm (1159): error: Unknown Mnemonic 'halt'.
   1159  0000					      halt
hero.asm (1160): error: Unknown Mnemonic 'halt'.
   1160  0000					      halt
hero.asm (1161): error: Unknown Mnemonic 'di'.
   1161  0000					      di
hero.asm (1162): error: Unknown Mnemonic 'pop'.
   1162  0000					      pop	bc
hero.asm (1163): error: Unknown Mnemonic 'djnz'.
   1163  0000					      djnz	bombpaus
hero.asm (1164): error: Unknown Mnemonic 'jr'.
   1164  0000					      jr	decbombs
   1165  0000
hero.asm (1166): error: Unknown Mnemonic 'ld'.
   1166  0000				   nocntbmb   ld	c,envperiode_hi
hero.asm (1167): error: Unknown Mnemonic 'ld'.
   1167  0000					      ld	a,13
hero.asm (1168): error: Unknown Mnemonic 'call'.
   1168  0000					      call	wrpsg
   1169  0000
   1170  0000							;select random level
hero.asm (1171): error: Unknown Mnemonic 'ld'.
   1171  0000					      ld	a,(levnumbr)
hero.asm (1172): error: Unknown Mnemonic 'cp'.
   1172  0000					      cp	20
hero.asm (1173): error: Unknown Mnemonic 'jr'.
   1173  0000					      jr	nz,isprolv
hero.asm (1174): error: Unknown Mnemonic 'ld'.
   1174  0000					      ld	a,1
hero.asm (1175): error: Unknown Mnemonic 'ld'.
   1175  0000					      ld	(prolevel),a
hero.asm (1176): error: Unknown Mnemonic 'ld'.
   1176  0000				   isprolv    ld	a,(prolevel)
hero.asm (1177): error: Unknown Mnemonic 'or'.
   1177  0000					      or	a
hero.asm (1178): error: Unknown Mnemonic 'jr'.
   1178  0000					      jr	z,nxtlvnrm
hero.asm (1179): error: Unknown Mnemonic 'ld'.
   1179  0000					      ld	hl,randlvls
hero.asm (1180): error: Unknown Mnemonic 'ld'.
   1180  0000					      ld	a,r
hero.asm (1181): error: Unknown Mnemonic 'and'.
   1181  0000					      and	15
hero.asm (1182): error: Unknown Mnemonic 'or'.
   1182  0000					      or	a
hero.asm (1183): error: Unknown Mnemonic 'jr'.
   1183  0000					      jr	z,rndlev1
hero.asm (1184): error: Unknown Mnemonic 'sla'.
   1184  0000					      sla	a
hero.asm (1185): error: Unknown Mnemonic 'ld'.
   1185  0000					      ld	e,a
hero.asm (1186): error: Unknown Mnemonic 'ld'.
   1186  0000					      ld	d,0
hero.asm (1187): error: Unknown Mnemonic 'add'.
   1187  0000					      add	hl,de
hero.asm (1188): error: Unknown Mnemonic 'ld'.
   1188  0000				   rndlev1    ld	e,(hl)
hero.asm (1189): error: Unknown Mnemonic 'inc'.
   1189  0000					      inc	hl
hero.asm (1190): error: Unknown Mnemonic 'ld'.
   1190  0000					      ld	d,(hl)
hero.asm (1191): error: Unknown Mnemonic 'ld'.
   1191  0000					      ld	(pnextlev),de
hero.asm (1192): error: Unknown Mnemonic 'jr'.
   1192  0000					      jr	inclvcol
   1193  0000
hero.asm (1194): error: Unknown Mnemonic 'call'.
   1194  0000				   nxtlvnrm   call	addlevelnr
hero.asm (1195): error: Unknown Mnemonic 'ld'.
   1195  0000				   inclvcol   ld	a,(levelcoltabptr)
hero.asm (1196): error: Unknown Mnemonic 'inc'.
   1196  0000					      inc	a
hero.asm (1197): error: Unknown Mnemonic 'cp'.
   1197  0000					      cp	4
hero.asm (1198): error: Unknown Mnemonic 'jr'.
   1198  0000					      jr	nz,ncltbnul
hero.asm (1199): error: Unknown Mnemonic 'xor'.
   1199  0000					      xor	a
hero.asm (1200): error: Unknown Mnemonic 'ld'.
   1200  0000				   ncltbnul   ld	(levelcoltabptr),a
hero.asm (1201): error: Unknown Mnemonic 'jp'.
   1201  0000					      jp	newlevel
   1202  0000
   1203  0000							;*****************************
   1204  0000							;******* game loop end *******
   1205  0000							;*****************************
   1206  0000
   1207  0000							;gameloop data stuff 
   1208  0000		       00 41	   powercntrinit equ	65
   1209  0000
hero.asm (1210): error: Unknown Mnemonic 'db'.
   1210  0000				   herox      db	44
hero.asm (1211): error: Unknown Mnemonic 'db'.
   1211  0000				   heroy      db	5
hero.asm (1212): error: Unknown Mnemonic 'db'.
   1212  0000				   newherox   db	44
hero.asm (1213): error: Unknown Mnemonic 'db'.
   1213  0000				   newheroy   db	5
hero.asm (1214): error: Unknown Mnemonic 'db'.
   1214  0000				   herodir    db	0	;Z=right,NZ=left
hero.asm (1215): error: Unknown Mnemonic 'db'.
   1215  0000				   rotostat   db	0	;0=100, 1=50, 2=0 3=50
hero.asm (1216): error: Unknown Mnemonic 'db'.
   1216  0000				   rotosnd    db	0
hero.asm (1217): error: Unknown Mnemonic 'db'.
   1217  0000				   herofly    db	0	;hero is flying flag
hero.asm (1218): error: Unknown Mnemonic 'db'.
   1218  0000				   herolegs   db	2	;0=stand, 1-10=run state (*2:1-5)
hero.asm (1219): error: Unknown Mnemonic 'db'.
   1219  0000				   dntvsync   db	0	;do not first hero vsync, cos the fire took longer as vsync
   1220  0000
hero.asm (1221): error: Unknown Mnemonic 'db'.
   1221  0000				   updtscre   db	0	;update score
   1222  0000		       00 0c	   altcolr1   equ	12	;&0c
   1223  0000		       00 07	   altcolr2   equ	07	;&1c
   1224  0000		       00 05	   altcntri   equ	5
hero.asm (1225): error: Unknown Mnemonic 'db'.
   1225  0000				   altercol   db	altcolr1
hero.asm (1226): error: Unknown Mnemonic 'db'.
   1226  0000				   altercnt   db	altcntri
hero.asm (1227): error: Unknown Mnemonic 'db'.
   1227  0000				   powercnt   db	0
   1228  0000
hero.asm (1229): error: Unknown Mnemonic 'db'.
   1229  0000				   heroclsn   db	0
hero.asm (1230): error: Unknown Mnemonic 'db'.
   1230  0000				   newlevl    db	0
   1231  0000
hero.asm (1232): error: Unknown Mnemonic 'db'.
   1232  0000				   wimp       db	0
hero.asm (1233): error: Unknown Mnemonic 'db'.
   1233  0000				   timeout    db	0
   1234  0000
hero.asm (1235): error: Unknown Mnemonic 'db'.
   1235  0000				   prolevel   db	0
   1236  0000
   1237  0000		       00 07	   sklblnkinit equ	7	;9
hero.asm (1238): error: Unknown Mnemonic 'db'.
   1238  0000				   selskill   db	1
hero.asm (1239): error: Unknown Mnemonic 'db'.
   1239  0000				   skilblnk   db	0
hero.asm (1240): error: Unknown Mnemonic 'db'.
   1240  0000				   sklblctr   db	0
hero.asm (1241): error: Unknown Mnemonic 'db'.
   1241  0000				   sklfirpr   db	0
hero.asm (1242): error: Unknown Mnemonic 'db'.
   1242  0000				   rungame5   db	0
   1243  0000
   1244  0000		       00 01	   crushctrinit equ	1
hero.asm (1245): error: Unknown Mnemonic 'db'.
   1245  0000				   crushctr   db	0
   1246  0000
hero.asm (1247): error: Unknown Mnemonic 'dw'.
   1247  0000				   randlvls   dw	level5, level6, level7, level8
hero.asm (1248): error: Unknown Mnemonic 'dw'.
   1248  0000					      dw	level9, level10, level11, level12
hero.asm (1249): error: Unknown Mnemonic 'dw'.
   1249  0000					      dw	level13, level14, level15, level16
hero.asm (1250): error: Unknown Mnemonic 'dw'.
   1250  0000					      dw	level17, level18, level19, level20
   1251  0000
   1252  0000
   1253  0000							;-------------------------------------------------------------------------------
   1254  0000							;waitsl
   1255  0000							;wait b scan lines
   1256  0000							;
hero.asm (1257): error: Unknown Mnemonic 'push'.
   1257  0000				   waitsl     push	bc
hero.asm (1258): error: Unknown Mnemonic 'ld'.
   1258  0000					      ld	b,&29
hero.asm (1259): error: Unknown Mnemonic 'djnz'.
   1259  0000				   waitsl2    djnz	waitsl2
hero.asm (1260): error: Unknown Mnemonic 'pop'.
   1260  0000					      pop	bc
hero.asm (1261): error: Unknown Mnemonic 'djnz'.
   1261  0000					      djnz	waitsl
hero.asm (1262): error: Unknown Mnemonic 'ret'.
   1262  0000					      ret
   1263  0000
   1264  0000							;-------------------------------------------------------------------------------
   1265  0000							;selectdingsound
   1266  0000							;a=b fine: tone periode
   1267  0000							;
   1268  0000				   selectdingsound
hero.asm (1269): error: Unknown Mnemonic 'ld'.
   1269  0000					      ld	c,fineb
hero.asm (1270): error: Unknown Mnemonic 'call'.
   1270  0000					      call	wrpsg
hero.asm (1271): error: Unknown Mnemonic 'ld'.
   1271  0000					      ld	c,envperiode_hi
hero.asm (1272): error: Unknown Mnemonic 'ld'.
   1272  0000					      ld	a,4
hero.asm (1273): error: Unknown Mnemonic 'call'.
   1273  0000					      call	wrpsg
hero.asm (1274): error: Unknown Mnemonic 'ld'.
   1274  0000					      ld	c,mixer
hero.asm (1275): error: Unknown Mnemonic 'ld'.
   1275  0000					      ld	a,%00111000	;mixer all tone 
hero.asm (1276): error: Unknown Mnemonic 'call'.
   1276  0000					      call	wrpsg
   1277  0000							;ld   c,fineb
   1278  0000							;ld   a,%00010000
   1279  0000							;call wrpsg
hero.asm (1280): error: Unknown Mnemonic 'ld'.
   1280  0000					      ld	c,channelb
hero.asm (1281): error: Unknown Mnemonic 'ld'.
   1281  0000					      ld	a,soundfull or envelope_on
hero.asm (1282): error: Unknown Mnemonic 'call'.
   1282  0000					      call	wrpsg
hero.asm (1283): error: Unknown Mnemonic 'ld'.
   1283  0000					      ld	c,envelope_shape
hero.asm (1284): error: Unknown Mnemonic 'ld'.
   1284  0000					      ld	a,%0000	;envshape: \_____
hero.asm (1285): error: Unknown Mnemonic 'call'.
   1285  0000					      call	wrpsg
hero.asm (1286): error: Unknown Mnemonic 'ret'.
   1286  0000					      ret
   1287  0000
   1288  0000							;-------------------------------------------------------------------------------
   1289  0000							;vsyncgap
   1290  0000				   vsyncgap
hero.asm (1291): error: Unknown Mnemonic 'ld'.
   1291  0000					      ld	a,(newheroy)
hero.asm (1292): error: Unknown Mnemonic 'cp'.
   1292  0000					      cp	116	;116
hero.asm (1293): error: Unknown Mnemonic 'ret'.
   1293  0000					      ret	c
hero.asm (1294): error: Unknown Mnemonic 'ld'.
   1294  0000					      ld	b,10	;count ten scanlines
hero.asm (1295): error: Unknown Mnemonic 'push'.
   1295  0000				   vsgpaus2   push	bc
hero.asm (1296): error: Unknown Mnemonic 'ld'.
   1296  0000					      ld	b,63	;one scanline
hero.asm (1297): error: Unknown Mnemonic 'djnz'.
   1297  0000				   vsgpause   djnz	vsgpause
hero.asm (1298): error: Unknown Mnemonic 'pop'.
   1298  0000					      pop	bc
hero.asm (1299): error: Unknown Mnemonic 'djnz'.
   1299  0000					      djnz	vsgpaus2
hero.asm (1300): error: Unknown Mnemonic 'ret'.
   1300  0000					      ret
   1301  0000
   1302  0000							;-------------------------------------------------------------------------------
   1303  0000							;placepoints
   1304  0000							;in:hl=pointer mem, bc=pos, fix size=&0405
   1305  0000							;
   1306  0000				   placepoints
hero.asm (1307): error: Unknown Mnemonic 'ex'.
   1307  0000					      ex	de,hl
hero.asm (1308): error: Unknown Mnemonic 'ld'.
   1308  0000					      ld	hl,plcpntct	;free "points-slots"?
hero.asm (1309): error: Unknown Mnemonic 'ld'.
   1309  0000					      ld	a,(hl)
hero.asm (1310): error: Unknown Mnemonic 'or'.
   1310  0000					      or	a
hero.asm (1311): error: Unknown Mnemonic 'jr'.
   1311  0000					      jr	z,plpnset
hero.asm (1312): error: Unknown Mnemonic 'inc'.
   1312  0000					      inc	hl	;next record
hero.asm (1313): error: Unknown Mnemonic 'inc'.
   1313  0000					      inc	hl
hero.asm (1314): error: Unknown Mnemonic 'inc'.
   1314  0000					      inc	hl
hero.asm (1315): error: Unknown Mnemonic 'inc'.
   1315  0000					      inc	hl
hero.asm (1316): error: Unknown Mnemonic 'inc'.
   1316  0000					      inc	hl
hero.asm (1317): error: Unknown Mnemonic 'ld'.
   1317  0000					      ld	a,(hl)
hero.asm (1318): error: Unknown Mnemonic 'or'.
   1318  0000					      or	a
hero.asm (1319): error: Unknown Mnemonic 'ret'.
   1319  0000					      ret	nz
   1320  0000
hero.asm (1321): error: Unknown Mnemonic 'ld'.
   1321  0000				   plpnset    ld	a,plpncninit	;store...
hero.asm (1322): error: Unknown Mnemonic 'ld'.
   1322  0000					      ld	(hl),a	;...counter
hero.asm (1323): error: Unknown Mnemonic 'inc'.
   1323  0000					      inc	hl
hero.asm (1324): error: Unknown Mnemonic 'ld'.
   1324  0000					      ld	(hl),b	;store...
hero.asm (1325): error: Unknown Mnemonic 'inc'.
   1325  0000					      inc	hl	;...x and y
hero.asm (1326): error: Unknown Mnemonic 'ld'.
   1326  0000					      ld	(hl),c	;
hero.asm (1327): error: Unknown Mnemonic 'inc'.
   1327  0000					      inc	hl
hero.asm (1328): error: Unknown Mnemonic 'ld'.
   1328  0000					      ld	(hl),e	;store....
hero.asm (1329): error: Unknown Mnemonic 'inc'.
   1329  0000					      inc	hl	;...pointer
hero.asm (1330): error: Unknown Mnemonic 'ld'.
   1330  0000					      ld	(hl),d	;
hero.asm (1331): error: Unknown Mnemonic 'ret'.
   1331  0000					      ret
   1332  0000
hero.asm (1333): error: Unknown Mnemonic 'db'.
   1333  0000				   plcpntct   db	0	;pnt1 counter
hero.asm (1334): error: Unknown Mnemonic 'dw'.
   1334  0000					      dw	0	;xy
hero.asm (1335): error: Unknown Mnemonic 'dw'.
   1335  0000					      dw	0	;hl pointer
hero.asm (1336): error: Unknown Mnemonic 'db'.
   1336  0000				   plcpntc2   db	0	;pnt2 counter								       
hero.asm (1337): error: Unknown Mnemonic 'dw'.
   1337  0000					      dw	0	;xy								     
hero.asm (1338): error: Unknown Mnemonic 'dw'.
   1338  0000					      dw	0	;hl pointer
   1339  0000
   1340  0000		       00 08	   plpncninit equ	8
   1341  0000
   1342  0000							;-------------------------------------------------------------------------------
   1343  0000							;pointscounter
   1344  0000							;
   1345  0000				   pointscounter
hero.asm (1346): error: Unknown Mnemonic 'ld'.
   1346  0000					      ld	b,2
hero.asm (1347): error: Unknown Mnemonic 'ld'.
   1347  0000					      ld	hl,plcpntct
hero.asm (1348): error: Unknown Mnemonic 'push'.
   1348  0000				   ptscntlp   push	bc
hero.asm (1349): error: Unknown Mnemonic 'ld'.
   1349  0000					      ld	a,(hl)
hero.asm (1350): error: Unknown Mnemonic 'or'.
   1350  0000					      or	a
hero.asm (1351): error: Unknown Mnemonic 'jr'.
   1351  0000					      jr	z,ptscntnx
hero.asm (1352): error: Unknown Mnemonic 'cp'.
   1352  0000					      cp	1
hero.asm (1353): error: Unknown Mnemonic 'jr'.
   1353  0000					      jr	z,ptscntnl
hero.asm (1354): error: Unknown Mnemonic 'dec'.
   1354  0000					      dec	a
hero.asm (1355): error: Unknown Mnemonic 'ld'.
   1355  0000					      ld	(hl),a
hero.asm (1356): error: Unknown Mnemonic 'inc'.
   1356  0000					      inc	hl
hero.asm (1357): error: Unknown Mnemonic 'ld'.
   1357  0000					      ld	b,(hl)
hero.asm (1358): error: Unknown Mnemonic 'inc'.
   1358  0000					      inc	hl
hero.asm (1359): error: Unknown Mnemonic 'ld'.
   1359  0000					      ld	c,(hl)
hero.asm (1360): error: Unknown Mnemonic 'push'.
   1360  0000					      push	hl
hero.asm (1361): error: Unknown Mnemonic 'inc'.
   1361  0000					      inc	hl
hero.asm (1362): error: Unknown Mnemonic 'ld'.
   1362  0000					      ld	e,(hl)
hero.asm (1363): error: Unknown Mnemonic 'inc'.
   1363  0000					      inc	hl
hero.asm (1364): error: Unknown Mnemonic 'ld'.
   1364  0000					      ld	d,(hl)
hero.asm (1365): error: Unknown Mnemonic 'ex'.
   1365  0000					      ex	de,hl
hero.asm (1366): error: Unknown Mnemonic 'ld'.
   1366  0000					      ld	de,&0405
hero.asm (1367): error: Unknown Mnemonic 'call'.
   1367  0000					      call	drawsprite_or
hero.asm (1368): error: Unknown Mnemonic 'pop'.
   1368  0000					      pop	hl
hero.asm (1369): error: Unknown Mnemonic 'jr'.
   1369  0000					      jr	ptscntx2
   1370  0000
hero.asm (1371): error: Unknown Mnemonic 'inc'.
   1371  0000				   ptscntnx   inc	hl
hero.asm (1372): error: Unknown Mnemonic 'inc'.
   1372  0000					      inc	hl
hero.asm (1373): error: Unknown Mnemonic 'inc'.
   1373  0000				   ptscntx2   inc	hl
hero.asm (1374): error: Unknown Mnemonic 'inc'.
   1374  0000					      inc	hl
hero.asm (1375): error: Unknown Mnemonic 'inc'.
   1375  0000					      inc	hl
hero.asm (1376): error: Unknown Mnemonic 'pop'.
   1376  0000					      pop	bc
hero.asm (1377): error: Unknown Mnemonic 'djnz'.
   1377  0000					      djnz	ptscntlp
hero.asm (1378): error: Unknown Mnemonic 'ret'.
   1378  0000					      ret
   1379  0000
hero.asm (1380): error: Unknown Mnemonic 'push'.
   1380  0000				   ptscntnl   push	hl
hero.asm (1381): error: Unknown Mnemonic 'xor'.
   1381  0000					      xor	a
hero.asm (1382): error: Unknown Mnemonic 'ld'.
   1382  0000					      ld	(hl),a
hero.asm (1383): error: Unknown Mnemonic 'inc'.
   1383  0000					      inc	hl
hero.asm (1384): error: Unknown Mnemonic 'ld'.
   1384  0000					      ld	b,(hl)
hero.asm (1385): error: Unknown Mnemonic 'inc'.
   1385  0000					      inc	hl
hero.asm (1386): error: Unknown Mnemonic 'ld'.
   1386  0000					      ld	c,(hl)
hero.asm (1387): error: Unknown Mnemonic 'inc'.
   1387  0000					      inc	c
hero.asm (1388): error: Unknown Mnemonic 'ld'.
   1388  0000					      ld	de,&0504
hero.asm (1389): error: Unknown Mnemonic 'call'.
   1389  0000					      call	fillblock
hero.asm (1390): error: Unknown Mnemonic 'pop'.
   1390  0000					      pop	hl
hero.asm (1391): error: Unknown Mnemonic 'jr'.
   1391  0000					      jr	ptscntnx
   1392  0000
   1393  0000							;-------------------------------------------------------------------------------
   1394  0000							;allsoundstop
   1395  0000							;
   1396  0000				   allsoundstop
hero.asm (1397): error: Unknown Mnemonic 'ld'.
   1397  0000					      ld	c,channelb
hero.asm (1398): error: Unknown Mnemonic 'ld'.
   1398  0000					      ld	a,soundpst
hero.asm (1399): error: Unknown Mnemonic 'call'.
   1399  0000					      call	wrpsg
   1400  0000
   1401  0000				   acsoundstop
hero.asm (1402): error: Unknown Mnemonic 'ld'.
   1402  0000					      ld	c,channela
hero.asm (1403): error: Unknown Mnemonic 'ld'.
   1403  0000					      ld	a,soundpst
hero.asm (1404): error: Unknown Mnemonic 'call'.
   1404  0000					      call	wrpsg
hero.asm (1405): error: Unknown Mnemonic 'ld'.
   1405  0000					      ld	c,channelc
hero.asm (1406): error: Unknown Mnemonic 'ld'.
   1406  0000					      ld	a,soundpst
hero.asm (1407): error: Unknown Mnemonic 'call'.
   1407  0000					      call	wrpsg
hero.asm (1408): error: Unknown Mnemonic 'ret'.
   1408  0000					      ret
   1409  0000
   1410  0000							;-------------------------------------------------------------------------------
   1411  0000							;collision test
   1412  0000							;
   1413  0000				   collisiontest
hero.asm (1414): error: Unknown Mnemonic 'ld'.
   1414  0000					      ld	hl,(clvptrb1)
hero.asm (1415): error: Unknown Mnemonic 'ld'.
   1415  0000					      ld	de,120+4+1	;+1 = crushcounter						     
hero.asm (1416): error: Unknown Mnemonic 'add'.
   1416  0000					      add	hl,de
   1417  0000
   1418  0000							;collision test
hero.asm (1419): error: Unknown Mnemonic 'ld'.
   1419  0000				   coltstlt   ld	b,items
hero.asm (1420): error: Unknown Mnemonic 'push'.
   1420  0000				   cltstllp   push	bc
hero.asm (1421): error: Unknown Mnemonic 'ld'.
   1421  0000					      ld	a,(hl)
hero.asm (1422): error: Unknown Mnemonic 'or'.
   1422  0000					      or	a
hero.asm (1423): error: Unknown Mnemonic 'jr'.
   1423  0000					      jr	z,cltstlsk
hero.asm (1424): error: Unknown Mnemonic 'push'.
   1424  0000					      push	hl
hero.asm (1425): error: Unknown Mnemonic 'pop'.
   1425  0000					      pop	ix
hero.asm (1426): error: Unknown Mnemonic 'inc'.
   1426  0000					      inc	hl	;skip itemtype 
hero.asm (1427): error: Unknown Mnemonic 'inc'.
   1427  0000					      inc	hl	;skip number of sprites
hero.asm (1428): error: Unknown Mnemonic 'ld'.
   1428  0000					      ld	a,(hl)
hero.asm (1429): error: Unknown Mnemonic 'and'.
   1429  0000					      and	a	;patch 1
hero.asm (1430): error: Unknown Mnemonic 'sla'.
   1430  0000					      sla	a
hero.asm (1431): error: Unknown Mnemonic 'ld'.
   1431  0000					      ld	(cltstptc+1),a
   1432  0000
hero.asm (1433): error: Unknown Mnemonic 'ld'.
   1433  0000					      ld	b,11	;fill up patch
hero.asm (1434): error: Unknown Mnemonic 'sub'.
   1434  0000					      sub	b
hero.asm (1435): error: Unknown Mnemonic 'cpl'.
   1435  0000					      cpl
hero.asm (1436): error: Unknown Mnemonic 'inc'.
   1436  0000					      inc	a
hero.asm (1437): error: Unknown Mnemonic 'ld'.
   1437  0000					      ld	(cltstlnr+1),a
   1438  0000
hero.asm (1439): error: Unknown Mnemonic 'inc'.
   1439  0000					      inc	hl
   1440  0000
hero.asm (1441): error: Unknown Mnemonic 'ld'.
   1441  0000					      ld	b,(hl)	;retrive x (b) and...
hero.asm (1442): error: Unknown Mnemonic 'inc'.
   1442  0000					      inc	hl	;
hero.asm (1443): error: Unknown Mnemonic 'ld'.
   1443  0000					      ld	c,(hl)	;...and y (c)
   1444  0000
hero.asm (1445): error: Unknown Mnemonic 'ld'.
   1445  0000					      ld	de,5	;skip...
hero.asm (1446): error: Unknown Mnemonic 'add'.
   1446  0000					      add	hl,de	;...movement parameter
   1447  0000
hero.asm (1448): error: Unknown Mnemonic 'ld'.
   1448  0000				   cltstptc   ld	de,0	;patched addition to correct sprite pointer
hero.asm (1449): error: Unknown Mnemonic 'add'.
   1449  0000					      add	hl,de
   1450  0000
hero.asm (1451): error: Unknown Mnemonic 'ld'.
   1451  0000					      ld	e,(hl)	;retrieve...
hero.asm (1452): error: Unknown Mnemonic 'inc'.
   1452  0000					      inc	hl	;...width and		    
hero.asm (1453): error: Unknown Mnemonic 'ld'.
   1453  0000					      ld	d,(hl)	;...height of enemy
hero.asm (1454): error: Unknown Mnemonic 'push'.
   1454  0000					      push	hl	;
hero.asm (1455): error: Unknown Mnemonic 'ex'.
   1455  0000					      ex	de,hl	;
hero.asm (1456): error: Unknown Mnemonic 'ld'.
   1456  0000					      ld	e,(hl)	;e = height of enemy
hero.asm (1457): error: Unknown Mnemonic 'inc'.
   1457  0000					      inc	hl	; 
hero.asm (1458): error: Unknown Mnemonic 'ld'.
   1458  0000					      ld	d,(hl)	;d = width of enemy
hero.asm (1459): error: Unknown Mnemonic 'pop'.
   1459  0000					      pop	hl	;
   1460  0000
hero.asm (1461): error: Unknown Mnemonic 'ld'.
   1461  0000					      ld	a,(newherox)	;test: is enemy in x range
hero.asm (1462): error: Unknown Mnemonic 'sub'.
   1462  0000					      sub	b
hero.asm (1463): error: Unknown Mnemonic 'jr'.
   1463  0000					      jr	c,cltstxc1
hero.asm (1464): error: Unknown Mnemonic 'sub'.
   1464  0000					      sub	d	;case 2: hero > enemy --> test enemy width
hero.asm (1465): error: Unknown Mnemonic 'jr'.
   1465  0000					      jr	cltstxc2
hero.asm (1466): error: Unknown Mnemonic 'cpl'.
   1466  0000				   cltstxc1   cpl		;case 1: hero < enemy --> test hero width
hero.asm (1467): error: Unknown Mnemonic 'sub'.
   1467  0000					      sub	3	;&14-&18 =-4 -> "cpl ! inc 1" or "sub herowidth-1"
hero.asm (1468): error: Unknown Mnemonic 'jr'.
   1468  0000				   cltstxc2   jr	nc,cltstlnr
   1469  0000
hero.asm (1470): error: Unknown Mnemonic 'ld'.
   1470  0000					      ld	a,(newheroy)	;test: is enemy in y range
hero.asm (1471): error: Unknown Mnemonic 'sub'.
   1471  0000					      sub	c
hero.asm (1472): error: Unknown Mnemonic 'jr'.
   1472  0000					      jr	c,cltstyc1
hero.asm (1473): error: Unknown Mnemonic 'sub'.
   1473  0000					      sub	e
hero.asm (1474): error: Unknown Mnemonic 'jr'.
   1474  0000					      jr	cltstyc2
hero.asm (1475): error: Unknown Mnemonic 'cpl'.
   1475  0000				   cltstyc1   cpl
hero.asm (1476): error: Unknown Mnemonic 'sub'.
   1476  0000					      sub	23	;heroheight -1 = 24-1 = 23	    
hero.asm (1477): error: Unknown Mnemonic 'jr'.
   1477  0000					      jr	cltstyc2
hero.asm (1478): error: Unknown Mnemonic 'jr'.
   1478  0000				   cltstyc2   jr	nc,cltstlnr
   1479  0000
hero.asm (1480): error: Unknown Mnemonic 'ld'.
   1480  0000					      ld	a,(ix+0)
hero.asm (1481): error: Unknown Mnemonic 'cp'.
   1481  0000					      cp	item_lantern_off
hero.asm (1482): error: Unknown Mnemonic 'jr'.
   1482  0000					      jr	z,cltstlfn
hero.asm (1483): error: Unknown Mnemonic 'cp'.
   1483  0000					      cp	item_lantern_on
hero.asm (1484): error: Unknown Mnemonic 'jr'.
   1484  0000					      jr	z,lantern_collision
hero.asm (1485): error: Unknown Mnemonic 'cp'.
   1485  0000					      cp	item_miner_rt
hero.asm (1486): error: Unknown Mnemonic 'jr'.
   1486  0000					      jr	z,level_finished_rt
hero.asm (1487): error: Unknown Mnemonic 'cp'.
   1487  0000					      cp	item_miner_lt
hero.asm (1488): error: Unknown Mnemonic 'jr'.
   1488  0000					      jr	z,level_finished_lt
hero.asm (1489): error: Unknown Mnemonic 'cp'.
   1489  0000					      cp	item_raft
hero.asm (1490): error: Unknown Mnemonic 'jr'.
   1490  0000					      jr	z,cltstlfn
   1491  0000							;hero dies
hero.asm (1492): error: Unknown Mnemonic 'xor'.
   1492  0000					      xor	a
hero.asm (1493): error: Unknown Mnemonic 'ld'.
   1493  0000					      ld	(ix+0),a
hero.asm (1494): error: Unknown Mnemonic 'ld'.
   1494  0000					      ld	a,(heroclsn)
   1495  0000					      set	col_flag_enemy,a
hero.asm (1496): error: Unknown Mnemonic 'ld'.
   1496  0000					      ld	(heroclsn),a
hero.asm (1497): error: Unknown Mnemonic 'pop'.
   1497  0000				   cltstlfn   pop	bc
hero.asm (1498): error: Unknown Mnemonic 'ret'.
   1498  0000					      ret
   1499  0000
hero.asm (1500): error: Unknown Mnemonic 'ld'.
   1500  0000				   cltstlnr   ld	de,11	;itclltnr
hero.asm (1501): error: Unknown Mnemonic 'add'.
   1501  0000					      add	hl,de
hero.asm (1502): error: Unknown Mnemonic 'jr'.
   1502  0000					      jr	cltstlnx
   1503  0000
hero.asm (1504): error: Unknown Mnemonic 'ld'.
   1504  0000				   cltstlsk   ld	de,itemrecsize
hero.asm (1505): error: Unknown Mnemonic 'add'.
   1505  0000					      add	hl,de
   1506  0000
hero.asm (1507): error: Unknown Mnemonic 'pop'.
   1507  0000				   cltstlnx   pop	bc
hero.asm (1508): error: Unknown Mnemonic 'djnz'.
   1508  0000					      djnz	cltstllp
hero.asm (1509): error: Unknown Mnemonic 'ret'.
   1509  0000					      ret
   1510  0000
   1511  0000				   lantern_collision
hero.asm (1512): error: Unknown Mnemonic 'ld'.
   1512  0000					      ld	a,item_lantern_off	;set lantern to off
hero.asm (1513): error: Unknown Mnemonic 'ld'.
   1513  0000					      ld	(ix+0),a
   1514  0000
hero.asm (1515): error: Unknown Mnemonic 'ld'.
   1515  0000					      ld	hl,_lantoff
hero.asm (1516): error: Unknown Mnemonic 'ld'.
   1516  0000					      ld	(ix+9),l	;new sprite
hero.asm (1517): error: Unknown Mnemonic 'ld'.
   1517  0000					      ld	(ix+10),h
   1518  0000
hero.asm (1519): error: Unknown Mnemonic 'ld'.
   1519  0000					      ld	hl,(clvptrb1)
hero.asm (1520): error: Unknown Mnemonic 'dec'.
   1520  0000					      dec	hl
hero.asm (1521): error: Unknown Mnemonic 'ld'.
   1521  0000					      ld	(hl),20
   1522  0000
hero.asm (1523): error: Unknown Mnemonic 'ld'.
   1523  0000					      ld	hl,colsavb
hero.asm (1524): error: Unknown Mnemonic 'ld'.
   1524  0000					      ld	(hl),b
hero.asm (1525): error: Unknown Mnemonic 'inc'.
   1525  0000					      inc	hl
hero.asm (1526): error: Unknown Mnemonic 'ld'.
   1526  0000					      ld	(hl),c
   1527  0000
hero.asm (1528): error: Unknown Mnemonic 'call'.
   1528  0000					      call	setlevelcolour	;change level colour
   1529  0000
hero.asm (1530): error: Unknown Mnemonic 'ld'.
   1530  0000					      ld	a,(heroclsn)
   1531  0000					      set	col_flag_lantern,a
hero.asm (1532): error: Unknown Mnemonic 'ld'.
   1532  0000					      ld	(heroclsn),a
hero.asm (1533): error: Unknown Mnemonic 'pop'.
   1533  0000				   lantcolp   pop	bc	;THIS OPCODE MUST BE "POP BC", PATCHED!!!!
hero.asm (1534): error: Unknown Mnemonic 'ret'.
   1534  0000					      ret
   1535  0000
   1536  0000				   level_finished_rt
hero.asm (1537): error: Unknown Mnemonic 'ld'.
   1537  0000					      ld	a,(heroclsn)
   1538  0000					      set	col_flag_compltr,a
hero.asm (1539): error: Unknown Mnemonic 'ld'.
   1539  0000				   finjmpin   ld	(heroclsn),a
hero.asm (1540): error: Unknown Mnemonic 'ld'.
   1540  0000					      ld	hl,colsavb
hero.asm (1541): error: Unknown Mnemonic 'ld'.
   1541  0000					      ld	(hl),b
hero.asm (1542): error: Unknown Mnemonic 'inc'.
   1542  0000					      inc	hl
hero.asm (1543): error: Unknown Mnemonic 'ld'.
   1543  0000					      ld	(hl),c
hero.asm (1544): error: Unknown Mnemonic 'pop'.
   1544  0000					      pop	bc
hero.asm (1545): error: Unknown Mnemonic 'ret'.
   1545  0000					      ret
   1546  0000
   1547  0000				   level_finished_lt
hero.asm (1548): error: Unknown Mnemonic 'ld'.
   1548  0000					      ld	a,(heroclsn)
   1549  0000					      set	col_flag_compltl,a
hero.asm (1550): error: Unknown Mnemonic 'jr'.
   1550  0000					      jr	finjmpin
   1551  0000							;end test enemies
   1552  0000
hero.asm (1553): error: Unknown Mnemonic 'db'.
   1553  0000				   colsavb    db	0
hero.asm (1554): error: Unknown Mnemonic 'db'.
   1554  0000				   colsavc    db	0
   1555  0000
   1556  0000							;-------------------------------------------------------------------------------
   1557  0000							;flash walls
   1558  0000							;
   1559  0000				   flashwalls
hero.asm (1560): error: Unknown Mnemonic 'ld'.
   1560  0000					      ld	a,(altercnt)
hero.asm (1561): error: Unknown Mnemonic 'or'.
   1561  0000					      or	a
hero.asm (1562): error: Unknown Mnemonic 'jr'.
   1562  0000					      jr	nz,flashdec
hero.asm (1563): error: Unknown Mnemonic 'ld'.
   1563  0000					      ld	a,altcntri
hero.asm (1564): error: Unknown Mnemonic 'ld'.
   1564  0000					      ld	(altercnt),a
hero.asm (1565): error: Unknown Mnemonic 'ld'.
   1565  0000					      ld	a,(altercol)
hero.asm (1566): error: Unknown Mnemonic 'cp'.
   1566  0000					      cp	altcolr1
hero.asm (1567): error: Unknown Mnemonic 'jr'.
   1567  0000					      jr	nz,flashs1
hero.asm (1568): error: Unknown Mnemonic 'ld'.
   1568  0000					      ld	a,altcolr2
hero.asm (1569): error: Unknown Mnemonic 'jr'.
   1569  0000					      jr	flashs2
hero.asm (1570): error: Unknown Mnemonic 'ld'.
   1570  0000				   flashs1    ld	a,altcolr1
hero.asm (1571): error: Unknown Mnemonic 'ld'.
   1571  0000				   flashs2    ld	(altercol),a
hero.asm (1572): error: Unknown Mnemonic 'ld'.
   1572  0000					      ld	bc,&7f0e
hero.asm (1573): error: Unknown Mnemonic 'out'.
   1573  0000					      out	(c),c
hero.asm (1574): error: Unknown Mnemonic 'or'.
   1574  0000					      or	%01000000
hero.asm (1575): error: Unknown Mnemonic 'out'.
   1575  0000					      out	(c),a
hero.asm (1576): error: Unknown Mnemonic 'ret'.
   1576  0000					      ret
hero.asm (1577): error: Unknown Mnemonic 'dec'.
   1577  0000				   flashdec   dec	a
hero.asm (1578): error: Unknown Mnemonic 'ld'.
   1578  0000					      ld	(altercnt),a
hero.asm (1579): error: Unknown Mnemonic 'ret'.
   1579  0000					      ret
   1580  0000
   1581  0000							;-------------------------------------------------------------------------------
   1582  0000							;drawfire
   1583  0000							;todo:
   1584  0000							; der laser beam kann rechts oder links zum bildschirm aus
   1585  0000							; getestet werden -> swap 255, oder 41 swap!!!!!!
   1586  0000							;
   1587  0000				   drawfire
   1588  0000							;delete old laser beam
hero.asm (1589): error: Unknown Mnemonic 'ld'.
   1589  0000					      ld	a,(oldlasln)
hero.asm (1590): error: Unknown Mnemonic 'or'.
   1590  0000					      or	a
hero.asm (1591): error: Unknown Mnemonic 'jr'.
   1591  0000					      jr	z,dfr
hero.asm (1592): error: Unknown Mnemonic 'ld'.
   1592  0000					      ld	h,a	;save laser len to subtract, if dir = left
hero.asm (1593): error: Unknown Mnemonic 'ld'.
   1593  0000					      ld	e,a
hero.asm (1594): error: Unknown Mnemonic 'ld'.
   1594  0000					      ld	d,1
hero.asm (1595): error: Unknown Mnemonic 'ld'.
   1595  0000					      ld	a,(oldlasx)
hero.asm (1596): error: Unknown Mnemonic 'ld'.
   1596  0000					      ld	b,a
hero.asm (1597): error: Unknown Mnemonic 'ld'.
   1597  0000					      ld	a,(oldlasy)
hero.asm (1598): error: Unknown Mnemonic 'inc'.
   1598  0000					      inc	a
hero.asm (1599): error: Unknown Mnemonic 'ld'.
   1599  0000					      ld	c,a
hero.asm (1600): error: Unknown Mnemonic 'ld'.
   1600  0000					      ld	a,(oldlasdr)
hero.asm (1601): error: Unknown Mnemonic 'or'.
   1601  0000					      or	a
hero.asm (1602): error: Unknown Mnemonic 'jr'.
   1602  0000					      jr	nz,dellaslt
hero.asm (1603): error: Unknown Mnemonic 'jr'.
   1603  0000					      jr	dellaser
hero.asm (1604): error: Unknown Mnemonic 'ld'.
   1604  0000				   dellaslt   ld	a,b
hero.asm (1605): error: Unknown Mnemonic 'sub'.
   1605  0000					      sub	h
hero.asm (1606): error: Unknown Mnemonic 'ld'.
   1606  0000					      ld	b,a
hero.asm (1607): error: Unknown Mnemonic 'xor'.
   1607  0000				   dellaser   xor	a
hero.asm (1608): error: Unknown Mnemonic 'ld'.
   1608  0000					      ld	(oldlasln),a
hero.asm (1609): error: Unknown Mnemonic 'call'.
   1609  0000					      call	fillblock
   1610  0000
   1611  0000							;fire pressed? 	
hero.asm (1612): error: Unknown Mnemonic 'ld'.
   1612  0000				   dfr	      ld	a,(joybyte)
hero.asm (1613): error: Unknown Mnemonic 'bit'.
   1613  0000					      bit	joyfire,a
hero.asm (1614): error: Unknown Mnemonic 'jp'.
   1614  0000					      jp	nz,lasfire
   1615  0000
   1616  0000							;no fire pressed!
hero.asm (1617): error: Unknown Mnemonic 'xor'.
   1617  0000					      xor	a
hero.asm (1618): error: Unknown Mnemonic 'ld'.
   1618  0000					      ld	(lasbeam),a
hero.asm (1619): error: Unknown Mnemonic 'ret'.
   1619  0000					      ret
   1620  0000
   1621  0000							;yes, fire pressed
   1622  0000							;determine laser length and laser direction
hero.asm (1623): error: Unknown Mnemonic 'ld'.
   1623  0000				   lasfire    ld	a,(herodir)
hero.asm (1624): error: Unknown Mnemonic 'ld'.
   1624  0000					      ld	(oldlasdr),a
hero.asm (1625): error: Unknown Mnemonic 'or'.
   1625  0000					      or	a
hero.asm (1626): error: Unknown Mnemonic 'jp'.
   1626  0000					      jp	nz,lasleft
   1627  0000
   1628  0000							;laser right
hero.asm (1629): error: Unknown Mnemonic 'ld'.
   1629  0000					      ld	a,1	;no vsync test!!!!   
hero.asm (1630): error: Unknown Mnemonic 'ld'.
   1630  0000					      ld	(dntvsync),a
   1631  0000
hero.asm (1632): error: Unknown Mnemonic 'ld'.
   1632  0000					      ld	a,(newherox)
hero.asm (1633): error: Unknown Mnemonic 'add'.
   1633  0000					      add	3	;add 3 to x -> hero looks at right side
hero.asm (1634): error: Unknown Mnemonic 'ld'.
   1634  0000					      ld	b,a
hero.asm (1635): error: Unknown Mnemonic 'ld'.
   1635  0000					      ld	(oldlasx),a
hero.asm (1636): error: Unknown Mnemonic 'ld'.
   1636  0000					      ld	a,(newheroy)
hero.asm (1637): error: Unknown Mnemonic 'add'.
   1637  0000					      add	4	;increment y -> helmet
hero.asm (1638): error: Unknown Mnemonic 'ld'.
   1638  0000					      ld	(oldlasy),a
hero.asm (1639): error: Unknown Mnemonic 'ld'.
   1639  0000					      ld	c,a
hero.asm (1640): error: Unknown Mnemonic 'push'.
   1640  0000					      push	bc
hero.asm (1641): error: Unknown Mnemonic 'ld'.
   1641  0000					      ld	yl,b
hero.asm (1642): error: Unknown Mnemonic 'call'.
   1642  0000					      call	getstage
hero.asm (1643): error: Unknown Mnemonic 'ld'.
   1643  0000					      ld	b,laslength	;max laser length
hero.asm (1644): error: Unknown Mnemonic 'ld'.
   1644  0000					      ld	c,yl
hero.asm (1645): error: Unknown Mnemonic 'or'.
   1645  0000				   dflooprt   or	a	;wall...
hero.asm (1646): error: Unknown Mnemonic 'call'.
   1646  0000					      call	nz,decwalrt	;...collision?
hero.asm (1647): error: Unknown Mnemonic 'jp'.
   1647  0000					      jp	nz,walcolrt	;     
   1648  0000
   1649  0000							;begin test enemies
hero.asm (1650): error: Unknown Mnemonic 'ld'.
   1650  0000					      ld	a,laslength
hero.asm (1651): error: Unknown Mnemonic 'sub'.
   1651  0000					      sub	b
hero.asm (1652): error: Unknown Mnemonic 'ld'.
   1652  0000					      ld	(curlaslen),a
hero.asm (1653): error: Unknown Mnemonic 'push'.
   1653  0000					      push	bc
hero.asm (1654): error: Unknown Mnemonic 'push'.
   1654  0000					      push	de
hero.asm (1655): error: Unknown Mnemonic 'ld'.
   1655  0000					      ld	hl,(clvptrb1)
hero.asm (1656): error: Unknown Mnemonic 'ld'.
   1656  0000					      ld	bc,120+4+1
hero.asm (1657): error: Unknown Mnemonic 'add'.
   1657  0000					      add	hl,bc
hero.asm (1658): error: Unknown Mnemonic 'ld'.
   1658  0000					      ld	b,items
hero.asm (1659): error: Unknown Mnemonic 'push'.
   1659  0000				   itclrtlp   push	bc
hero.asm (1660): error: Unknown Mnemonic 'ld'.
   1660  0000					      ld	a,(hl)
hero.asm (1661): error: Unknown Mnemonic 'or'.
   1661  0000					      or	a
hero.asm (1662): error: Unknown Mnemonic 'jp'.
   1662  0000					      jp	z,itclrtsk
hero.asm (1663): error: Unknown Mnemonic 'push'.
   1663  0000					      push	hl
hero.asm (1664): error: Unknown Mnemonic 'pop'.
   1664  0000					      pop	ix
hero.asm (1665): error: Unknown Mnemonic 'inc'.
   1665  0000					      inc	hl	;
hero.asm (1666): error: Unknown Mnemonic 'inc'.
   1666  0000					      inc	hl	;skip...
hero.asm (1667): error: Unknown Mnemonic 'inc'.
   1667  0000					      inc	hl	;...animation counters
   1668  0000
hero.asm (1669): error: Unknown Mnemonic 'ld'.
   1669  0000					      ld	b,(hl)	;retrive x (b) and...
hero.asm (1670): error: Unknown Mnemonic 'inc'.
   1670  0000					      inc	hl	;
hero.asm (1671): error: Unknown Mnemonic 'ld'.
   1671  0000					      ld	c,(hl)	;...and y (c)
   1672  0000
hero.asm (1673): error: Unknown Mnemonic 'ld'.
   1673  0000					      ld	de,5	;skip...
hero.asm (1674): error: Unknown Mnemonic 'add'.
   1674  0000					      add	hl,de	;...movement parameter
   1675  0000
hero.asm (1676): error: Unknown Mnemonic 'ld'.
   1676  0000					      ld	e,(hl)	;retrieve...
hero.asm (1677): error: Unknown Mnemonic 'inc'.
   1677  0000					      inc	hl	;...width and		    
hero.asm (1678): error: Unknown Mnemonic 'ld'.
   1678  0000					      ld	d,(hl)	;...height of enemy
hero.asm (1679): error: Unknown Mnemonic 'push'.
   1679  0000					      push	hl	;
hero.asm (1680): error: Unknown Mnemonic 'ex'.
   1680  0000					      ex	de,hl	;
hero.asm (1681): error: Unknown Mnemonic 'ld'.
   1681  0000					      ld	e,(hl)	;e = height of enemy
hero.asm (1682): error: Unknown Mnemonic 'inc'.
   1682  0000					      inc	hl	; 
hero.asm (1683): error: Unknown Mnemonic 'ld'.
   1683  0000					      ld	d,(hl)	;d = width of enemy
hero.asm (1684): error: Unknown Mnemonic 'pop'.
   1684  0000					      pop	hl	;
   1685  0000
hero.asm (1686): error: Unknown Mnemonic 'ld'.
   1686  0000					      ld	a,(oldlasy)	;test: is enemy in y range
hero.asm (1687): error: Unknown Mnemonic 'sub'.
   1687  0000					      sub	c
hero.asm (1688): error: Unknown Mnemonic 'jr'.
   1688  0000					      jr	c,itclrtnr
hero.asm (1689): error: Unknown Mnemonic 'sub'.
   1689  0000					      sub	e
hero.asm (1690): error: Unknown Mnemonic 'jr'.
   1690  0000					      jr	nc,itclrtnr
   1691  0000
hero.asm (1692): error: Unknown Mnemonic 'ld'.
   1692  0000					      ld	a,(oldlasx)
hero.asm (1693): error: Unknown Mnemonic 'ld'.
   1693  0000					      ld	yh,a
hero.asm (1694): error: Unknown Mnemonic 'ld'.
   1694  0000					      ld	a,(curlaslen)
hero.asm (1695): error: Unknown Mnemonic 'add'.
   1695  0000					      add	yh
hero.asm (1696): error: Unknown Mnemonic 'sub'.
   1696  0000					      sub	d
hero.asm (1697): error: Unknown Mnemonic 'sub'.
   1697  0000					      sub	b
hero.asm (1698): error: Unknown Mnemonic 'jr'.
   1698  0000					      jr	nc,itclrtnr
hero.asm (1699): error: Unknown Mnemonic 'cpl'.
   1699  0000					      cpl
hero.asm (1700): error: Unknown Mnemonic 'sub'.
   1700  0000					      sub	d
hero.asm (1701): error: Unknown Mnemonic 'jr'.
   1701  0000					      jr	nc,itclrtnr
   1702  0000
hero.asm (1703): error: Unknown Mnemonic 'ld'.
   1703  0000					      ld	a,(ix+0)
hero.asm (1704): error: Unknown Mnemonic 'cp'.
   1704  0000					      cp	item_lantern_on
hero.asm (1705): error: Unknown Mnemonic 'call'.
   1705  0000					      call	z,fried_lantern
hero.asm (1706): error: Unknown Mnemonic 'jr'.
   1706  0000					      jr	z,itclrtfn
hero.asm (1707): error: Unknown Mnemonic 'and'.
   1707  0000					      and	item_mask_drlev
hero.asm (1708): error: Unknown Mnemonic 'or'.
   1708  0000					      or	a
hero.asm (1709): error: Unknown Mnemonic 'jr'.
   1709  0000					      jr	nz,itclrtfn
hero.asm (1710): error: Unknown Mnemonic 'ld'.
   1710  0000					      ld	a,(ix+0)
hero.asm (1711): error: Unknown Mnemonic 'xor'.
   1711  0000					      xor	a	;patch to "dec a" to decrease strength
   1712  0000							;dec  a
hero.asm (1713): error: Unknown Mnemonic 'ld'.
   1713  0000					      ld	(ix+0),a
hero.asm (1714): error: Unknown Mnemonic 'jr'.
   1714  0000					      jr	nz,itclrtfn
   1715  0000
hero.asm (1716): error: Unknown Mnemonic 'ld'.
   1716  0000					      ld	a,(ix+2)
hero.asm (1717): error: Unknown Mnemonic 'push'.
   1717  0000					      push	ix
hero.asm (1718): error: Unknown Mnemonic 'pop'.
   1718  0000					      pop	hl
hero.asm (1719): error: Unknown Mnemonic 'ld'.
   1719  0000					      ld	de,9
hero.asm (1720): error: Unknown Mnemonic 'add'.
   1720  0000					      add	hl,de
hero.asm (1721): error: Unknown Mnemonic 'sla'.
   1721  0000					      sla	a
hero.asm (1722): error: Unknown Mnemonic 'ld'.
   1722  0000					      ld	e,a
hero.asm (1723): error: Unknown Mnemonic 'add'.
   1723  0000					      add	hl,de
hero.asm (1724): error: Unknown Mnemonic 'ld'.
   1724  0000					      ld	e,(hl)
hero.asm (1725): error: Unknown Mnemonic 'inc'.
   1725  0000					      inc	hl
hero.asm (1726): error: Unknown Mnemonic 'ld'.
   1726  0000					      ld	d,(hl)
hero.asm (1727): error: Unknown Mnemonic 'ex'.
   1727  0000					      ex	de,hl
hero.asm (1728): error: Unknown Mnemonic 'ld'.
   1728  0000					      ld	d,(hl)
hero.asm (1729): error: Unknown Mnemonic 'inc'.
   1729  0000					      inc	hl
hero.asm (1730): error: Unknown Mnemonic 'ld'.
   1730  0000					      ld	e,(hl)
   1731  0000
hero.asm (1732): error: Unknown Mnemonic 'inc'.
   1732  0000					      inc	c
hero.asm (1733): error: Unknown Mnemonic 'xor'.
   1733  0000					      xor	a
hero.asm (1734): error: Unknown Mnemonic 'push'.
   1734  0000					      push	bc
hero.asm (1735): error: Unknown Mnemonic 'push'.
   1735  0000					      push	de
hero.asm (1736): error: Unknown Mnemonic 'call'.
   1736  0000					      call	fillblock
hero.asm (1737): error: Unknown Mnemonic 'pop'.
   1737  0000					      pop	de
hero.asm (1738): error: Unknown Mnemonic 'pop'.
   1738  0000					      pop	bc
   1739  0000
hero.asm (1740): error: Unknown Mnemonic 'dec'.
   1740  0000					      dec	c
hero.asm (1741): error: Unknown Mnemonic 'ld'.
   1741  0000					      ld	hl,pts50
hero.asm (1742): error: Unknown Mnemonic 'call'.
   1742  0000					      call	placepoints
   1743  0000
hero.asm (1744): error: Unknown Mnemonic 'ld'.
   1744  0000					      ld	c,&50
hero.asm (1745): error: Unknown Mnemonic 'call'.
   1745  0000					      call	addpoints
hero.asm (1746): error: Unknown Mnemonic 'ld'.
   1746  0000					      ld	a,1
hero.asm (1747): error: Unknown Mnemonic 'ld'.
   1747  0000					      ld	(updtscre),a
hero.asm (1748): error: Unknown Mnemonic 'jr'.
   1748  0000					      jr	itclrtfn
hero.asm (1749): error: Unknown Mnemonic 'ld'.
   1749  0000				   itclrtnr   ld	de,11
hero.asm (1750): error: Unknown Mnemonic 'add'.
   1750  0000					      add	hl,de
hero.asm (1751): error: Unknown Mnemonic 'jr'.
   1751  0000					      jr	itclrtnx
   1752  0000
hero.asm (1753): error: Unknown Mnemonic 'ld'.
   1753  0000				   itclrtsk   ld	de,itemrecsize
hero.asm (1754): error: Unknown Mnemonic 'add'.
   1754  0000					      add	hl,de
   1755  0000
hero.asm (1756): error: Unknown Mnemonic 'pop'.
   1756  0000				   itclrtnx   pop	bc
hero.asm (1757): error: Unknown Mnemonic 'djnz'.
   1757  0000					      djnz	itclrtlj
hero.asm (1758): error: Unknown Mnemonic 'jr'.
   1758  0000					      jr	itclrtx2
hero.asm (1759): error: Unknown Mnemonic 'jp'.
   1759  0000				   itclrtlj   jp	itclrtlp
   1760  0000
hero.asm (1761): error: Unknown Mnemonic 'pop'.
   1761  0000				   itclrtfn   pop	bc
hero.asm (1762): error: Unknown Mnemonic 'pop'.
   1762  0000					      pop	de
hero.asm (1763): error: Unknown Mnemonic 'pop'.
   1763  0000					      pop	bc
hero.asm (1764): error: Unknown Mnemonic 'jr'.
   1764  0000					      jr	walcolrt
hero.asm (1765): error: Unknown Mnemonic 'pop'.
   1765  0000				   itclrtx2   pop	de
hero.asm (1766): error: Unknown Mnemonic 'pop'.
   1766  0000					      pop	bc
   1767  0000							;end test enemies
   1768  0000
hero.asm (1769): error: Unknown Mnemonic 'inc'.
   1769  0000					      inc	c
hero.asm (1770): error: Unknown Mnemonic 'bit'.
   1770  0000					      bit	0,c
hero.asm (1771): error: Unknown Mnemonic 'jr'.
   1771  0000					      jr	nz,dfloprt2
hero.asm (1772): error: Unknown Mnemonic 'inc'.
   1772  0000					      inc	de
hero.asm (1773): error: Unknown Mnemonic 'ld'.
   1773  0000				   dfloprt2   ld	a,(de)
hero.asm (1774): error: Unknown Mnemonic 'bit'.
   1774  0000					      bit	6,a
hero.asm (1775): error: Unknown Mnemonic 'jr'.
   1775  0000					      jr	z,dfloprtj
hero.asm (1776): error: Unknown Mnemonic 'xor'.
   1776  0000					      xor	a
hero.asm (1777): error: Unknown Mnemonic 'djnz'.
   1777  0000				   dfloprtj   djnz	dfloprt3
hero.asm (1778): error: Unknown Mnemonic 'jr'.
   1778  0000					      jr	walcolrt
hero.asm (1779): error: Unknown Mnemonic 'jp'.
   1779  0000				   dfloprt3   jp	dflooprt
   1780  0000
   1781  0000							;laser length is set, so draw it
hero.asm (1782): error: Unknown Mnemonic 'ld'.
   1782  0000				   walcolrt   ld	a,laslength	;a is laser length
hero.asm (1783): error: Unknown Mnemonic 'sub'.
   1783  0000					      sub	b
hero.asm (1784): error: Unknown Mnemonic 'jp'.
   1784  0000					      jp	z,lasln0
hero.asm (1785): error: Unknown Mnemonic 'ld'.
   1785  0000					      ld	(oldlasln),a
hero.asm (1786): error: Unknown Mnemonic 'ld'.
   1786  0000					      ld	d,a
hero.asm (1787): error: Unknown Mnemonic 'ld'.
   1787  0000					      ld	e,1
hero.asm (1788): error: Unknown Mnemonic 'pop'.
   1788  0000					      pop	bc
hero.asm (1789): error: Unknown Mnemonic 'ld'.
   1789  0000					      ld	a,(lasbeam)
hero.asm (1790): error: Unknown Mnemonic 'xor'.
   1790  0000					      xor	&ff
hero.asm (1791): error: Unknown Mnemonic 'ld'.
   1791  0000					      ld	(lasbeam),a
hero.asm (1792): error: Unknown Mnemonic 'or'.
   1792  0000					      or	a
hero.asm (1793): error: Unknown Mnemonic 'jr'.
   1793  0000					      jr	z,beam2rt
hero.asm (1794): error: Unknown Mnemonic 'ld'.
   1794  0000					      ld	hl,laserb1
hero.asm (1795): error: Unknown Mnemonic 'call'.
   1795  0000					      call	drawsprite
hero.asm (1796): error: Unknown Mnemonic 'ret'.
   1796  0000					      ret
hero.asm (1797): error: Unknown Mnemonic 'ld'.
   1797  0000				   beam2rt    ld	hl,laserb2
hero.asm (1798): error: Unknown Mnemonic 'call'.
   1798  0000					      call	drawsprite
hero.asm (1799): error: Unknown Mnemonic 'ret'.
   1799  0000					      ret
   1800  0000
   1801  0000							;laser left
hero.asm (1802): error: Unknown Mnemonic 'ld'.
   1802  0000				   lasleft    ld	a,1	;no vsync test!!!!   
hero.asm (1803): error: Unknown Mnemonic 'ld'.
   1803  0000					      ld	(dntvsync),a
   1804  0000
hero.asm (1805): error: Unknown Mnemonic 'ld'.
   1805  0000					      ld	a,(newherox)
hero.asm (1806): error: Unknown Mnemonic 'inc'.
   1806  0000					      inc	a	;increment x -> hero looks at left side
hero.asm (1807): error: Unknown Mnemonic 'ld'.
   1807  0000					      ld	b,a
hero.asm (1808): error: Unknown Mnemonic 'ld'.
   1808  0000					      ld	(oldlasx),a
hero.asm (1809): error: Unknown Mnemonic 'ld'.
   1809  0000					      ld	a,(newheroy)
hero.asm (1810): error: Unknown Mnemonic 'add'.
   1810  0000					      add	4	;increment y -> helmet
hero.asm (1811): error: Unknown Mnemonic 'ld'.
   1811  0000					      ld	(oldlasy),a
hero.asm (1812): error: Unknown Mnemonic 'ld'.
   1812  0000					      ld	c,a
hero.asm (1813): error: Unknown Mnemonic 'push'.
   1813  0000					      push	bc
hero.asm (1814): error: Unknown Mnemonic 'ld'.
   1814  0000					      ld	yl,b
hero.asm (1815): error: Unknown Mnemonic 'dec'.
   1815  0000					      dec	b
hero.asm (1816): error: Unknown Mnemonic 'call'.
   1816  0000					      call	getstage
hero.asm (1817): error: Unknown Mnemonic 'ld'.
   1817  0000					      ld	b,laslength	;max laser length
hero.asm (1818): error: Unknown Mnemonic 'ld'.
   1818  0000					      ld	c,yl
hero.asm (1819): error: Unknown Mnemonic 'or'.
   1819  0000				   dflooplt   or	a	;wall... 
hero.asm (1820): error: Unknown Mnemonic 'call'.
   1820  0000					      call	nz,decwallt	;...collision?
hero.asm (1821): error: Unknown Mnemonic 'jp'.
   1821  0000					      jp	nz,walcollt	;
   1822  0000
   1823  0000							;begin test enemies
hero.asm (1824): error: Unknown Mnemonic 'ld'.
   1824  0000					      ld	a,laslength
hero.asm (1825): error: Unknown Mnemonic 'sub'.
   1825  0000					      sub	b
hero.asm (1826): error: Unknown Mnemonic 'ld'.
   1826  0000					      ld	(curlaslen),a
hero.asm (1827): error: Unknown Mnemonic 'push'.
   1827  0000					      push	bc
hero.asm (1828): error: Unknown Mnemonic 'push'.
   1828  0000					      push	de
hero.asm (1829): error: Unknown Mnemonic 'ld'.
   1829  0000					      ld	hl,(clvptrb1)
hero.asm (1830): error: Unknown Mnemonic 'ld'.
   1830  0000					      ld	bc,120+4+1
hero.asm (1831): error: Unknown Mnemonic 'add'.
   1831  0000					      add	hl,bc
hero.asm (1832): error: Unknown Mnemonic 'ld'.
   1832  0000					      ld	b,items
hero.asm (1833): error: Unknown Mnemonic 'push'.
   1833  0000				   itclltlp   push	bc
hero.asm (1834): error: Unknown Mnemonic 'ld'.
   1834  0000					      ld	a,(hl)
hero.asm (1835): error: Unknown Mnemonic 'or'.
   1835  0000					      or	a
hero.asm (1836): error: Unknown Mnemonic 'jr'.
   1836  0000					      jr	z,itclltsk
hero.asm (1837): error: Unknown Mnemonic 'push'.
   1837  0000					      push	hl
hero.asm (1838): error: Unknown Mnemonic 'pop'.
   1838  0000					      pop	ix
hero.asm (1839): error: Unknown Mnemonic 'inc'.
   1839  0000					      inc	hl	;
hero.asm (1840): error: Unknown Mnemonic 'inc'.
   1840  0000					      inc	hl	;skip...
hero.asm (1841): error: Unknown Mnemonic 'inc'.
   1841  0000					      inc	hl	;...animation counters
   1842  0000
hero.asm (1843): error: Unknown Mnemonic 'ld'.
   1843  0000					      ld	b,(hl)	;retrive x (b) and...
hero.asm (1844): error: Unknown Mnemonic 'inc'.
   1844  0000					      inc	hl	;
hero.asm (1845): error: Unknown Mnemonic 'ld'.
   1845  0000					      ld	c,(hl)	;...and y (c)
   1846  0000
hero.asm (1847): error: Unknown Mnemonic 'ld'.
   1847  0000					      ld	de,5	;skip...
hero.asm (1848): error: Unknown Mnemonic 'add'.
   1848  0000					      add	hl,de	;...movement parameter
   1849  0000
hero.asm (1850): error: Unknown Mnemonic 'ld'.
   1850  0000					      ld	e,(hl)	;retrieve...
hero.asm (1851): error: Unknown Mnemonic 'inc'.
   1851  0000					      inc	hl	;...width and		    
hero.asm (1852): error: Unknown Mnemonic 'ld'.
   1852  0000					      ld	d,(hl)	;...height of enemy
hero.asm (1853): error: Unknown Mnemonic 'push'.
   1853  0000					      push	hl	;
hero.asm (1854): error: Unknown Mnemonic 'ex'.
   1854  0000					      ex	de,hl	;
hero.asm (1855): error: Unknown Mnemonic 'ld'.
   1855  0000					      ld	e,(hl)	;e = height of enemy
hero.asm (1856): error: Unknown Mnemonic 'inc'.
   1856  0000					      inc	hl	; 
hero.asm (1857): error: Unknown Mnemonic 'ld'.
   1857  0000					      ld	d,(hl)	;d = width of enemy
hero.asm (1858): error: Unknown Mnemonic 'pop'.
   1858  0000					      pop	hl	;
   1859  0000
hero.asm (1860): error: Unknown Mnemonic 'ld'.
   1860  0000					      ld	a,(oldlasy)	;test: is enemy in y range
hero.asm (1861): error: Unknown Mnemonic 'sub'.
   1861  0000					      sub	c
hero.asm (1862): error: Unknown Mnemonic 'jr'.
   1862  0000					      jr	c,itclltnr
hero.asm (1863): error: Unknown Mnemonic 'sub'.
   1863  0000					      sub	e
hero.asm (1864): error: Unknown Mnemonic 'jr'.
   1864  0000					      jr	nc,itclltnr
   1865  0000
hero.asm (1866): error: Unknown Mnemonic 'ld'.
   1866  0000					      ld	a,(curlaslen)
hero.asm (1867): error: Unknown Mnemonic 'inc'.
   1867  0000					      inc	a
hero.asm (1868): error: Unknown Mnemonic 'ld'.
   1868  0000					      ld	yh,a
hero.asm (1869): error: Unknown Mnemonic 'ld'.
   1869  0000					      ld	a,(oldlasx)
hero.asm (1870): error: Unknown Mnemonic 'sub'.
   1870  0000					      sub	yh
hero.asm (1871): error: Unknown Mnemonic 'sub'.
   1871  0000					      sub	b
hero.asm (1872): error: Unknown Mnemonic 'jr'.
   1872  0000					      jr	c,itclltnr
hero.asm (1873): error: Unknown Mnemonic 'sub'.
   1873  0000					      sub	d
hero.asm (1874): error: Unknown Mnemonic 'jr'.
   1874  0000					      jr	nc,itclltnr
   1875  0000
hero.asm (1876): error: Unknown Mnemonic 'ld'.
   1876  0000					      ld	a,(ix+0)
hero.asm (1877): error: Unknown Mnemonic 'cp'.
   1877  0000					      cp	item_lantern_on
hero.asm (1878): error: Unknown Mnemonic 'call'.
   1878  0000					      call	z,fried_lantern
hero.asm (1879): error: Unknown Mnemonic 'jr'.
   1879  0000					      jr	z,itclltfn
hero.asm (1880): error: Unknown Mnemonic 'and'.
   1880  0000					      and	item_mask_drlev
hero.asm (1881): error: Unknown Mnemonic 'or'.
   1881  0000					      or	a
hero.asm (1882): error: Unknown Mnemonic 'jr'.
   1882  0000					      jr	nz,itclltfn
hero.asm (1883): error: Unknown Mnemonic 'ld'.
   1883  0000					      ld	a,(ix+0)
hero.asm (1884): error: Unknown Mnemonic 'xor'.
   1884  0000					      xor	a	;patch to "dec a" to decrease strength
hero.asm (1885): error: Unknown Mnemonic 'ld'.
   1885  0000					      ld	(ix+0),a
hero.asm (1886): error: Unknown Mnemonic 'jr'.
   1886  0000					      jr	nz,itclltfn
   1887  0000
hero.asm (1888): error: Unknown Mnemonic 'ld'.
   1888  0000					      ld	a,(ix+2)
hero.asm (1889): error: Unknown Mnemonic 'push'.
   1889  0000					      push	ix
hero.asm (1890): error: Unknown Mnemonic 'pop'.
   1890  0000					      pop	hl
hero.asm (1891): error: Unknown Mnemonic 'ld'.
   1891  0000					      ld	de,9
hero.asm (1892): error: Unknown Mnemonic 'add'.
   1892  0000					      add	hl,de
hero.asm (1893): error: Unknown Mnemonic 'sla'.
   1893  0000					      sla	a
hero.asm (1894): error: Unknown Mnemonic 'ld'.
   1894  0000					      ld	e,a
hero.asm (1895): error: Unknown Mnemonic 'add'.
   1895  0000					      add	hl,de
hero.asm (1896): error: Unknown Mnemonic 'ld'.
   1896  0000					      ld	e,(hl)
hero.asm (1897): error: Unknown Mnemonic 'inc'.
   1897  0000					      inc	hl
hero.asm (1898): error: Unknown Mnemonic 'ld'.
   1898  0000					      ld	d,(hl)
hero.asm (1899): error: Unknown Mnemonic 'ex'.
   1899  0000					      ex	de,hl
hero.asm (1900): error: Unknown Mnemonic 'ld'.
   1900  0000					      ld	d,(hl)
hero.asm (1901): error: Unknown Mnemonic 'inc'.
   1901  0000					      inc	hl
hero.asm (1902): error: Unknown Mnemonic 'ld'.
   1902  0000					      ld	e,(hl)
   1903  0000
hero.asm (1904): error: Unknown Mnemonic 'inc'.
   1904  0000					      inc	c
hero.asm (1905): error: Unknown Mnemonic 'xor'.
   1905  0000					      xor	a
hero.asm (1906): error: Unknown Mnemonic 'push'.
   1906  0000					      push	bc
hero.asm (1907): error: Unknown Mnemonic 'push'.
   1907  0000					      push	de
hero.asm (1908): error: Unknown Mnemonic 'call'.
   1908  0000					      call	fillblock
hero.asm (1909): error: Unknown Mnemonic 'pop'.
   1909  0000					      pop	de
hero.asm (1910): error: Unknown Mnemonic 'pop'.
   1910  0000					      pop	bc
   1911  0000
hero.asm (1912): error: Unknown Mnemonic 'dec'.
   1912  0000					      dec	c
hero.asm (1913): error: Unknown Mnemonic 'ld'.
   1913  0000					      ld	hl,pts50
hero.asm (1914): error: Unknown Mnemonic 'call'.
   1914  0000					      call	placepoints
   1915  0000
hero.asm (1916): error: Unknown Mnemonic 'ld'.
   1916  0000					      ld	c,&50
hero.asm (1917): error: Unknown Mnemonic 'call'.
   1917  0000					      call	addpoints
hero.asm (1918): error: Unknown Mnemonic 'ld'.
   1918  0000					      ld	a,1
hero.asm (1919): error: Unknown Mnemonic 'ld'.
   1919  0000					      ld	(updtscre),a
hero.asm (1920): error: Unknown Mnemonic 'jr'.
   1920  0000					      jr	itclltfn
hero.asm (1921): error: Unknown Mnemonic 'ld'.
   1921  0000				   itclltnr   ld	de,11
hero.asm (1922): error: Unknown Mnemonic 'add'.
   1922  0000					      add	hl,de
hero.asm (1923): error: Unknown Mnemonic 'jr'.
   1923  0000					      jr	itclltnx
   1924  0000
hero.asm (1925): error: Unknown Mnemonic 'ld'.
   1925  0000				   itclltsk   ld	de,itemrecsize
hero.asm (1926): error: Unknown Mnemonic 'add'.
   1926  0000					      add	hl,de
   1927  0000
hero.asm (1928): error: Unknown Mnemonic 'pop'.
   1928  0000				   itclltnx   pop	bc
hero.asm (1929): error: Unknown Mnemonic 'djnz'.
   1929  0000					      djnz	itclltlj
hero.asm (1930): error: Unknown Mnemonic 'jr'.
   1930  0000					      jr	itclltx2
hero.asm (1931): error: Unknown Mnemonic 'jp'.
   1931  0000				   itclltlj   jp	itclltlp
   1932  0000
hero.asm (1933): error: Unknown Mnemonic 'pop'.
   1933  0000				   itclltfn   pop	bc
hero.asm (1934): error: Unknown Mnemonic 'pop'.
   1934  0000					      pop	de
hero.asm (1935): error: Unknown Mnemonic 'pop'.
   1935  0000					      pop	bc
hero.asm (1936): error: Unknown Mnemonic 'jr'.
   1936  0000					      jr	walcollt
hero.asm (1937): error: Unknown Mnemonic 'pop'.
   1937  0000				   itclltx2   pop	de
hero.asm (1938): error: Unknown Mnemonic 'pop'.
   1938  0000					      pop	bc
   1939  0000							;end test enemies
   1940  0000
hero.asm (1941): error: Unknown Mnemonic 'dec'.
   1941  0000					      dec	c	;do not increment, wall are twice thick
hero.asm (1942): error: Unknown Mnemonic 'bit'.
   1942  0000					      bit	0,c
hero.asm (1943): error: Unknown Mnemonic 'jr'.
   1943  0000					      jr	nz,dfloplt2
hero.asm (1944): error: Unknown Mnemonic 'dec'.
   1944  0000					      dec	de
hero.asm (1945): error: Unknown Mnemonic 'ld'.
   1945  0000				   dfloplt2   ld	a,(de)
hero.asm (1946): error: Unknown Mnemonic 'bit'.
   1946  0000					      bit	6,a
hero.asm (1947): error: Unknown Mnemonic 'jr'.
   1947  0000					      jr	z,dflopltj
hero.asm (1948): error: Unknown Mnemonic 'xor'.
   1948  0000					      xor	a
hero.asm (1949): error: Unknown Mnemonic 'djnz'.
   1949  0000				   dflopltj   djnz	dfloplt3
hero.asm (1950): error: Unknown Mnemonic 'jr'.
   1950  0000					      jr	walcollt
hero.asm (1951): error: Unknown Mnemonic 'jp'.
   1951  0000				   dfloplt3   jp	dflooplt
   1952  0000
   1953  0000							;laser length is set, so draw it
hero.asm (1954): error: Unknown Mnemonic 'ld'.
   1954  0000				   walcollt   ld	a,laslength	;a is laser length
hero.asm (1955): error: Unknown Mnemonic 'sub'.
   1955  0000					      sub	b
hero.asm (1956): error: Unknown Mnemonic 'jr'.
   1956  0000					      jr	z,lasln0
hero.asm (1957): error: Unknown Mnemonic 'ld'.
   1957  0000					      ld	(oldlasln),a
hero.asm (1958): error: Unknown Mnemonic 'ld'.
   1958  0000					      ld	d,a
hero.asm (1959): error: Unknown Mnemonic 'ld'.
   1959  0000					      ld	e,1
hero.asm (1960): error: Unknown Mnemonic 'pop'.
   1960  0000					      pop	bc
hero.asm (1961): error: Unknown Mnemonic 'ld'.
   1961  0000					      ld	a,b
hero.asm (1962): error: Unknown Mnemonic 'sub'.
   1962  0000					      sub	d
hero.asm (1963): error: Unknown Mnemonic 'ld'.
   1963  0000					      ld	b,a
hero.asm (1964): error: Unknown Mnemonic 'ld'.
   1964  0000					      ld	a,(lasbeam)
hero.asm (1965): error: Unknown Mnemonic 'xor'.
   1965  0000					      xor	&ff
hero.asm (1966): error: Unknown Mnemonic 'ld'.
   1966  0000					      ld	(lasbeam),a
hero.asm (1967): error: Unknown Mnemonic 'or'.
   1967  0000					      or	a
hero.asm (1968): error: Unknown Mnemonic 'jr'.
   1968  0000					      jr	z,beam2lt
hero.asm (1969): error: Unknown Mnemonic 'ld'.
   1969  0000					      ld	hl,laserb1
hero.asm (1970): error: Unknown Mnemonic 'call'.
   1970  0000					      call	drawsprite
hero.asm (1971): error: Unknown Mnemonic 'ret'.
   1971  0000					      ret
hero.asm (1972): error: Unknown Mnemonic 'ld'.
   1972  0000				   beam2lt    ld	hl,laserb2
hero.asm (1973): error: Unknown Mnemonic 'call'.
   1973  0000					      call	drawsprite
hero.asm (1974): error: Unknown Mnemonic 'ret'.
   1974  0000					      ret
   1975  0000
   1976  0000							;laser len is zero
hero.asm (1977): error: Unknown Mnemonic 'pop'.
   1977  0000				   lasln0     pop	bc
hero.asm (1978): error: Unknown Mnemonic 'ld'.
   1978  0000					      ld	(oldlasln),a
hero.asm (1979): error: Unknown Mnemonic 'ret'.
   1979  0000					      ret
   1980  0000
   1981  0000							;
   1982  0000							;
   1983  0000							;
   1984  0000							;decrease wall strength right, and delete if necessary
hero.asm (1985): error: Unknown Mnemonic 'push'.
   1985  0000				   decwalrt   push	af
hero.asm (1986): error: Unknown Mnemonic 'push'.
   1986  0000					      push	bc
hero.asm (1987): error: Unknown Mnemonic 'ld'.
   1987  0000					      ld	hl,(clvptrb1)
hero.asm (1988): error: Unknown Mnemonic 'ld'.
   1988  0000					      ld	d,0
hero.asm (1989): error: Unknown Mnemonic 'ld'.
   1989  0000					      ld	e,c
hero.asm (1990): error: Unknown Mnemonic 'srl'.
   1990  0000					      srl	e	;div 2
hero.asm (1991): error: Unknown Mnemonic 'add'.
   1991  0000					      add	hl,de
   1992  0000
hero.asm (1993): error: Unknown Mnemonic 'dec'.
   1993  0000					      dec	hl
hero.asm (1994): error: Unknown Mnemonic 'ld'.
   1994  0000					      ld	a,(hl)
hero.asm (1995): error: Unknown Mnemonic 'or'.
   1995  0000					      or	a
hero.asm (1996): error: Unknown Mnemonic 'jr'.
   1996  0000					      jr	nz,decwlrt2
hero.asm (1997): error: Unknown Mnemonic 'inc'.
   1997  0000					      inc	hl
hero.asm (1998): error: Unknown Mnemonic 'inc'.
   1998  0000					      inc	hl	;wall width 2 blocks
hero.asm (1999): error: Unknown Mnemonic 'inc'.
   1999  0000					      inc	hl
hero.asm (2000): error: Unknown Mnemonic 'ld'.
   2000  0000					      ld	a,(hl)	;test if wall can be shot
hero.asm (2001): error: Unknown Mnemonic 'or'.
   2001  0000					      or	a
hero.asm (2002): error: Unknown Mnemonic 'jr'.
   2002  0000					      jr	nz,decwlrt2
hero.asm (2003): error: Unknown Mnemonic 'dec'.
   2003  0000					      dec	hl	;ok, decrement wall strength	   
hero.asm (2004): error: Unknown Mnemonic 'dec'.
   2004  0000					      dec	hl
hero.asm (2005): error: Unknown Mnemonic 'ld'.
   2005  0000					      ld	a,(hl)
hero.asm (2006): error: Unknown Mnemonic 'or'.
   2006  0000					      or	a
hero.asm (2007): error: Unknown Mnemonic 'jr'.
   2007  0000					      jr	z,decwlrt2
hero.asm (2008): error: Unknown Mnemonic 'dec'.
   2008  0000					      dec	(hl)
   2009  0000
hero.asm (2010): error: Unknown Mnemonic 'ld'.
   2010  0000					      ld	a,(hl)	;delete wall?
hero.asm (2011): error: Unknown Mnemonic 'and'.
   2011  0000					      and	%00111111
hero.asm (2012): error: Unknown Mnemonic 'or'.
   2012  0000					      or	a
hero.asm (2013): error: Unknown Mnemonic 'jr'.
   2013  0000					      jr	nz,decwlrt2
hero.asm (2014): error: Unknown Mnemonic 'push'.
   2014  0000					      push	bc
hero.asm (2015): error: Unknown Mnemonic 'ld'.
   2015  0000					      ld	b,c
hero.asm (2016): error: Unknown Mnemonic 'ld'.
   2016  0000					      ld	c,15+topoffset
hero.asm (2017): error: Unknown Mnemonic 'ld'.
   2017  0000					      ld	de,&2602
hero.asm (2018): error: Unknown Mnemonic 'xor'.
   2018  0000					      xor	a
hero.asm (2019): error: Unknown Mnemonic 'ld'.
   2019  0000					      ld	(hl),a
hero.asm (2020): error: Unknown Mnemonic 'call'.
   2020  0000					      call	fillblock
hero.asm (2021): error: Unknown Mnemonic 'ld'.
   2021  0000					      ld	a,1
hero.asm (2022): error: Unknown Mnemonic 'ld'.
   2022  0000					      ld	(dntvsync),a
hero.asm (2023): error: Unknown Mnemonic 'pop'.
   2023  0000					      pop	bc
   2024  0000
hero.asm (2025): error: Unknown Mnemonic 'ld'.
   2025  0000				   decwlrt2   ld	hl,(clvptrb2)
hero.asm (2026): error: Unknown Mnemonic 'ld'.
   2026  0000					      ld	d,0
hero.asm (2027): error: Unknown Mnemonic 'ld'.
   2027  0000					      ld	e,c
hero.asm (2028): error: Unknown Mnemonic 'srl'.
   2028  0000					      srl	e	;div 2
hero.asm (2029): error: Unknown Mnemonic 'add'.
   2029  0000					      add	hl,de
   2030  0000
hero.asm (2031): error: Unknown Mnemonic 'dec'.
   2031  0000					      dec	hl
hero.asm (2032): error: Unknown Mnemonic 'ld'.
   2032  0000					      ld	a,(hl)
hero.asm (2033): error: Unknown Mnemonic 'or'.
   2033  0000					      or	a
hero.asm (2034): error: Unknown Mnemonic 'jr'.
   2034  0000					      jr	nz,decwlrt3
hero.asm (2035): error: Unknown Mnemonic 'inc'.
   2035  0000					      inc	hl
hero.asm (2036): error: Unknown Mnemonic 'inc'.
   2036  0000					      inc	hl	;wall width 2 blocks
hero.asm (2037): error: Unknown Mnemonic 'inc'.
   2037  0000					      inc	hl
hero.asm (2038): error: Unknown Mnemonic 'ld'.
   2038  0000					      ld	a,(hl)	;test if wall can be shot
hero.asm (2039): error: Unknown Mnemonic 'or'.
   2039  0000					      or	a
hero.asm (2040): error: Unknown Mnemonic 'jr'.
   2040  0000					      jr	nz,decwlrt3
hero.asm (2041): error: Unknown Mnemonic 'dec'.
   2041  0000					      dec	hl	;ok, decrement wall strength	   
hero.asm (2042): error: Unknown Mnemonic 'dec'.
   2042  0000					      dec	hl
hero.asm (2043): error: Unknown Mnemonic 'ld'.
   2043  0000					      ld	a,(hl)
hero.asm (2044): error: Unknown Mnemonic 'or'.
   2044  0000					      or	a
hero.asm (2045): error: Unknown Mnemonic 'jr'.
   2045  0000					      jr	z,decwlrt3
hero.asm (2046): error: Unknown Mnemonic 'dec'.
   2046  0000					      dec	(hl)
   2047  0000
hero.asm (2048): error: Unknown Mnemonic 'ld'.
   2048  0000					      ld	a,(hl)	;delete wall?
hero.asm (2049): error: Unknown Mnemonic 'and'.
   2049  0000					      and	%00111111
hero.asm (2050): error: Unknown Mnemonic 'or'.
   2050  0000					      or	a
hero.asm (2051): error: Unknown Mnemonic 'jr'.
   2051  0000					      jr	nz,decwlrt3
hero.asm (2052): error: Unknown Mnemonic 'push'.
   2052  0000					      push	bc
hero.asm (2053): error: Unknown Mnemonic 'ld'.
   2053  0000					      ld	b,c
hero.asm (2054): error: Unknown Mnemonic 'ld'.
   2054  0000					      ld	c,15+topoffset+39
hero.asm (2055): error: Unknown Mnemonic 'ld'.
   2055  0000					      ld	de,&2602
hero.asm (2056): error: Unknown Mnemonic 'xor'.
   2056  0000					      xor	a
hero.asm (2057): error: Unknown Mnemonic 'ld'.
   2057  0000					      ld	(hl),a
hero.asm (2058): error: Unknown Mnemonic 'call'.
   2058  0000					      call	fillblock
hero.asm (2059): error: Unknown Mnemonic 'ld'.
   2059  0000					      ld	a,1
hero.asm (2060): error: Unknown Mnemonic 'ld'.
   2060  0000					      ld	(dntvsync),a
hero.asm (2061): error: Unknown Mnemonic 'pop'.
   2061  0000					      pop	bc
   2062  0000
hero.asm (2063): error: Unknown Mnemonic 'ld'.
   2063  0000				   decwlrt3   ld	hl,(clvptrb3)
hero.asm (2064): error: Unknown Mnemonic 'ld'.
   2064  0000					      ld	d,0
hero.asm (2065): error: Unknown Mnemonic 'ld'.
   2065  0000					      ld	e,c
hero.asm (2066): error: Unknown Mnemonic 'srl'.
   2066  0000					      srl	e	;div 2
hero.asm (2067): error: Unknown Mnemonic 'add'.
   2067  0000					      add	hl,de
   2068  0000
hero.asm (2069): error: Unknown Mnemonic 'dec'.
   2069  0000					      dec	hl
hero.asm (2070): error: Unknown Mnemonic 'ld'.
   2070  0000					      ld	a,(hl)
hero.asm (2071): error: Unknown Mnemonic 'or'.
   2071  0000					      or	a
hero.asm (2072): error: Unknown Mnemonic 'jr'.
   2072  0000					      jr	nz,decwlrt4
hero.asm (2073): error: Unknown Mnemonic 'inc'.
   2073  0000					      inc	hl
hero.asm (2074): error: Unknown Mnemonic 'inc'.
   2074  0000					      inc	hl	;wall width 2 blocks
hero.asm (2075): error: Unknown Mnemonic 'inc'.
   2075  0000					      inc	hl
hero.asm (2076): error: Unknown Mnemonic 'ld'.
   2076  0000					      ld	a,(hl)	;test if wall can be shot
hero.asm (2077): error: Unknown Mnemonic 'or'.
   2077  0000					      or	a
hero.asm (2078): error: Unknown Mnemonic 'jr'.
   2078  0000					      jr	nz,decwlrt4
hero.asm (2079): error: Unknown Mnemonic 'dec'.
   2079  0000					      dec	hl	;ok, decrement wall strength	   
hero.asm (2080): error: Unknown Mnemonic 'dec'.
   2080  0000					      dec	hl
hero.asm (2081): error: Unknown Mnemonic 'ld'.
   2081  0000					      ld	a,(hl)
hero.asm (2082): error: Unknown Mnemonic 'or'.
   2082  0000					      or	a
hero.asm (2083): error: Unknown Mnemonic 'jr'.
   2083  0000					      jr	z,decwlrt4
hero.asm (2084): error: Unknown Mnemonic 'dec'.
   2084  0000					      dec	(hl)
   2085  0000
hero.asm (2086): error: Unknown Mnemonic 'ld'.
   2086  0000					      ld	a,(hl)	;delete wall?
hero.asm (2087): error: Unknown Mnemonic 'and'.
   2087  0000					      and	%00111111
hero.asm (2088): error: Unknown Mnemonic 'or'.
   2088  0000					      or	a
hero.asm (2089): error: Unknown Mnemonic 'jr'.
   2089  0000					      jr	nz,decwlrt4
hero.asm (2090): error: Unknown Mnemonic 'push'.
   2090  0000					      push	bc
hero.asm (2091): error: Unknown Mnemonic 'ld'.
   2091  0000					      ld	b,c
hero.asm (2092): error: Unknown Mnemonic 'ld'.
   2092  0000					      ld	c,15+topoffset+39+39
hero.asm (2093): error: Unknown Mnemonic 'ld'.
   2093  0000					      ld	de,&2602
hero.asm (2094): error: Unknown Mnemonic 'xor'.
   2094  0000					      xor	a
hero.asm (2095): error: Unknown Mnemonic 'ld'.
   2095  0000					      ld	(hl),a
hero.asm (2096): error: Unknown Mnemonic 'call'.
   2096  0000					      call	fillblock
hero.asm (2097): error: Unknown Mnemonic 'ld'.
   2097  0000					      ld	a,1
hero.asm (2098): error: Unknown Mnemonic 'ld'.
   2098  0000					      ld	(dntvsync),a
hero.asm (2099): error: Unknown Mnemonic 'pop'.
   2099  0000					      pop	bc
   2100  0000
hero.asm (2101): error: Unknown Mnemonic 'pop'.
   2101  0000				   decwlrt4   pop	bc
hero.asm (2102): error: Unknown Mnemonic 'pop'.
   2102  0000					      pop	af
hero.asm (2103): error: Unknown Mnemonic 'ret'.
   2103  0000					      ret
   2104  0000
   2105  0000							;
   2106  0000							;
   2107  0000							;
   2108  0000							;decrease wall strength left, and delete if necessary
hero.asm (2109): error: Unknown Mnemonic 'push'.
   2109  0000				   decwallt   push	af
hero.asm (2110): error: Unknown Mnemonic 'push'.
   2110  0000					      push	bc
hero.asm (2111): error: Unknown Mnemonic 'ld'.
   2111  0000					      ld	hl,(clvptrb1)
hero.asm (2112): error: Unknown Mnemonic 'ld'.
   2112  0000					      ld	d,0
hero.asm (2113): error: Unknown Mnemonic 'ld'.
   2113  0000					      ld	e,c
hero.asm (2114): error: Unknown Mnemonic 'srl'.
   2114  0000					      srl	e	;div 2
hero.asm (2115): error: Unknown Mnemonic 'add'.
   2115  0000					      add	hl,de
   2116  0000
hero.asm (2117): error: Unknown Mnemonic 'ld'.
   2117  0000					      ld	a,(hl)
hero.asm (2118): error: Unknown Mnemonic 'or'.
   2118  0000					      or	a
hero.asm (2119): error: Unknown Mnemonic 'jr'.
   2119  0000					      jr	nz,decwllt2
hero.asm (2120): error: Unknown Mnemonic 'dec'.
   2120  0000					      dec	hl
hero.asm (2121): error: Unknown Mnemonic 'dec'.
   2121  0000					      dec	hl	;wall width 2 blocks
hero.asm (2122): error: Unknown Mnemonic 'dec'.
   2122  0000					      dec	hl
hero.asm (2123): error: Unknown Mnemonic 'ld'.
   2123  0000					      ld	a,(hl)	;test if wall can be shot
hero.asm (2124): error: Unknown Mnemonic 'or'.
   2124  0000					      or	a
hero.asm (2125): error: Unknown Mnemonic 'jr'.
   2125  0000					      jr	nz,decwllt2
hero.asm (2126): error: Unknown Mnemonic 'inc'.
   2126  0000					      inc	hl	;ok, decrement wall strength	   
hero.asm (2127): error: Unknown Mnemonic 'inc'.
   2127  0000					      inc	hl
hero.asm (2128): error: Unknown Mnemonic 'ld'.
   2128  0000					      ld	a,(hl)
hero.asm (2129): error: Unknown Mnemonic 'or'.
   2129  0000					      or	a
hero.asm (2130): error: Unknown Mnemonic 'jr'.
   2130  0000					      jr	z,decwllt2
hero.asm (2131): error: Unknown Mnemonic 'dec'.
   2131  0000					      dec	(hl)
   2132  0000
hero.asm (2133): error: Unknown Mnemonic 'ld'.
   2133  0000					      ld	a,(hl)	;delete wall?
hero.asm (2134): error: Unknown Mnemonic 'and'.
   2134  0000					      and	%00111111
hero.asm (2135): error: Unknown Mnemonic 'or'.
   2135  0000					      or	a
hero.asm (2136): error: Unknown Mnemonic 'jr'.
   2136  0000					      jr	nz,decwllt2
hero.asm (2137): error: Unknown Mnemonic 'push'.
   2137  0000					      push	bc
hero.asm (2138): error: Unknown Mnemonic 'ld'.
   2138  0000					      ld	b,c
hero.asm (2139): error: Unknown Mnemonic 'dec'.
   2139  0000					      dec	b
hero.asm (2140): error: Unknown Mnemonic 'dec'.
   2140  0000					      dec	b
hero.asm (2141): error: Unknown Mnemonic 'ld'.
   2141  0000					      ld	c,15+topoffset
hero.asm (2142): error: Unknown Mnemonic 'ld'.
   2142  0000					      ld	de,&2602
hero.asm (2143): error: Unknown Mnemonic 'xor'.
   2143  0000					      xor	a
hero.asm (2144): error: Unknown Mnemonic 'ld'.
   2144  0000					      ld	(hl),a
hero.asm (2145): error: Unknown Mnemonic 'call'.
   2145  0000					      call	fillblock
hero.asm (2146): error: Unknown Mnemonic 'ld'.
   2146  0000					      ld	a,1
hero.asm (2147): error: Unknown Mnemonic 'ld'.
   2147  0000					      ld	(dntvsync),a
hero.asm (2148): error: Unknown Mnemonic 'pop'.
   2148  0000					      pop	bc
   2149  0000
hero.asm (2150): error: Unknown Mnemonic 'ld'.
   2150  0000				   decwllt2   ld	hl,(clvptrb2)
hero.asm (2151): error: Unknown Mnemonic 'ld'.
   2151  0000					      ld	d,0
hero.asm (2152): error: Unknown Mnemonic 'ld'.
   2152  0000					      ld	e,c
hero.asm (2153): error: Unknown Mnemonic 'srl'.
   2153  0000					      srl	e	;div 2
hero.asm (2154): error: Unknown Mnemonic 'add'.
   2154  0000					      add	hl,de
   2155  0000
hero.asm (2156): error: Unknown Mnemonic 'ld'.
   2156  0000					      ld	a,(hl)
hero.asm (2157): error: Unknown Mnemonic 'or'.
   2157  0000					      or	a
hero.asm (2158): error: Unknown Mnemonic 'jr'.
   2158  0000					      jr	nz,decwllt3
hero.asm (2159): error: Unknown Mnemonic 'dec'.
   2159  0000					      dec	hl
hero.asm (2160): error: Unknown Mnemonic 'dec'.
   2160  0000					      dec	hl	;wall width 2 blocks
hero.asm (2161): error: Unknown Mnemonic 'dec'.
   2161  0000					      dec	hl
hero.asm (2162): error: Unknown Mnemonic 'ld'.
   2162  0000					      ld	a,(hl)	;test if wall can be shot
hero.asm (2163): error: Unknown Mnemonic 'or'.
   2163  0000					      or	a
hero.asm (2164): error: Unknown Mnemonic 'jr'.
   2164  0000					      jr	nz,decwllt3
hero.asm (2165): error: Unknown Mnemonic 'inc'.
   2165  0000					      inc	hl	;ok, decrement wall strength	   
hero.asm (2166): error: Unknown Mnemonic 'inc'.
   2166  0000					      inc	hl
hero.asm (2167): error: Unknown Mnemonic 'ld'.
   2167  0000					      ld	a,(hl)
hero.asm (2168): error: Unknown Mnemonic 'or'.
   2168  0000					      or	a
hero.asm (2169): error: Unknown Mnemonic 'jr'.
   2169  0000					      jr	z,decwllt3
hero.asm (2170): error: Unknown Mnemonic 'dec'.
   2170  0000					      dec	(hl)
   2171  0000
hero.asm (2172): error: Unknown Mnemonic 'ld'.
   2172  0000					      ld	a,(hl)	;delete wall?
hero.asm (2173): error: Unknown Mnemonic 'and'.
   2173  0000					      and	%00111111
hero.asm (2174): error: Unknown Mnemonic 'or'.
   2174  0000					      or	a
hero.asm (2175): error: Unknown Mnemonic 'jr'.
   2175  0000					      jr	nz,decwllt3
hero.asm (2176): error: Unknown Mnemonic 'push'.
   2176  0000					      push	bc
hero.asm (2177): error: Unknown Mnemonic 'ld'.
   2177  0000					      ld	b,c
hero.asm (2178): error: Unknown Mnemonic 'dec'.
   2178  0000					      dec	b
hero.asm (2179): error: Unknown Mnemonic 'dec'.
   2179  0000					      dec	b
hero.asm (2180): error: Unknown Mnemonic 'ld'.
   2180  0000					      ld	c,15+topoffset+39
hero.asm (2181): error: Unknown Mnemonic 'ld'.
   2181  0000					      ld	de,&2602
hero.asm (2182): error: Unknown Mnemonic 'xor'.
   2182  0000					      xor	a
hero.asm (2183): error: Unknown Mnemonic 'ld'.
   2183  0000					      ld	(hl),a
hero.asm (2184): error: Unknown Mnemonic 'call'.
   2184  0000					      call	fillblock
hero.asm (2185): error: Unknown Mnemonic 'ld'.
   2185  0000					      ld	a,1
hero.asm (2186): error: Unknown Mnemonic 'ld'.
   2186  0000					      ld	(dntvsync),a
hero.asm (2187): error: Unknown Mnemonic 'pop'.
   2187  0000					      pop	bc
   2188  0000
hero.asm (2189): error: Unknown Mnemonic 'ld'.
   2189  0000				   decwllt3   ld	hl,(clvptrb3)
hero.asm (2190): error: Unknown Mnemonic 'ld'.
   2190  0000					      ld	d,0
hero.asm (2191): error: Unknown Mnemonic 'ld'.
   2191  0000					      ld	e,c
hero.asm (2192): error: Unknown Mnemonic 'srl'.
   2192  0000					      srl	e	;div 2
hero.asm (2193): error: Unknown Mnemonic 'add'.
   2193  0000					      add	hl,de
   2194  0000
hero.asm (2195): error: Unknown Mnemonic 'ld'.
   2195  0000					      ld	a,(hl)
hero.asm (2196): error: Unknown Mnemonic 'or'.
   2196  0000					      or	a
hero.asm (2197): error: Unknown Mnemonic 'jr'.
   2197  0000					      jr	nz,decwllt4
hero.asm (2198): error: Unknown Mnemonic 'dec'.
   2198  0000					      dec	hl
hero.asm (2199): error: Unknown Mnemonic 'dec'.
   2199  0000					      dec	hl	;wall width 2 blocks
hero.asm (2200): error: Unknown Mnemonic 'dec'.
   2200  0000					      dec	hl
hero.asm (2201): error: Unknown Mnemonic 'ld'.
   2201  0000					      ld	a,(hl)	;test if wall can be shot
hero.asm (2202): error: Unknown Mnemonic 'or'.
   2202  0000					      or	a
hero.asm (2203): error: Unknown Mnemonic 'jr'.
   2203  0000					      jr	nz,decwllt4
hero.asm (2204): error: Unknown Mnemonic 'inc'.
   2204  0000					      inc	hl	;ok, decrement wall strength	   
hero.asm (2205): error: Unknown Mnemonic 'inc'.
   2205  0000					      inc	hl
hero.asm (2206): error: Unknown Mnemonic 'ld'.
   2206  0000					      ld	a,(hl)
hero.asm (2207): error: Unknown Mnemonic 'or'.
   2207  0000					      or	a
hero.asm (2208): error: Unknown Mnemonic 'jr'.
   2208  0000					      jr	z,decwllt4
hero.asm (2209): error: Unknown Mnemonic 'dec'.
   2209  0000					      dec	(hl)
   2210  0000
hero.asm (2211): error: Unknown Mnemonic 'ld'.
   2211  0000					      ld	a,(hl)	;delete wall?
hero.asm (2212): error: Unknown Mnemonic 'and'.
   2212  0000					      and	%00111111
hero.asm (2213): error: Unknown Mnemonic 'or'.
   2213  0000					      or	a
hero.asm (2214): error: Unknown Mnemonic 'jr'.
   2214  0000					      jr	nz,decwllt4
hero.asm (2215): error: Unknown Mnemonic 'push'.
   2215  0000					      push	bc
hero.asm (2216): error: Unknown Mnemonic 'ld'.
   2216  0000					      ld	b,c
hero.asm (2217): error: Unknown Mnemonic 'dec'.
   2217  0000					      dec	b
hero.asm (2218): error: Unknown Mnemonic 'dec'.
   2218  0000					      dec	b
hero.asm (2219): error: Unknown Mnemonic 'ld'.
   2219  0000					      ld	c,15+topoffset+39+39
hero.asm (2220): error: Unknown Mnemonic 'ld'.
   2220  0000					      ld	de,&2602
hero.asm (2221): error: Unknown Mnemonic 'xor'.
   2221  0000					      xor	a
hero.asm (2222): error: Unknown Mnemonic 'ld'.
   2222  0000					      ld	(hl),a
hero.asm (2223): error: Unknown Mnemonic 'call'.
   2223  0000					      call	fillblock
hero.asm (2224): error: Unknown Mnemonic 'ld'.
   2224  0000					      ld	a,1
hero.asm (2225): error: Unknown Mnemonic 'ld'.
   2225  0000					      ld	(dntvsync),a
hero.asm (2226): error: Unknown Mnemonic 'pop'.
   2226  0000					      pop	bc
   2227  0000
hero.asm (2228): error: Unknown Mnemonic 'pop'.
   2228  0000				   decwllt4   pop	bc
hero.asm (2229): error: Unknown Mnemonic 'pop'.
   2229  0000					      pop	af
hero.asm (2230): error: Unknown Mnemonic 'ret'.
   2230  0000					      ret
   2231  0000
   2232  0000				   fried_lantern
hero.asm (2233): error: Unknown Mnemonic 'ld'.
   2233  0000					      ld	a,(lantcolp)
hero.asm (2234): error: Unknown Mnemonic 'push'.
   2234  0000					      push	af
hero.asm (2235): error: Unknown Mnemonic 'xor'.
   2235  0000					      xor	a
hero.asm (2236): error: Unknown Mnemonic 'ld'.
   2236  0000					      ld	(lantcolp),a
hero.asm (2237): error: Unknown Mnemonic 'call'.
   2237  0000					      call	lantern_collision
hero.asm (2238): error: Unknown Mnemonic 'pop'.
   2238  0000					      pop	af
hero.asm (2239): error: Unknown Mnemonic 'ld'.
   2239  0000					      ld	(lantcolp),a
hero.asm (2240): error: Unknown Mnemonic 'ret'.
   2240  0000					      ret
   2241  0000
   2242  0000							;laser gfx stuff
   2243  0000		       00 0b	   laslength  equ	11	;double pixels -> 22 pixels
   2244  0000
hero.asm (2245): error: Unknown Mnemonic 'db'.
   2245  0000				   lasbeam    db	0	;laser beam alternator -> beam
hero.asm (2246): error: Unknown Mnemonic 'db'.
   2246  0000				   oldlasln   db	0	;stored laser length to erase old laser beam
hero.asm (2247): error: Unknown Mnemonic 'db'.
   2247  0000				   oldlasx    db	0	;stored laser x to erase old laser beam	 
hero.asm (2248): error: Unknown Mnemonic 'db'.
   2248  0000				   oldlasy    db	0	;stored laser y to erase old laser beam	 
hero.asm (2249): error: Unknown Mnemonic 'db'.
   2249  0000				   oldlasdr   db	0	;old laser direction, z=rt, nz=lt
hero.asm (2250): error: Unknown Mnemonic 'db'.
   2250  0000				   curlaslen  db	0	;current laser length -> enemy test
   2251  0000
   2252  0000							;laser beam sound stuff
   2253  0000		       00 04	   lssndctri  equ	4	;init value
   2254  0000		       00 9b	   lasersndintl equ	155
   2255  0000		       00 9a	   lasersndintr equ	154
   2256  0000
   2257  0000							;lasersndintl equ 163
   2258  0000							;lasersndintr equ 162	    ;130
   2259  0000
hero.asm (2260): error: Unknown Mnemonic 'db'.
   2260  0000				   lssndl     db	lasersndintl
hero.asm (2261): error: Unknown Mnemonic 'db'.
   2261  0000				   lssndr     db	lasersndintr
hero.asm (2262): error: Unknown Mnemonic 'db'.
   2262  0000				   lssndctr   db	lssndctri	;counter
   2263  0000
   2264  0000							;-------------------------------------------------------------------------------
   2265  0000							;ziiing
   2266  0000							;"hero dies"-sound
   2267  0000				   ziiing
hero.asm (2268): error: Unknown Mnemonic 'call'.
   2268  0000				   zngnonse   call	allsoundstop
   2269  0000
hero.asm (2270): error: Unknown Mnemonic 'ld'.
   2270  0000					      ld	c,mixer
hero.asm (2271): error: Unknown Mnemonic 'ld'.
   2271  0000					      ld	a,%00111000	;mixer all tone 
hero.asm (2272): error: Unknown Mnemonic 'call'.
   2272  0000					      call	wrpsg
   2273  0000
hero.asm (2274): error: Unknown Mnemonic 'ld'.
   2274  0000				   zngenv     ld	c,envperiode_hi
hero.asm (2275): error: Unknown Mnemonic 'ld'.
   2275  0000					      ld	a,13*3	;duration = approx. 3s
hero.asm (2276): error: Unknown Mnemonic 'call'.
   2276  0000					      call	wrpsg
   2277  0000
hero.asm (2278): error: Unknown Mnemonic 'ld'.
   2278  0000					      ld	c,fineb
hero.asm (2279): error: Unknown Mnemonic 'ld'.
   2279  0000					      ld	a,%10000000
hero.asm (2280): error: Unknown Mnemonic 'call'.
   2280  0000					      call	wrpsg
   2281  0000
hero.asm (2282): error: Unknown Mnemonic 'ld'.
   2282  0000					      ld	c,channelb
hero.asm (2283): error: Unknown Mnemonic 'ld'.
   2283  0000					      ld	a,soundfull or envelope_on
hero.asm (2284): error: Unknown Mnemonic 'call'.
   2284  0000					      call	wrpsg
hero.asm (2285): error: Unknown Mnemonic 'ld'.
   2285  0000					      ld	c,envelope_shape
hero.asm (2286): error: Unknown Mnemonic 'ld'.
   2286  0000					      ld	a,%0000	;envshape: \_____
hero.asm (2287): error: Unknown Mnemonic 'call'.
   2287  0000					      call	wrpsg
   2288  0000
hero.asm (2289): error: Unknown Mnemonic 'ld'.
   2289  0000					      ld	b,30
hero.asm (2290): error: Unknown Mnemonic 'push'.
   2290  0000				   zngsnd     push	bc
hero.asm (2291): error: Unknown Mnemonic 'call'.
   2291  0000					      call	zngwait
hero.asm (2292): error: Unknown Mnemonic 'ei'.
   2292  0000					      ei
hero.asm (2293): error: Unknown Mnemonic 'halt'.
   2293  0000					      halt
hero.asm (2294): error: Unknown Mnemonic 'halt'.
   2294  0000					      halt
hero.asm (2295): error: Unknown Mnemonic 'di'.
   2295  0000					      di
hero.asm (2296): error: Unknown Mnemonic 'call'.
   2296  0000					      call	zngwait
hero.asm (2297): error: Unknown Mnemonic 'ld'.
   2297  0000					      ld	c,fineb
hero.asm (2298): error: Unknown Mnemonic 'ld'.
   2298  0000					      ld	a,%01000000
hero.asm (2299): error: Unknown Mnemonic 'call'.
   2299  0000					      call	wrpsg
hero.asm (2300): error: Unknown Mnemonic 'ei'.
   2300  0000					      ei
hero.asm (2301): error: Unknown Mnemonic 'halt'.
   2301  0000					      halt
hero.asm (2302): error: Unknown Mnemonic 'halt'.
   2302  0000					      halt
hero.asm (2303): error: Unknown Mnemonic 'di'.
   2303  0000					      di
   2304  0000
hero.asm (2305): error: Unknown Mnemonic 'call'.
   2305  0000					      call	zngwait
hero.asm (2306): error: Unknown Mnemonic 'ei'.
   2306  0000					      ei
hero.asm (2307): error: Unknown Mnemonic 'halt'.
   2307  0000					      halt
hero.asm (2308): error: Unknown Mnemonic 'halt'.
   2308  0000					      halt
hero.asm (2309): error: Unknown Mnemonic 'di'.
   2309  0000					      di
hero.asm (2310): error: Unknown Mnemonic 'call'.
   2310  0000					      call	zngwait
hero.asm (2311): error: Unknown Mnemonic 'ld'.
   2311  0000					      ld	c,fineb
hero.asm (2312): error: Unknown Mnemonic 'ld'.
   2312  0000					      ld	a,%10000000
hero.asm (2313): error: Unknown Mnemonic 'call'.
   2313  0000					      call	wrpsg
hero.asm (2314): error: Unknown Mnemonic 'ei'.
   2314  0000					      ei
hero.asm (2315): error: Unknown Mnemonic 'halt'.
   2315  0000					      halt
hero.asm (2316): error: Unknown Mnemonic 'halt'.
   2316  0000					      halt
hero.asm (2317): error: Unknown Mnemonic 'di'.
   2317  0000					      di
hero.asm (2318): error: Unknown Mnemonic 'pop'.
   2318  0000					      pop	bc
hero.asm (2319): error: Unknown Mnemonic 'djnz'.
   2319  0000					      djnz	zngsnd
   2320  0000
   2321  0000							;restore envelope duration and mixer
hero.asm (2322): error: Unknown Mnemonic 'ld'.
   2322  0000					      ld	c,envperiode_hi
hero.asm (2323): error: Unknown Mnemonic 'ld'.
   2323  0000					      ld	a,13	;duration = approx. 1s
hero.asm (2324): error: Unknown Mnemonic 'call'.
   2324  0000					      call	wrpsg
hero.asm (2325): error: Unknown Mnemonic 'ld'.
   2325  0000					      ld	c,mixer	;mixer a,b noise, c tone
hero.asm (2326): error: Unknown Mnemonic 'ld'.
   2326  0000					      ld	a,mixer_default
hero.asm (2327): error: Unknown Mnemonic 'call'.
   2327  0000					      call	wrpsg
hero.asm (2328): error: Unknown Mnemonic 'ret'.
   2328  0000					      ret
   2329  0000
hero.asm (2330): error: Unknown Mnemonic 'ld'.
   2330  0000				   zngwait    ld	b,&F5
hero.asm (2331): error: Unknown Mnemonic 'in'.
   2331  0000					      in	a,(c)
hero.asm (2332): error: Unknown Mnemonic 'rra'.
   2332  0000					      rra
hero.asm (2333): error: Unknown Mnemonic 'jr'.
   2333  0000					      jr	nc,zngwait
hero.asm (2334): error: Unknown Mnemonic 'call'.
   2334  0000					      call	flashwalls
hero.asm (2335): error: Unknown Mnemonic 'ret'.
   2335  0000					      ret
   2336  0000
   2337  0000							;-------------------------------------------------------------------------------
   2338  0000							;drawenemies
   2339  0000							;
   2340  0000				   drawenemies
hero.asm (2341): error: Unknown Mnemonic 'ld'.
   2341  0000					      ld	a,(drwendly)
hero.asm (2342): error: Unknown Mnemonic 'dec'.
   2342  0000					      dec	a
hero.asm (2343): error: Unknown Mnemonic 'or'.
   2343  0000					      or	a
hero.asm (2344): error: Unknown Mnemonic 'jr'.
   2344  0000					      jr	z,amctrnul
hero.asm (2345): error: Unknown Mnemonic 'ld'.
   2345  0000					      ld	(drwendly),a
hero.asm (2346): error: Unknown Mnemonic 'ld'.
   2346  0000					      ld	a,1
hero.asm (2347): error: Unknown Mnemonic 'jr'.
   2347  0000					      jr	drwnstrt
hero.asm (2348): error: Unknown Mnemonic 'ld'.
   2348  0000				   amctrnul   ld	a,drwendlyinit
hero.asm (2349): error: Unknown Mnemonic 'ld'.
   2349  0000					      ld	(drwendly),a
hero.asm (2350): error: Unknown Mnemonic 'xor'.
   2350  0000					      xor	a
hero.asm (2351): error: Unknown Mnemonic 'ld'.
   2351  0000				   drwnstrt   ld	(anmpatch+1),a
   2352  0000
hero.asm (2353): error: Unknown Mnemonic 'ld'.
   2353  0000					      ld	hl,(clvptrb1)
hero.asm (2354): error: Unknown Mnemonic 'ld'.
   2354  0000					      ld	bc,120+4+1
hero.asm (2355): error: Unknown Mnemonic 'add'.
   2355  0000					      add	hl,bc
hero.asm (2356): error: Unknown Mnemonic 'ld'.
   2356  0000					      ld	b,items
hero.asm (2357): error: Unknown Mnemonic 'push'.
   2357  0000				   drwenms    push	bc
hero.asm (2358): error: Unknown Mnemonic 'ld'.
   2358  0000					      ld	a,(hl)
hero.asm (2359): error: Unknown Mnemonic 'inc'.
   2359  0000					      inc	hl
hero.asm (2360): error: Unknown Mnemonic 'or'.
   2360  0000					      or	a
hero.asm (2361): error: Unknown Mnemonic 'jp'.
   2361  0000					      jp	z,drwenms2
   2362  0000
hero.asm (2363): error: Unknown Mnemonic 'ld'.
   2363  0000					      ld	b,a
hero.asm (2364): error: Unknown Mnemonic 'and'.
   2364  0000					      and	item_mask_drlev
hero.asm (2365): error: Unknown Mnemonic 'or'.
   2365  0000					      or	a
hero.asm (2366): error: Unknown Mnemonic 'jp'.
   2366  0000					      jp	nz,drwenms2
   2367  0000
hero.asm (2368): error: Unknown Mnemonic 'ld'.
   2368  0000					      ld	a,b
hero.asm (2369): error: Unknown Mnemonic 'and'.
   2369  0000					      and	enemy_mask_out
hero.asm (2370): error: Unknown Mnemonic 'cp'.
   2370  0000					      cp	item_tentacle	;tentacle moving patch 		 
hero.asm (2371): error: Unknown Mnemonic 'jr'.
   2371  0000					      jr	nz,notentcl
hero.asm (2372): error: Unknown Mnemonic 'ld'.
   2372  0000					      ld	a,1
hero.asm (2373): error: Unknown Mnemonic 'jr'.
   2373  0000					      jr	dotentcl
hero.asm (2374): error: Unknown Mnemonic 'xor'.
   2374  0000				   notentcl   xor	a
hero.asm (2375): error: Unknown Mnemonic 'ld'.
   2375  0000				   dotentcl   ld	(tntlptch+1),a
hero.asm (2376): error: Unknown Mnemonic 'ld'.
   2376  0000					      ld	a,b
hero.asm (2377): error: Unknown Mnemonic 'and'.
   2377  0000					      and	enemy_mask_out
hero.asm (2378): error: Unknown Mnemonic 'cp'.
   2378  0000					      cp	item_raft
hero.asm (2379): error: Unknown Mnemonic 'jr'.
   2379  0000					      jr	nz,noraftmv
hero.asm (2380): error: Unknown Mnemonic 'ld'.
   2380  0000					      ld	a,1
hero.asm (2381): error: Unknown Mnemonic 'jr'.
   2381  0000					      jr	doraftmv
hero.asm (2382): error: Unknown Mnemonic 'xor'.
   2382  0000				   noraftmv   xor	a
hero.asm (2383): error: Unknown Mnemonic 'ld'.
   2383  0000				   doraftmv   ld	(raftmve+1),a
   2384  0000
hero.asm (2385): error: Unknown Mnemonic 'inc'.
   2385  0000					      inc	hl
hero.asm (2386): error: Unknown Mnemonic 'ld'.
   2386  0000					      ld	a,(hl)
hero.asm (2387): error: Unknown Mnemonic 'ld'.
   2387  0000					      ld	(drolda),a
hero.asm (2388): error: Unknown Mnemonic 'dec'.
   2388  0000					      dec	hl
   2389  0000
hero.asm (2390): error: Unknown Mnemonic 'ld'.
   2390  0000				   anmpatch   ld	a,1
hero.asm (2391): error: Unknown Mnemonic 'or'.
   2391  0000					      or	a
hero.asm (2392): error: Unknown Mnemonic 'jr'.
   2392  0000					      jr	z,itemfnd
hero.asm (2393): error: Unknown Mnemonic 'inc'.
   2393  0000					      inc	hl
hero.asm (2394): error: Unknown Mnemonic 'ld'.
   2394  0000					      ld	a,(hl)
hero.asm (2395): error: Unknown Mnemonic 'jr'.
   2395  0000					      jr	drweinc3
   2396  0000
hero.asm (2397): error: Unknown Mnemonic 'ld'.
   2397  0000				   itemfnd    ld	b,(hl)	;counter max
hero.asm (2398): error: Unknown Mnemonic 'inc'.
   2398  0000					      inc	hl
hero.asm (2399): error: Unknown Mnemonic 'ld'.
   2399  0000					      ld	a,(hl)
hero.asm (2400): error: Unknown Mnemonic 'cp'.
   2400  0000					      cp	b
hero.asm (2401): error: Unknown Mnemonic 'jr'.
   2401  0000					      jr	z,drweinc1
hero.asm (2402): error: Unknown Mnemonic 'inc'.
   2402  0000					      inc	a
hero.asm (2403): error: Unknown Mnemonic 'jr'.
   2403  0000					      jr	drweinc2
hero.asm (2404): error: Unknown Mnemonic 'xor'.
   2404  0000				   drweinc1   xor	a
hero.asm (2405): error: Unknown Mnemonic 'ld'.
   2405  0000				   drweinc2   ld	(hl),a
hero.asm (2406): error: Unknown Mnemonic 'inc'.
   2406  0000				   drweinc3   inc	hl
hero.asm (2407): error: Unknown Mnemonic 'sla'.
   2407  0000					      sla	a	;a=a*2
hero.asm (2408): error: Unknown Mnemonic 'ld'.
   2408  0000					      ld	(depatch+1),a
   2409  0000
   2410  0000							;fill coord
hero.asm (2411): error: Unknown Mnemonic 'ld'.
   2411  0000				   fillcord   ld	a,1
hero.asm (2412): error: Unknown Mnemonic 'ld'.
   2412  0000					      ld	a,(hl)
hero.asm (2413): error: Unknown Mnemonic 'ld'.
   2413  0000					      ld	b,a
hero.asm (2414): error: Unknown Mnemonic 'ld'.
   2414  0000					      ld	(drwoldb),a
hero.asm (2415): error: Unknown Mnemonic 'inc'.
   2415  0000					      inc	hl
hero.asm (2416): error: Unknown Mnemonic 'ld'.
   2416  0000					      ld	a,(hl)
hero.asm (2417): error: Unknown Mnemonic 'ld'.
   2417  0000					      ld	(drwoldc),a
hero.asm (2418): error: Unknown Mnemonic 'ld'.
   2418  0000					      ld	c,a
   2419  0000
   2420  0000							;tentacle move
hero.asm (2421): error: Unknown Mnemonic 'ld'.
   2421  0000				   tntlptch   ld	a,1
hero.asm (2422): error: Unknown Mnemonic 'or'.
   2422  0000					      or	a	;z=no tentacle
hero.asm (2423): error: Unknown Mnemonic 'jr'.
   2423  0000					      jr	z,raftmve
hero.asm (2424): error: Unknown Mnemonic 'ld'.
   2424  0000					      ld	a,(tentldly)
hero.asm (2425): error: Unknown Mnemonic 'or'.
   2425  0000					      or	a
hero.asm (2426): error: Unknown Mnemonic 'jr'.
   2426  0000					      jr	z,tntlmov
hero.asm (2427): error: Unknown Mnemonic 'dec'.
   2427  0000					      dec	a
hero.asm (2428): error: Unknown Mnemonic 'ld'.
   2428  0000					      ld	(tentldly),a
hero.asm (2429): error: Unknown Mnemonic 'jp'.
   2429  0000					      jp	xmv
   2430  0000
hero.asm (2431): error: Unknown Mnemonic 'ld'.
   2431  0000				   tntlmov    ld	a,drwtentldlyinit
hero.asm (2432): error: Unknown Mnemonic 'ld'.
   2432  0000					      ld	(tentldly),a
hero.asm (2433): error: Unknown Mnemonic 'push'.
   2433  0000					      push	hl
hero.asm (2434): error: Unknown Mnemonic 'dec'.
   2434  0000					      dec	hl
hero.asm (2435): error: Unknown Mnemonic 'ld'.
   2435  0000					      ld	a,(newherox)
hero.asm (2436): error: Unknown Mnemonic 'ld'.
   2436  0000					      ld	b,(hl)
hero.asm (2437): error: Unknown Mnemonic 'inc'.
   2437  0000					      inc	hl
hero.asm (2438): error: Unknown Mnemonic 'ld'.
   2438  0000					      ld	c,(hl)
hero.asm (2439): error: Unknown Mnemonic 'dec'.
   2439  0000					      dec	hl
hero.asm (2440): error: Unknown Mnemonic 'cp'.
   2440  0000					      cp	b
hero.asm (2441): error: Unknown Mnemonic 'jr'.
   2441  0000					      jr	z,outtentl
hero.asm (2442): error: Unknown Mnemonic 'jr'.
   2442  0000					      jr	c,dectent	;herox<tentaclex
   2443  0000
hero.asm (2444): error: Unknown Mnemonic 'ld'.
   2444  0000					      ld	a,b
hero.asm (2445): error: Unknown Mnemonic 'ld'.
   2445  0000					      ld	(svtentlb),a
hero.asm (2446): error: Unknown Mnemonic 'inc'.
   2446  0000					      inc	b
hero.asm (2447): error: Unknown Mnemonic 'push'.
   2447  0000					      push	bc
hero.asm (2448): error: Unknown Mnemonic 'inc'.
   2448  0000					      inc	b
hero.asm (2449): error: Unknown Mnemonic 'inc'.
   2449  0000					      inc	b
hero.asm (2450): error: Unknown Mnemonic 'inc'.
   2450  0000					      inc	b
hero.asm (2451): error: Unknown Mnemonic 'call'.
   2451  0000					      call	getstage
hero.asm (2452): error: Unknown Mnemonic 'pop'.
   2452  0000					      pop	bc
hero.asm (2453): error: Unknown Mnemonic 'or'.
   2453  0000					      or	a
hero.asm (2454): error: Unknown Mnemonic 'jr'.
   2454  0000					      jr	z,wrtentlx
hero.asm (2455): error: Unknown Mnemonic 'ld'.
   2455  0000					      ld	a,(svtentlb)
hero.asm (2456): error: Unknown Mnemonic 'ld'.
   2456  0000					      ld	b,a
hero.asm (2457): error: Unknown Mnemonic 'jr'.
   2457  0000					      jr	outtentl
   2458  0000
hero.asm (2459): error: Unknown Mnemonic 'ld'.
   2459  0000				   dectent    ld	a,b
hero.asm (2460): error: Unknown Mnemonic 'ld'.
   2460  0000					      ld	(svtentlb),a
hero.asm (2461): error: Unknown Mnemonic 'dec'.
   2461  0000					      dec	b
hero.asm (2462): error: Unknown Mnemonic 'push'.
   2462  0000					      push	bc
hero.asm (2463): error: Unknown Mnemonic 'call'.
   2463  0000					      call	getstage
hero.asm (2464): error: Unknown Mnemonic 'pop'.
   2464  0000					      pop	bc
hero.asm (2465): error: Unknown Mnemonic 'or'.
   2465  0000					      or	a
hero.asm (2466): error: Unknown Mnemonic 'jr'.
   2466  0000					      jr	z,wrtentlx
hero.asm (2467): error: Unknown Mnemonic 'ld'.
   2467  0000					      ld	a,(svtentlb)
hero.asm (2468): error: Unknown Mnemonic 'ld'.
   2468  0000					      ld	b,a
hero.asm (2469): error: Unknown Mnemonic 'jr'.
   2469  0000					      jr	outtentl
   2470  0000
hero.asm (2471): error: Unknown Mnemonic 'ld'.
   2471  0000				   wrtentlx   ld	(hl),b
   2472  0000
hero.asm (2473): error: Unknown Mnemonic 'pop'.
   2473  0000				   outtentl   pop	hl
   2474  0000
   2475  0000							;raft move
hero.asm (2476): error: Unknown Mnemonic 'ld'.
   2476  0000				   raftmve    ld	a,1
hero.asm (2477): error: Unknown Mnemonic 'or'.
   2477  0000					      or	a
hero.asm (2478): error: Unknown Mnemonic 'jr'.
   2478  0000					      jr	z,xmv
hero.asm (2479): error: Unknown Mnemonic 'ld'.
   2479  0000					      ld	a,(heroonraft)
hero.asm (2480): error: Unknown Mnemonic 'or'.
   2480  0000					      or	a
hero.asm (2481): error: Unknown Mnemonic 'jr'.
   2481  0000					      jr	z,outraft2
hero.asm (2482): error: Unknown Mnemonic 'push'.
   2482  0000					      push	hl
hero.asm (2483): error: Unknown Mnemonic 'inc'.
   2483  0000					      inc	hl
hero.asm (2484): error: Unknown Mnemonic 'ld'.
   2484  0000					      ld	a,(hl)
hero.asm (2485): error: Unknown Mnemonic 'dec'.
   2485  0000					      dec	hl
   2486  0000
hero.asm (2487): error: Unknown Mnemonic 'dec'.
   2487  0000					      dec	hl
hero.asm (2488): error: Unknown Mnemonic 'ld'.
   2488  0000					      ld	b,(hl)
hero.asm (2489): error: Unknown Mnemonic 'inc'.
   2489  0000					      inc	hl
hero.asm (2490): error: Unknown Mnemonic 'ld'.
   2490  0000					      ld	c,(hl)
hero.asm (2491): error: Unknown Mnemonic 'dec'.
   2491  0000					      dec	hl
hero.asm (2492): error: Unknown Mnemonic 'or'.
   2492  0000					      or	a
hero.asm (2493): error: Unknown Mnemonic 'jr'.
   2493  0000					      jr	nz,decraftx
   2494  0000
hero.asm (2495): error: Unknown Mnemonic 'ld'.
   2495  0000					      ld	a,b
hero.asm (2496): error: Unknown Mnemonic 'ld'.
   2496  0000					      ld	(svraftb),a
hero.asm (2497): error: Unknown Mnemonic 'inc'.
   2497  0000					      inc	b
hero.asm (2498): error: Unknown Mnemonic 'push'.
   2498  0000					      push	bc
hero.asm (2499): error: Unknown Mnemonic 'ld'.
   2499  0000					      ld	a,b
hero.asm (2500): error: Unknown Mnemonic 'add'.
   2500  0000					      add	7	;5=raft width + 2 hero
hero.asm (2501): error: Unknown Mnemonic 'ld'.
   2501  0000					      ld	b,a
hero.asm (2502): error: Unknown Mnemonic 'call'.
   2502  0000					      call	getstage
hero.asm (2503): error: Unknown Mnemonic 'pop'.
   2503  0000					      pop	bc
hero.asm (2504): error: Unknown Mnemonic 'or'.
   2504  0000					      or	a
hero.asm (2505): error: Unknown Mnemonic 'jr'.
   2505  0000					      jr	z,wrraftxi
hero.asm (2506): error: Unknown Mnemonic 'ld'.
   2506  0000					      ld	a,(svraftb)
hero.asm (2507): error: Unknown Mnemonic 'ld'.
   2507  0000					      ld	b,a
hero.asm (2508): error: Unknown Mnemonic 'jr'.
   2508  0000					      jr	outraft
   2509  0000
hero.asm (2510): error: Unknown Mnemonic 'ld'.
   2510  0000				   wrraftxi   ld	a,(newherox)
hero.asm (2511): error: Unknown Mnemonic 'inc'.
   2511  0000					      inc	a
hero.asm (2512): error: Unknown Mnemonic 'ld'.
   2512  0000					      ld	(newherox),a
hero.asm (2513): error: Unknown Mnemonic 'ld'.
   2513  0000					      ld	(hl),b
hero.asm (2514): error: Unknown Mnemonic 'jr'.
   2514  0000					      jr	outraft
   2515  0000
hero.asm (2516): error: Unknown Mnemonic 'ld'.
   2516  0000				   decraftx   ld	a,b
hero.asm (2517): error: Unknown Mnemonic 'ld'.
   2517  0000					      ld	(svraftb),a
hero.asm (2518): error: Unknown Mnemonic 'dec'.
   2518  0000					      dec	b
hero.asm (2519): error: Unknown Mnemonic 'push'.
   2519  0000					      push	bc
hero.asm (2520): error: Unknown Mnemonic 'dec'.
   2520  0000					      dec	b
hero.asm (2521): error: Unknown Mnemonic 'dec'.
   2521  0000					      dec	b
hero.asm (2522): error: Unknown Mnemonic 'dec'.
   2522  0000					      dec	b
hero.asm (2523): error: Unknown Mnemonic 'call'.
   2523  0000					      call	getstage
hero.asm (2524): error: Unknown Mnemonic 'pop'.
   2524  0000					      pop	bc
hero.asm (2525): error: Unknown Mnemonic 'or'.
   2525  0000					      or	a
hero.asm (2526): error: Unknown Mnemonic 'jr'.
   2526  0000					      jr	z,wrraftxd
hero.asm (2527): error: Unknown Mnemonic 'ld'.
   2527  0000					      ld	a,(svraftb)
hero.asm (2528): error: Unknown Mnemonic 'ld'.
   2528  0000					      ld	b,a
hero.asm (2529): error: Unknown Mnemonic 'jr'.
   2529  0000					      jr	outraft
   2530  0000
hero.asm (2531): error: Unknown Mnemonic 'ld'.
   2531  0000				   wrraftxd   ld	a,(newherox)
hero.asm (2532): error: Unknown Mnemonic 'dec'.
   2532  0000					      dec	a
hero.asm (2533): error: Unknown Mnemonic 'ld'.
   2533  0000					      ld	(newherox),a
hero.asm (2534): error: Unknown Mnemonic 'ld'.
   2534  0000					      ld	(hl),b
   2535  0000
hero.asm (2536): error: Unknown Mnemonic 'pop'.
   2536  0000				   outraft    pop	hl
hero.asm (2537): error: Unknown Mnemonic 'inc'.
   2537  0000				   outraft2   inc	hl
hero.asm (2538): error: Unknown Mnemonic 'inc'.
   2538  0000					      inc	hl
hero.asm (2539): error: Unknown Mnemonic 'jr'.
   2539  0000					      jr	noxmv
   2540  0000
   2541  0000							;x move
hero.asm (2542): error: Unknown Mnemonic 'inc'.
   2542  0000				   xmv	      inc	hl
hero.asm (2543): error: Unknown Mnemonic 'ld'.
   2543  0000					      ld	a,(hl)
hero.asm (2544): error: Unknown Mnemonic 'inc'.
   2544  0000					      inc	hl
hero.asm (2545): error: Unknown Mnemonic 'or'.
   2545  0000					      or	a
hero.asm (2546): error: Unknown Mnemonic 'jr'.
   2546  0000					      jr	z,noxmv
hero.asm (2547): error: Unknown Mnemonic 'ld'.
   2547  0000					      ld	d,a	;movement range -> d
hero.asm (2548): error: Unknown Mnemonic 'ld'.
   2548  0000					      ld	a,(hl)	;e current movement counter (bit 7 = direction)
hero.asm (2549): error: Unknown Mnemonic 'bit'.
   2549  0000					      bit	7,a
hero.asm (2550): error: Unknown Mnemonic 'jr'.
   2550  0000					      jr	z,xmvpos
hero.asm (2551): error: Unknown Mnemonic 'or'.
   2551  0000					      or	a
hero.asm (2552): error: Unknown Mnemonic 'jr'.
   2552  0000					      jr	z,xmvpos
hero.asm (2553): error: Unknown Mnemonic 'res'.
   2553  0000					      res	7,a
hero.asm (2554): error: Unknown Mnemonic 'dec'.
   2554  0000					      dec	a
hero.asm (2555): error: Unknown Mnemonic 'dec'.
   2555  0000					      dec	b
hero.asm (2556): error: Unknown Mnemonic 'or'.
   2556  0000					      or	a
hero.asm (2557): error: Unknown Mnemonic 'jr'.
   2557  0000					      jr	z,xmv2
   2558  0000					      set	7,a
hero.asm (2559): error: Unknown Mnemonic 'jr'.
   2559  0000					      jr	xmv2
   2560  0000
hero.asm (2561): error: Unknown Mnemonic 'inc'.
   2561  0000				   xmvpos     inc	a
hero.asm (2562): error: Unknown Mnemonic 'inc'.
   2562  0000					      inc	b	;increment x
hero.asm (2563): error: Unknown Mnemonic 'cp'.
   2563  0000					      cp	d
hero.asm (2564): error: Unknown Mnemonic 'jr'.
   2564  0000					      jr	nz,xmv2
   2565  0000					      set	7,a
hero.asm (2566): error: Unknown Mnemonic 'ld'.
   2566  0000				   xmv2       ld	(hl),a
   2567  0000
hero.asm (2568): error: Unknown Mnemonic 'ld'.
   2568  0000					      ld	de,3	;update x pos
hero.asm (2569): error: Unknown Mnemonic 'and'.
   2569  0000					      and	a
hero.asm (2570): error: Unknown Mnemonic 'sbc'.
   2570  0000					      sbc	hl,de
hero.asm (2571): error: Unknown Mnemonic 'ld'.
   2571  0000					      ld	(hl),b
hero.asm (2572): error: Unknown Mnemonic 'add'.
   2572  0000					      add	hl,de
   2573  0000
hero.asm (2574): error: Unknown Mnemonic 'inc'.
   2574  0000					      inc	hl
hero.asm (2575): error: Unknown Mnemonic 'jr'.
   2575  0000					      jr	ymv
   2576  0000
hero.asm (2577): error: Unknown Mnemonic 'inc'.
   2577  0000				   noxmv      inc	hl
   2578  0000
   2579  0000							;y move
hero.asm (2580): error: Unknown Mnemonic 'ld'.
   2580  0000				   ymv	      ld	a,(hl)
hero.asm (2581): error: Unknown Mnemonic 'inc'.
   2581  0000					      inc	hl
hero.asm (2582): error: Unknown Mnemonic 'or'.
   2582  0000					      or	a
hero.asm (2583): error: Unknown Mnemonic 'jr'.
   2583  0000					      jr	z,noymv
hero.asm (2584): error: Unknown Mnemonic 'ld'.
   2584  0000					      ld	d,a	;movement range -> d
hero.asm (2585): error: Unknown Mnemonic 'ld'.
   2585  0000					      ld	a,(hl)	;e current movement counter (bit 7 = direction)
hero.asm (2586): error: Unknown Mnemonic 'bit'.
   2586  0000					      bit	7,a
hero.asm (2587): error: Unknown Mnemonic 'jr'.
   2587  0000					      jr	z,ymvpos
hero.asm (2588): error: Unknown Mnemonic 'or'.
   2588  0000					      or	a
hero.asm (2589): error: Unknown Mnemonic 'jr'.
   2589  0000					      jr	z,ymvpos
hero.asm (2590): error: Unknown Mnemonic 'res'.
   2590  0000					      res	7,a
hero.asm (2591): error: Unknown Mnemonic 'dec'.
   2591  0000					      dec	a
hero.asm (2592): error: Unknown Mnemonic 'dec'.
   2592  0000					      dec	c
hero.asm (2593): error: Unknown Mnemonic 'or'.
   2593  0000					      or	a
hero.asm (2594): error: Unknown Mnemonic 'jr'.
   2594  0000					      jr	z,ymv2
   2595  0000					      set	7,a
hero.asm (2596): error: Unknown Mnemonic 'jr'.
   2596  0000					      jr	ymv2
   2597  0000
hero.asm (2598): error: Unknown Mnemonic 'inc'.
   2598  0000				   ymvpos     inc	a
hero.asm (2599): error: Unknown Mnemonic 'inc'.
   2599  0000					      inc	c	;increment y
hero.asm (2600): error: Unknown Mnemonic 'cp'.
   2600  0000					      cp	d
hero.asm (2601): error: Unknown Mnemonic 'jr'.
   2601  0000					      jr	nz,ymv2
   2602  0000					      set	7,a
hero.asm (2603): error: Unknown Mnemonic 'ld'.
   2603  0000				   ymv2       ld	(hl),a
   2604  0000
hero.asm (2605): error: Unknown Mnemonic 'ld'.
   2605  0000					      ld	de,4	;update y pos
hero.asm (2606): error: Unknown Mnemonic 'and'.
   2606  0000					      and	a
hero.asm (2607): error: Unknown Mnemonic 'sbc'.
   2607  0000					      sbc	hl,de
hero.asm (2608): error: Unknown Mnemonic 'ld'.
   2608  0000					      ld	(hl),c
hero.asm (2609): error: Unknown Mnemonic 'add'.
   2609  0000					      add	hl,de
   2610  0000
hero.asm (2611): error: Unknown Mnemonic 'inc'.
   2611  0000					      inc	hl
hero.asm (2612): error: Unknown Mnemonic 'jr'.
   2612  0000					      jr	deahead
   2613  0000
hero.asm (2614): error: Unknown Mnemonic 'inc'.
   2614  0000				   noymv      inc	hl
hero.asm (2615): error: Unknown Mnemonic 'push'.
   2615  0000				   deahead    push	hl
hero.asm (2616): error: Unknown Mnemonic 'ld'.
   2616  0000				   depatch    ld	de,0
   2617  0000
hero.asm (2618): error: Unknown Mnemonic 'push'.
   2618  0000					      push	bc
hero.asm (2619): error: Unknown Mnemonic 'push'.
   2619  0000					      push	de
hero.asm (2620): error: Unknown Mnemonic 'push'.
   2620  0000					      push	hl
   2621  0000
hero.asm (2622): error: Unknown Mnemonic 'ld'.
   2622  0000					      ld	a,(drolda)
hero.asm (2623): error: Unknown Mnemonic 'and'.
   2623  0000					      and	a
hero.asm (2624): error: Unknown Mnemonic 'sla'.
   2624  0000					      sla	a
hero.asm (2625): error: Unknown Mnemonic 'ld'.
   2625  0000					      ld	e,a
hero.asm (2626): error: Unknown Mnemonic 'ld'.
   2626  0000					      ld	d,0
hero.asm (2627): error: Unknown Mnemonic 'add'.
   2627  0000					      add	hl,de
   2628  0000
hero.asm (2629): error: Unknown Mnemonic 'ld'.
   2629  0000					      ld	e,(hl)
hero.asm (2630): error: Unknown Mnemonic 'inc'.
   2630  0000					      inc	hl
hero.asm (2631): error: Unknown Mnemonic 'ld'.
   2631  0000					      ld	d,(hl)
hero.asm (2632): error: Unknown Mnemonic 'ex'.
   2632  0000					      ex	de,hl
hero.asm (2633): error: Unknown Mnemonic 'ld'.
   2633  0000					      ld	d,(hl)
hero.asm (2634): error: Unknown Mnemonic 'inc'.
   2634  0000					      inc	hl
hero.asm (2635): error: Unknown Mnemonic 'ld'.
   2635  0000					      ld	e,(hl)
   2636  0000
hero.asm (2637): error: Unknown Mnemonic 'ld'.
   2637  0000					      ld	a,(drwoldb)
hero.asm (2638): error: Unknown Mnemonic 'ld'.
   2638  0000					      ld	b,a
hero.asm (2639): error: Unknown Mnemonic 'ld'.
   2639  0000					      ld	a,(drwoldc)
hero.asm (2640): error: Unknown Mnemonic 'ld'.
   2640  0000					      ld	c,a
hero.asm (2641): error: Unknown Mnemonic 'inc'.
   2641  0000					      inc	c
hero.asm (2642): error: Unknown Mnemonic 'xor'.
   2642  0000					      xor	a
hero.asm (2643): error: Unknown Mnemonic 'call'.
   2643  0000					      call	fillblock
   2644  0000
hero.asm (2645): error: Unknown Mnemonic 'pop'.
   2645  0000					      pop	hl
hero.asm (2646): error: Unknown Mnemonic 'pop'.
   2646  0000					      pop	de
hero.asm (2647): error: Unknown Mnemonic 'pop'.
   2647  0000					      pop	bc
   2648  0000
hero.asm (2649): error: Unknown Mnemonic 'add'.
   2649  0000					      add	hl,de
hero.asm (2650): error: Unknown Mnemonic 'ld'.
   2650  0000					      ld	e,(hl)
hero.asm (2651): error: Unknown Mnemonic 'inc'.
   2651  0000					      inc	hl
hero.asm (2652): error: Unknown Mnemonic 'ld'.
   2652  0000					      ld	d,(hl)
hero.asm (2653): error: Unknown Mnemonic 'ex'.
   2653  0000					      ex	de,hl
hero.asm (2654): error: Unknown Mnemonic 'ld'.
   2654  0000					      ld	e,(hl)
hero.asm (2655): error: Unknown Mnemonic 'inc'.
   2655  0000					      inc	hl
hero.asm (2656): error: Unknown Mnemonic 'ld'.
   2656  0000					      ld	d,(hl)
hero.asm (2657): error: Unknown Mnemonic 'inc'.
   2657  0000					      inc	hl
   2658  0000
hero.asm (2659): error: Unknown Mnemonic 'call'.
   2659  0000					      call	drawsprite
   2660  0000
hero.asm (2661): error: Unknown Mnemonic 'pop'.
   2661  0000					      pop	hl
hero.asm (2662): error: Unknown Mnemonic 'ld'.
   2662  0000					      ld	de,12
hero.asm (2663): error: Unknown Mnemonic 'add'.
   2663  0000					      add	hl,de
hero.asm (2664): error: Unknown Mnemonic 'jr'.
   2664  0000					      jr	drwenms3
hero.asm (2665): error: Unknown Mnemonic 'ld'.
   2665  0000				   drwenms2   ld	de,itemrecsize-1
hero.asm (2666): error: Unknown Mnemonic 'add'.
   2666  0000					      add	hl,de
hero.asm (2667): error: Unknown Mnemonic 'pop'.
   2667  0000				   drwenms3   pop	bc
hero.asm (2668): error: Unknown Mnemonic 'djnz'.
   2668  0000					      djnz	drwjump
hero.asm (2669): error: Unknown Mnemonic 'ret'.
   2669  0000					      ret
hero.asm (2670): error: Unknown Mnemonic 'jp'.
   2670  0000				   drwjump    jp	drwenms
   2671  0000
   2672  0000
   2673  0000		       00 03	   drwendlyinit equ	3
   2674  0000		       00 01	   drwtentldlyinit equ	1
   2675  0000
hero.asm (2676): error: Unknown Mnemonic 'db'.
   2676  0000				   drwendly   db	drwendlyinit
hero.asm (2677): error: Unknown Mnemonic 'db'.
   2677  0000				   drolda     db	0	;old counter
hero.asm (2678): error: Unknown Mnemonic 'db'.
   2678  0000				   drwoldb    db	0
hero.asm (2679): error: Unknown Mnemonic 'db'.
   2679  0000				   drwoldc    db	0
hero.asm (2680): error: Unknown Mnemonic 'db'.
   2680  0000				   svtentlb   db	0
hero.asm (2681): error: Unknown Mnemonic 'db'.
   2681  0000				   svraftb    db	0
hero.asm (2682): error: Unknown Mnemonic 'db'.
   2682  0000				   tentldly   db	drwtentldlyinit
   2683  0000
   2684  0000							;-------------------------------------------------------------------------------
   2685  0000							;
   2686  0000				   drawtitlescreen
hero.asm (2687): error: Unknown Mnemonic 'ld'.
   2687  0000					      ld	bc,1
hero.asm (2688): error: Unknown Mnemonic 'ld'.
   2688  0000					      ld	d,201
hero.asm (2689): error: Unknown Mnemonic 'ld'.
   2689  0000					      ld	e,80
hero.asm (2690): error: Unknown Mnemonic 'xor'.
   2690  0000					      xor	a
hero.asm (2691): error: Unknown Mnemonic 'call'.
   2691  0000					      call	fillblock
   2692  0000
hero.asm (2693): error: Unknown Mnemonic 'ld'.
   2693  0000					      ld	b,0
hero.asm (2694): error: Unknown Mnemonic 'ld'.
   2694  0000					      ld	c,topoffset+19
hero.asm (2695): error: Unknown Mnemonic 'ld'.
   2695  0000					      ld	d,34
hero.asm (2696): error: Unknown Mnemonic 'ld'.
   2696  0000					      ld	e,159
hero.asm (2697): error: Unknown Mnemonic 'ld'.
   2697  0000					      ld	hl,herotit
hero.asm (2698): error: Unknown Mnemonic 'call'.
   2698  0000					      call	drawsprite
   2699  0000
hero.asm (2700): error: Unknown Mnemonic 'ld'.
   2700  0000					      ld	b,28
hero.asm (2701): error: Unknown Mnemonic 'ld'.
   2701  0000					      ld	c,topoffset+39
hero.asm (2702): error: Unknown Mnemonic 'ld'.
   2702  0000					      ld	d,41
hero.asm (2703): error: Unknown Mnemonic 'ld'.
   2703  0000					      ld	e,7
hero.asm (2704): error: Unknown Mnemonic 'ld'.
   2704  0000					      ld	hl,jvr
hero.asm (2705): error: Unknown Mnemonic 'call'.
   2705  0000					      call	drawsprite
   2706  0000
hero.asm (2707): error: Unknown Mnemonic 'ld'.
   2707  0000					      ld	b,28
hero.asm (2708): error: Unknown Mnemonic 'ld'.
   2708  0000					      ld	c,topoffset+54
hero.asm (2709): error: Unknown Mnemonic 'ld'.
   2709  0000					      ld	d,43
hero.asm (2710): error: Unknown Mnemonic 'ld'.
   2710  0000					      ld	e,42
hero.asm (2711): error: Unknown Mnemonic 'ld'.
   2711  0000					      ld	hl,herologo
hero.asm (2712): error: Unknown Mnemonic 'call'.
   2712  0000					      call	drawsprite
   2713  0000
hero.asm (2714): error: Unknown Mnemonic 'ld'.
   2714  0000					      ld	b,35
hero.asm (2715): error: Unknown Mnemonic 'ld'.
   2715  0000					      ld	c,topoffset+110
hero.asm (2716): error: Unknown Mnemonic 'ld'.
   2716  0000					      ld	d,27
hero.asm (2717): error: Unknown Mnemonic 'ld'.
   2717  0000					      ld	e,8
hero.asm (2718): error: Unknown Mnemonic 'ld'.
   2718  0000					      ld	hl,prsfire
hero.asm (2719): error: Unknown Mnemonic 'call'.
   2719  0000					      call	drawsprite
   2720  0000
hero.asm (2721): error: Unknown Mnemonic 'ld'.
   2721  0000					      ld	a,(scrswp1+1)
hero.asm (2722): error: Unknown Mnemonic 'ld'.
   2722  0000					      ld	(titlepage),a
hero.asm (2723): error: Unknown Mnemonic 'ret'.
   2723  0000					      ret
   2724  0000
hero.asm (2725): error: Unknown Mnemonic 'db'.
   2725  0000				   titlepage  db	0
   2726  0000
   2727  0000							;-------------------------------------------------------------------------------
   2728  0000							;adddecimal
   2729  0000							;in:hl=pointer to last digit, b=digits, c=number to add 
   2730  0000							;out:-
   2731  0000							;corrupted regs: af, b, de, hl
   2732  0000							;
   2733  0000				   adddecimal
hero.asm (2734): error: Unknown Mnemonic 'ld'.
   2734  0000					      ld	a,c
   2735  0000
hero.asm (2736): error: Unknown Mnemonic 'ld'.
   2736  0000				   adddlop    ld	d,a
hero.asm (2737): error: Unknown Mnemonic 'and'.
   2737  0000					      and	%00001111
hero.asm (2738): error: Unknown Mnemonic 'add'.
   2738  0000					      add	(hl)
hero.asm (2739): error: Unknown Mnemonic 'daa'.
   2739  0000					      daa
hero.asm (2740): error: Unknown Mnemonic 'ld'.
   2740  0000					      ld	e,a
hero.asm (2741): error: Unknown Mnemonic 'and'.
   2741  0000					      and	%00001111
hero.asm (2742): error: Unknown Mnemonic 'ld'.
   2742  0000					      ld	(hl),a
hero.asm (2743): error: Unknown Mnemonic 'dec'.
   2743  0000					      dec	hl
hero.asm (2744): error: Unknown Mnemonic 'ld'.
   2744  0000					      ld	a,e
hero.asm (2745): error: Unknown Mnemonic 'srl'.
   2745  0000					      srl	a
hero.asm (2746): error: Unknown Mnemonic 'srl'.
   2746  0000					      srl	a
hero.asm (2747): error: Unknown Mnemonic 'srl'.
   2747  0000					      srl	a
hero.asm (2748): error: Unknown Mnemonic 'srl'.
   2748  0000					      srl	a
hero.asm (2749): error: Unknown Mnemonic 'ld'.
   2749  0000					      ld	e,a
hero.asm (2750): error: Unknown Mnemonic 'ld'.
   2750  0000					      ld	a,d
hero.asm (2751): error: Unknown Mnemonic 'srl'.
   2751  0000					      srl	a
hero.asm (2752): error: Unknown Mnemonic 'srl'.
   2752  0000					      srl	a
hero.asm (2753): error: Unknown Mnemonic 'srl'.
   2753  0000					      srl	a
hero.asm (2754): error: Unknown Mnemonic 'srl'.
   2754  0000					      srl	a
hero.asm (2755): error: Unknown Mnemonic 'add'.
   2755  0000					      add	e
hero.asm (2756): error: Unknown Mnemonic 'daa'.
   2756  0000					      daa
hero.asm (2757): error: Unknown Mnemonic 'djnz'.
   2757  0000					      djnz	adddlop
hero.asm (2758): error: Unknown Mnemonic 'ret'.
   2758  0000					      ret
   2759  0000
   2760  0000							;-------------------------------------------------------------------------------
   2761  0000							;addpoints
   2762  0000							;in:c points
   2763  0000							;out:-
   2764  0000							;corrupted regs: af, b, de, hl
   2765  0000							;
   2766  0000				   addpoints
hero.asm (2767): error: Unknown Mnemonic 'ld'.
   2767  0000					      ld	hl,score+5
hero.asm (2768): error: Unknown Mnemonic 'ld'.
   2768  0000					      ld	b,6
hero.asm (2769): error: Unknown Mnemonic 'call'.
   2769  0000					      call	adddecimal
   2770  0000
   2771  0000							;add life?
hero.asm (2772): error: Unknown Mnemonic 'ld'.
   2772  0000					      ld	a,(old5val)
hero.asm (2773): error: Unknown Mnemonic 'ld'.
   2773  0000					      ld	b,a
hero.asm (2774): error: Unknown Mnemonic 'ld'.
   2774  0000					      ld	a,(score+1)
hero.asm (2775): error: Unknown Mnemonic 'cp'.
   2775  0000					      cp	b
hero.asm (2776): error: Unknown Mnemonic 'ret'.
   2776  0000					      ret	z
hero.asm (2777): error: Unknown Mnemonic 'ld'.
   2777  0000					      ld	(old5val),a
hero.asm (2778): error: Unknown Mnemonic 'ld'.
   2778  0000					      ld	a,(addlifec)
hero.asm (2779): error: Unknown Mnemonic 'cp'.
   2779  0000					      cp	1
hero.asm (2780): error: Unknown Mnemonic 'jr'.
   2780  0000					      jr	z,addlife
hero.asm (2781): error: Unknown Mnemonic 'inc'.
   2781  0000					      inc	a
hero.asm (2782): error: Unknown Mnemonic 'ld'.
   2782  0000					      ld	(addlifec),a
hero.asm (2783): error: Unknown Mnemonic 'ret'.
   2783  0000					      ret
hero.asm (2784): error: Unknown Mnemonic 'ld'.
   2784  0000				   addlife    ld	a,(lifes)
hero.asm (2785): error: Unknown Mnemonic 'cp'.
   2785  0000					      cp	6
hero.asm (2786): error: Unknown Mnemonic 'ret'.
   2786  0000					      ret	z
hero.asm (2787): error: Unknown Mnemonic 'inc'.
   2787  0000					      inc	a
hero.asm (2788): error: Unknown Mnemonic 'ld'.
   2788  0000					      ld	(lifes),a
hero.asm (2789): error: Unknown Mnemonic 'call'.
   2789  0000					      call	drawlifes
hero.asm (2790): error: Unknown Mnemonic 'xor'.
   2790  0000					      xor	a
hero.asm (2791): error: Unknown Mnemonic 'ld'.
   2791  0000					      ld	(addlifec),a
hero.asm (2792): error: Unknown Mnemonic 'ret'.
   2792  0000					      ret
   2793  0000
hero.asm (2794): error: Unknown Mnemonic 'db'.
   2794  0000				   addlifec   db	0	;add life counter 
hero.asm (2795): error: Unknown Mnemonic 'db'.
   2795  0000				   old5val    db	0
   2796  0000
   2797  0000							;-------------------------------------------------------------------------------
   2798  0000							;calclevelnr
   2799  0000							;
   2800  0000				   addlevelnr
hero.asm (2801): error: Unknown Mnemonic 'ld'.
   2801  0000					      ld	hl,levnumbr
hero.asm (2802): error: Unknown Mnemonic 'inc'.
   2802  0000					      inc	(hl)
hero.asm (2803): error: Unknown Mnemonic 'ld'.
   2803  0000					      ld	hl,level+1
hero.asm (2804): error: Unknown Mnemonic 'ld'.
   2804  0000					      ld	bc,&0201
hero.asm (2805): error: Unknown Mnemonic 'jr'.
   2805  0000					      jr	adddecimal
   2806  0000
   2807  0000							;-------------------------------------------------------------------------------
   2808  0000							;drawbomb
   2809  0000							;in/out:-
   2810  0000							;corrupted regs: all
   2811  0000							;
   2812  0000				   drawbomb
hero.asm (2813): error: Unknown Mnemonic 'ld'.
   2813  0000					      ld	a,(bombset)
hero.asm (2814): error: Unknown Mnemonic 'cp'.
   2814  0000					      cp	0
hero.asm (2815): error: Unknown Mnemonic 'ret'.
   2815  0000					      ret	z
   2816  0000
hero.asm (2817): error: Unknown Mnemonic 'ld'.
   2817  0000					      ld	a,(bombset)
hero.asm (2818): error: Unknown Mnemonic 'cp'.
   2818  0000					      cp	1
hero.asm (2819): error: Unknown Mnemonic 'jp'.
   2819  0000					      jp	nz,drb
   2820  0000
hero.asm (2821): error: Unknown Mnemonic 'ld'.
   2821  0000					      ld	a,(boumctr)
hero.asm (2822): error: Unknown Mnemonic 'cp'.
   2822  0000					      cp	0
hero.asm (2823): error: Unknown Mnemonic 'jp'.
   2823  0000					      jp	z,bmend
hero.asm (2824): error: Unknown Mnemonic 'cp'.
   2824  0000					      cp	boumdlyinit
hero.asm (2825): error: Unknown Mnemonic 'jr'.
   2825  0000					      jr	nz,bumanm2
   2826  0000
hero.asm (2827): error: Unknown Mnemonic 'ld'.
   2827  0000					      ld	hl,bombx
hero.asm (2828): error: Unknown Mnemonic 'dec'.
   2828  0000					      dec	(hl)
hero.asm (2829): error: Unknown Mnemonic 'ld'.
   2829  0000					      ld	hl,bomby
hero.asm (2830): error: Unknown Mnemonic 'dec'.
   2830  0000					      dec	(hl)
hero.asm (2831): error: Unknown Mnemonic 'dec'.
   2831  0000					      dec	(hl)
hero.asm (2832): error: Unknown Mnemonic 'ld'.
   2832  0000					      ld	c,noise	;boum anim 1
   2833  0000
hero.asm (2834): error: Unknown Mnemonic 'ld'.
   2834  0000					      ld	a,%11111
hero.asm (2835): error: Unknown Mnemonic 'call'.
   2835  0000					      call	wrpsg
hero.asm (2836): error: Unknown Mnemonic 'ld'.
   2836  0000					      ld	c,channelb
hero.asm (2837): error: Unknown Mnemonic 'ld'.
   2837  0000					      ld	a,soundfull or envelope_on
hero.asm (2838): error: Unknown Mnemonic 'call'.
   2838  0000					      call	wrpsg
hero.asm (2839): error: Unknown Mnemonic 'ld'.
   2839  0000					      ld	c,envelope_shape
hero.asm (2840): error: Unknown Mnemonic 'ld'.
   2840  0000					      ld	a,%0000	;envshape: \_____
hero.asm (2841): error: Unknown Mnemonic 'call'.
   2841  0000					      call	wrpsg
hero.asm (2842): error: Unknown Mnemonic 'call'.
   2842  0000					      call	setbackclrswap
hero.asm (2843): error: Unknown Mnemonic 'call'.
   2843  0000					      call	deletewalls
   2844  0000
hero.asm (2845): error: Unknown Mnemonic 'ld'.
   2845  0000					      ld	a,(bombx)	;test: is bomb in x range
hero.asm (2846): error: Unknown Mnemonic 'ld'.
   2846  0000					      ld	b,a
hero.asm (2847): error: Unknown Mnemonic 'ld'.
   2847  0000					      ld	a,(newherox)
hero.asm (2848): error: Unknown Mnemonic 'sub'.
   2848  0000					      sub	b	;bomb x
hero.asm (2849): error: Unknown Mnemonic 'jr'.
   2849  0000					      jr	c,bmtstxc1
hero.asm (2850): error: Unknown Mnemonic 'sub'.
   2850  0000					      sub	4	;case 2: hero > enemy --> test enemy width
hero.asm (2851): error: Unknown Mnemonic 'jr'.
   2851  0000					      jr	bmtstxc2
hero.asm (2852): error: Unknown Mnemonic 'cpl'.
   2852  0000				   bmtstxc1   cpl		;case 1: hero < enemy --> test hero width
hero.asm (2853): error: Unknown Mnemonic 'sub'.
   2853  0000					      sub	3	;&14-&18 =-4 -> "cpl ! inc 1" or "sub herowidth-1"
hero.asm (2854): error: Unknown Mnemonic 'jr'.
   2854  0000				   bmtstxc2   jr	nc,bmtstnoc
   2855  0000
hero.asm (2856): error: Unknown Mnemonic 'ld'.
   2856  0000					      ld	a,(bomby)	;test: is bomb in y range
hero.asm (2857): error: Unknown Mnemonic 'ld'.
   2857  0000					      ld	c,a
hero.asm (2858): error: Unknown Mnemonic 'ld'.
   2858  0000					      ld	a,(newheroy)
hero.asm (2859): error: Unknown Mnemonic 'sub'.
   2859  0000					      sub	c
hero.asm (2860): error: Unknown Mnemonic 'jr'.
   2860  0000					      jr	c,bmtstyc1
hero.asm (2861): error: Unknown Mnemonic 'sub'.
   2861  0000					      sub	11
hero.asm (2862): error: Unknown Mnemonic 'jr'.
   2862  0000					      jr	bmtstyc2
hero.asm (2863): error: Unknown Mnemonic 'cpl'.
   2863  0000				   bmtstyc1   cpl
hero.asm (2864): error: Unknown Mnemonic 'sub'.
   2864  0000					      sub	23	;heroheight -1 = 24-1 = 23	    
hero.asm (2865): error: Unknown Mnemonic 'jr'.
   2865  0000				   bmtstyc2   jr	nc,bmtstnoc
hero.asm (2866): error: Unknown Mnemonic 'ld'.
   2866  0000					      ld	a,(heroclsn)
   2867  0000					      set	col_flag_bomb,a
hero.asm (2868): error: Unknown Mnemonic 'ld'.
   2868  0000					      ld	(heroclsn),a
   2869  0000
hero.asm (2870): error: Unknown Mnemonic 'ld'.
   2870  0000				   bmtstnoc   ld	hl,bombs
hero.asm (2871): error: Unknown Mnemonic 'dec'.
   2871  0000					      dec	(hl)	;decrement bomb -> nop to cheat
hero.asm (2872): error: Unknown Mnemonic 'call'.
   2872  0000					      call	drawbombs
hero.asm (2873): error: Unknown Mnemonic 'call'.
   2873  0000					      call	setlevelcolour
hero.asm (2874): error: Unknown Mnemonic 'ld'.
   2874  0000					      ld	hl,boum1
hero.asm (2875): error: Unknown Mnemonic 'jr'.
   2875  0000					      jr	boumanim
   2876  0000
hero.asm (2877): error: Unknown Mnemonic 'cp'.
   2877  0000				   bumanm2    cp	boumdlyinit-1
hero.asm (2878): error: Unknown Mnemonic 'jr'.
   2878  0000					      jr	nz,bumanm3
hero.asm (2879): error: Unknown Mnemonic 'call'.
   2879  0000					      call	setbackclrswap
hero.asm (2880): error: Unknown Mnemonic 'ld'.
   2880  0000					      ld	hl,boum2
hero.asm (2881): error: Unknown Mnemonic 'jr'.
   2881  0000					      jr	boumanim
   2882  0000
hero.asm (2883): error: Unknown Mnemonic 'cp'.
   2883  0000				   bumanm3    cp	boumdlyinit-2
hero.asm (2884): error: Unknown Mnemonic 'jr'.
   2884  0000					      jr	nz,boumanm4
hero.asm (2885): error: Unknown Mnemonic 'call'.
   2885  0000					      call	setbackclrswap
hero.asm (2886): error: Unknown Mnemonic 'ld'.
   2886  0000					      ld	hl,boum3
hero.asm (2887): error: Unknown Mnemonic 'jr'.
   2887  0000					      jr	boumanim
   2888  0000
hero.asm (2889): error: Unknown Mnemonic 'cp'.
   2889  0000				   boumanm4   cp	boumdlyinit-3
hero.asm (2890): error: Unknown Mnemonic 'jr'.
   2890  0000					      jr	nz,boumanm5
hero.asm (2891): error: Unknown Mnemonic 'call'.
   2891  0000					      call	setbackclrswap
hero.asm (2892): error: Unknown Mnemonic 'ld'.
   2892  0000					      ld	hl,boum4
hero.asm (2893): error: Unknown Mnemonic 'jr'.
   2893  0000					      jr	boumanim
   2894  0000
hero.asm (2895): error: Unknown Mnemonic 'cp'.
   2895  0000				   boumanm5   cp	boumdlyinit-4
hero.asm (2896): error: Unknown Mnemonic 'jr'.
   2896  0000					      jr	nz,boumgo
hero.asm (2897): error: Unknown Mnemonic 'xor'.
   2897  0000					      xor	a
hero.asm (2898): error: Unknown Mnemonic 'ld'.
   2898  0000					      ld	(backclr),a
hero.asm (2899): error: Unknown Mnemonic 'call'.
   2899  0000					      call	setbackclr
hero.asm (2900): error: Unknown Mnemonic 'ld'.
   2900  0000					      ld	a,(bombx)
hero.asm (2901): error: Unknown Mnemonic 'ld'.
   2901  0000					      ld	b,a
hero.asm (2902): error: Unknown Mnemonic 'ld'.
   2902  0000					      ld	a,(bomby)
hero.asm (2903): error: Unknown Mnemonic 'add'.
   2903  0000					      add	3
hero.asm (2904): error: Unknown Mnemonic 'ld'.
   2904  0000					      ld	c,a
hero.asm (2905): error: Unknown Mnemonic 'ld'.
   2905  0000					      ld	de,&0b04
   2906  0000
hero.asm (2907): error: Unknown Mnemonic 'ld'.
   2907  0000					      ld	hl,bombscrn	;curscreen?
hero.asm (2908): error: Unknown Mnemonic 'ld'.
   2908  0000					      ld	a,(curscrn)
hero.asm (2909): error: Unknown Mnemonic 'cp'.
   2909  0000					      cp	(hl)
hero.asm (2910): error: Unknown Mnemonic 'jr'.
   2910  0000					      jr	nz,boumgo
   2911  0000
hero.asm (2912): error: Unknown Mnemonic 'xor'.
   2912  0000					      xor	a
hero.asm (2913): error: Unknown Mnemonic 'call'.
   2913  0000					      call	fillblock
   2914  0000
hero.asm (2915): error: Unknown Mnemonic 'ld'.
   2915  0000					      ld	a,(dltwals)
hero.asm (2916): error: Unknown Mnemonic 'or'.
   2916  0000					      or	a
hero.asm (2917): error: Unknown Mnemonic 'jr'.
   2917  0000					      jr	z,boumgo
   2918  0000
hero.asm (2919): error: Unknown Mnemonic 'ld'.
   2919  0000					      ld	a,(bombx)
hero.asm (2920): error: Unknown Mnemonic 'ld'.
   2920  0000					      ld	b,a
hero.asm (2921): error: Unknown Mnemonic 'ld'.
   2921  0000					      ld	a,(bomby)
hero.asm (2922): error: Unknown Mnemonic 'ld'.
   2922  0000					      ld	c,a
hero.asm (2923): error: Unknown Mnemonic 'ld'.
   2923  0000					      ld	hl,pts75
hero.asm (2924): error: Unknown Mnemonic 'call'.
   2924  0000					      call	placepoints
hero.asm (2925): error: Unknown Mnemonic 'jr'.
   2925  0000					      jr	boumgo
   2926  0000
hero.asm (2927): error: Unknown Mnemonic 'ld'.
   2927  0000				   boumanim   ld	de,&040b
hero.asm (2928): error: Unknown Mnemonic 'ld'.
   2928  0000					      ld	a,(bombx)
hero.asm (2929): error: Unknown Mnemonic 'ld'.
   2929  0000					      ld	b,a
hero.asm (2930): error: Unknown Mnemonic 'ld'.
   2930  0000					      ld	a,(bomby)
hero.asm (2931): error: Unknown Mnemonic 'add'.
   2931  0000					      add	2
hero.asm (2932): error: Unknown Mnemonic 'ld'.
   2932  0000					      ld	c,a
   2933  0000
hero.asm (2934): error: Unknown Mnemonic 'push'.
   2934  0000					      push	hl
hero.asm (2935): error: Unknown Mnemonic 'ld'.
   2935  0000					      ld	hl,bombscrn	;curscreen?
hero.asm (2936): error: Unknown Mnemonic 'ld'.
   2936  0000					      ld	a,(curscrn)
hero.asm (2937): error: Unknown Mnemonic 'cp'.
   2937  0000					      cp	(hl)
hero.asm (2938): error: Unknown Mnemonic 'pop'.
   2938  0000					      pop	hl
hero.asm (2939): error: Unknown Mnemonic 'jr'.
   2939  0000					      jr	nz,boumgo
   2940  0000
hero.asm (2941): error: Unknown Mnemonic 'call'.
   2941  0000					      call	drawsprite
hero.asm (2942): error: Unknown Mnemonic 'ld'.
   2942  0000				   boumgo     ld	a,(boumctr)
hero.asm (2943): error: Unknown Mnemonic 'dec'.
   2943  0000					      dec	a
hero.asm (2944): error: Unknown Mnemonic 'ld'.
   2944  0000					      ld	(boumctr),a
hero.asm (2945): error: Unknown Mnemonic 'ret'.
   2945  0000					      ret
   2946  0000
hero.asm (2947): error: Unknown Mnemonic 'ld'.
   2947  0000				   bmend      ld	c,channelb	;volume b, pssst!!!
hero.asm (2948): error: Unknown Mnemonic 'ld'.
   2948  0000					      ld	a,soundpst
hero.asm (2949): error: Unknown Mnemonic 'call'.
   2949  0000					      call	wrpsg
hero.asm (2950): error: Unknown Mnemonic 'ld'.
   2950  0000					      ld	a,bmbsndinit
hero.asm (2951): error: Unknown Mnemonic 'ld'.
   2951  0000					      ld	(bombsnd),a	;reset bomb values
hero.asm (2952): error: Unknown Mnemonic 'ld'.
   2952  0000					      ld	a,boumdlyinit
hero.asm (2953): error: Unknown Mnemonic 'ld'.
   2953  0000					      ld	(boumctr),a
hero.asm (2954): error: Unknown Mnemonic 'xor'.
   2954  0000					      xor	a
hero.asm (2955): error: Unknown Mnemonic 'ld'.
   2955  0000					      ld	(bombset),a
hero.asm (2956): error: Unknown Mnemonic 'ret'.
   2956  0000					      ret
   2957  0000
hero.asm (2958): error: Unknown Mnemonic 'dec'.
   2958  0000				   drb	      dec	a
hero.asm (2959): error: Unknown Mnemonic 'ld'.
   2959  0000					      ld	(bombset),a
   2960  0000
hero.asm (2961): error: Unknown Mnemonic 'ld'.
   2961  0000					      ld	hl,(clvptrb1)
hero.asm (2962): error: Unknown Mnemonic 'dec'.
   2962  0000					      dec	hl
hero.asm (2963): error: Unknown Mnemonic 'ld'.
   2963  0000					      ld	a,(hl)
hero.asm (2964): error: Unknown Mnemonic 'cp'.
   2964  0000					      cp	20
hero.asm (2965): error: Unknown Mnemonic 'jr'.
   2965  0000					      jr	nz,dbnocrcg
hero.asm (2966): error: Unknown Mnemonic 'ld'.
   2966  0000					      ld	bc,&7f0f
hero.asm (2967): error: Unknown Mnemonic 'out'.
   2967  0000					      out	(c),c
hero.asm (2968): error: Unknown Mnemonic 'ld'.
   2968  0000					      ld	a,0 or %01000000
hero.asm (2969): error: Unknown Mnemonic 'out'.
   2969  0000					      out	(c),a
   2970  0000
hero.asm (2971): error: Unknown Mnemonic 'ld'.
   2971  0000				   dbnocrcg   ld	a,(bombanm)
hero.asm (2972): error: Unknown Mnemonic 'inc'.
   2972  0000					      inc	a
hero.asm (2973): error: Unknown Mnemonic 'cp'.
   2973  0000					      cp	3
hero.asm (2974): error: Unknown Mnemonic 'jr'.
   2974  0000					      jr	nz,drbmgo
hero.asm (2975): error: Unknown Mnemonic 'ld'.
   2975  0000					      ld	a,0
hero.asm (2976): error: Unknown Mnemonic 'ld'.
   2976  0000				   drbmgo     ld	(bombanm),a
hero.asm (2977): error: Unknown Mnemonic 'cp'.
   2977  0000					      cp	0
hero.asm (2978): error: Unknown Mnemonic 'jr'.
   2978  0000					      jr	nz,drb1
hero.asm (2979): error: Unknown Mnemonic 'ld'.
   2979  0000					      ld	hl,bomb1
hero.asm (2980): error: Unknown Mnemonic 'jr'.
   2980  0000					      jr	drb3
hero.asm (2981): error: Unknown Mnemonic 'cp'.
   2981  0000				   drb1       cp	1
hero.asm (2982): error: Unknown Mnemonic 'jr'.
   2982  0000					      jr	nz,drb2
hero.asm (2983): error: Unknown Mnemonic 'ld'.
   2983  0000					      ld	hl,bomb2
hero.asm (2984): error: Unknown Mnemonic 'jr'.
   2984  0000					      jr	drb3
hero.asm (2985): error: Unknown Mnemonic 'ld'.
   2985  0000				   drb2       ld	hl,bomb3
hero.asm (2986): error: Unknown Mnemonic 'ld'.
   2986  0000				   drb3       ld	de,&020b
hero.asm (2987): error: Unknown Mnemonic 'ld'.
   2987  0000					      ld	a,(bombx)
hero.asm (2988): error: Unknown Mnemonic 'ld'.
   2988  0000					      ld	b,a
hero.asm (2989): error: Unknown Mnemonic 'ld'.
   2989  0000					      ld	a,(bomby)
hero.asm (2990): error: Unknown Mnemonic 'ld'.
   2990  0000					      ld	c,a
hero.asm (2991): error: Unknown Mnemonic 'push'.
   2991  0000					      push	hl
hero.asm (2992): error: Unknown Mnemonic 'ld'.
   2992  0000					      ld	hl,bombscrn	;curscreen?
hero.asm (2993): error: Unknown Mnemonic 'ld'.
   2993  0000					      ld	a,(curscrn)
hero.asm (2994): error: Unknown Mnemonic 'cp'.
   2994  0000					      cp	(hl)
hero.asm (2995): error: Unknown Mnemonic 'pop'.
   2995  0000					      pop	hl
hero.asm (2996): error: Unknown Mnemonic 'jr'.
   2996  0000					      jr	nz,drb4
hero.asm (2997): error: Unknown Mnemonic 'call'.
   2997  0000					      call	drawsprite
hero.asm (2998): error: Unknown Mnemonic 'ld'.
   2998  0000				   drb4       ld	c,noise
hero.asm (2999): error: Unknown Mnemonic 'ld'.
   2999  0000					      ld	a,(bombsnd)
hero.asm (3000): error: Unknown Mnemonic 'ld'.
   3000  0000					      ld	hl,bombset
hero.asm (3001): error: Unknown Mnemonic 'add'.
   3001  0000					      add	(hl)
hero.asm (3002): error: Unknown Mnemonic 'xor'.
   3002  0000					      xor	&ff	;xor  %00101	      
hero.asm (3003): error: Unknown Mnemonic 'and'.
   3003  0000					      and	%00111
hero.asm (3004): error: Unknown Mnemonic 'ld'.
   3004  0000					      ld	(bombsnd),a
hero.asm (3005): error: Unknown Mnemonic 'call'.
   3005  0000					      call	wrpsg
   3006  0000
hero.asm (3007): error: Unknown Mnemonic 'ld'.
   3007  0000					      ld	c,channelb
hero.asm (3008): error: Unknown Mnemonic 'ld'.
   3008  0000					      ld	a,soundfull
hero.asm (3009): error: Unknown Mnemonic 'call'.
   3009  0000					      call	wrpsg
   3010  0000
hero.asm (3011): error: Unknown Mnemonic 'ret'.
   3011  0000					      ret
   3012  0000
   3013  0000				   setbackclrswap
hero.asm (3014): error: Unknown Mnemonic 'ld'.
   3014  0000					      ld	a,(backclr)
hero.asm (3015): error: Unknown Mnemonic 'xor'.
   3015  0000					      xor	1
hero.asm (3016): error: Unknown Mnemonic 'ld'.
   3016  0000					      ld	(backclr),a
   3017  0000				   setbackclr
hero.asm (3018): error: Unknown Mnemonic 'ld'.
   3018  0000					      ld	bc,&7f00
hero.asm (3019): error: Unknown Mnemonic 'out'.
   3019  0000					      out	(c),c
hero.asm (3020): error: Unknown Mnemonic 'ld'.
   3020  0000					      ld	a,(backclr)
hero.asm (3021): error: Unknown Mnemonic 'or'.
   3021  0000					      or	a
hero.asm (3022): error: Unknown Mnemonic 'jr'.
   3022  0000					      jr	z,sbcblack
hero.asm (3023): error: Unknown Mnemonic 'ld'.
   3023  0000					      ld	a,%01001011
hero.asm (3024): error: Unknown Mnemonic 'out'.
   3024  0000					      out	(c),a
hero.asm (3025): error: Unknown Mnemonic 'ret'.
   3025  0000					      ret
hero.asm (3026): error: Unknown Mnemonic 'ld'.
   3026  0000				   sbcblack   ld	a,%01010100
hero.asm (3027): error: Unknown Mnemonic 'out'.
   3027  0000					      out	(c),a
hero.asm (3028): error: Unknown Mnemonic 'ret'.
   3028  0000					      ret
   3029  0000
   3030  0000		       00 02	   bmbsndinit equ	2	;3							     
   3031  0000		       00 0f	   bombdly    equ	15	;21
   3032  0000		       00 0b	   boumdlyinit equ	11	;knapp bei shape cutoff
   3033  0000
hero.asm (3034): error: Unknown Mnemonic 'db'.
   3034  0000				   bombsnd    db	bmbsndinit
hero.asm (3035): error: Unknown Mnemonic 'db'.
   3035  0000				   boumctr    db	boumdlyinit
hero.asm (3036): error: Unknown Mnemonic 'db'.
   3036  0000				   bombset    db	0	;0=not set, >0=counter
hero.asm (3037): error: Unknown Mnemonic 'db'.
   3037  0000				   bombscrn   db	0	;bomb set in screen
hero.asm (3038): error: Unknown Mnemonic 'db'.
   3038  0000				   bombx      db	0
hero.asm (3039): error: Unknown Mnemonic 'db'.
   3039  0000				   bomby      db	0
hero.asm (3040): error: Unknown Mnemonic 'db'.
   3040  0000				   bombanm    db	0	;0-3
hero.asm (3041): error: Unknown Mnemonic 'db'.
   3041  0000				   backclr    db	0
   3042  0000
   3043  0000							;-------------------------------------------------------------------------------
   3044  0000							;deletewalls
   3045  0000							;
   3046  0000				   deletewalls
   3047  0000							;calculate x
hero.asm (3048): error: Unknown Mnemonic 'ld'.
   3048  0000					      ld	a,(bombx)
hero.asm (3049): error: Unknown Mnemonic 'srl'.
   3049  0000					      srl	a	;div 2
hero.asm (3050): error: Unknown Mnemonic 'ld'.
   3050  0000					      ld	(bombxdw),a
hero.asm (3051): error: Unknown Mnemonic 'ld'.
   3051  0000					      ld	e,a
hero.asm (3052): error: Unknown Mnemonic 'ld'.
   3052  0000					      ld	a,0
hero.asm (3053): error: Unknown Mnemonic 'ld'.
   3053  0000					      ld	(dltwals),a
hero.asm (3054): error: Unknown Mnemonic 'ld'.
   3054  0000					      ld	a,e
hero.asm (3055): error: Unknown Mnemonic 'ld'.
   3055  0000					      ld	d,0
   3056  0000
   3057  0000							;	     
   3058  0000							;stage 0
   3059  0000							;  
hero.asm (3060): error: Unknown Mnemonic 'ld'.
   3060  0000				   dwst0      ld	hl,(dlwptrb1)
hero.asm (3061): error: Unknown Mnemonic 'add'.
   3061  0000					      add	hl,de
   3062  0000
   3063  0000							;delete walls left  
hero.asm (3064): error: Unknown Mnemonic 'ld'.
   3064  0000					      ld	b,0
hero.asm (3065): error: Unknown Mnemonic 'push'.
   3065  0000					      push	hl
hero.asm (3066): error: Unknown Mnemonic 'ld'.
   3066  0000					      ld	a,(hl)
hero.asm (3067): error: Unknown Mnemonic 'or'.
   3067  0000					      or	a
hero.asm (3068): error: Unknown Mnemonic 'jr'.
   3068  0000					      jr	nz,dw0rt
   3069  0000
hero.asm (3070): error: Unknown Mnemonic 'dec'.
   3070  0000					      dec	hl
hero.asm (3071): error: Unknown Mnemonic 'ld'.
   3071  0000					      ld	a,(hl)
hero.asm (3072): error: Unknown Mnemonic 'or'.
   3072  0000					      or	a
hero.asm (3073): error: Unknown Mnemonic 'jr'.
   3073  0000					      jr	nz,dw04ptcl
hero.asm (3074): error: Unknown Mnemonic 'ld'.
   3074  0000					      ld	a,6
hero.asm (3075): error: Unknown Mnemonic 'ld'.
   3075  0000					      ld	(dwst0ptl+1),a
hero.asm (3076): error: Unknown Mnemonic 'jr'.
   3076  0000					      jr	dw0_2lt
hero.asm (3077): error: Unknown Mnemonic 'ld'.
   3077  0000				   dw04ptcl   ld	a,4
hero.asm (3078): error: Unknown Mnemonic 'ld'.
   3078  0000					      ld	(dwst0ptl+1),a
hero.asm (3079): error: Unknown Mnemonic 'jr'.
   3079  0000					      jr	dw0_1lt
   3080  0000
hero.asm (3081): error: Unknown Mnemonic 'dec'.
   3081  0000				   dw0_2lt    dec	hl
hero.asm (3082): error: Unknown Mnemonic 'dec'.
   3082  0000				   dw0_1lt    dec	hl
hero.asm (3083): error: Unknown Mnemonic 'dec'.
   3083  0000					      dec	hl
hero.asm (3084): error: Unknown Mnemonic 'ld'.
   3084  0000					      ld	a,(hl)
hero.asm (3085): error: Unknown Mnemonic 'or'.
   3085  0000					      or	a
hero.asm (3086): error: Unknown Mnemonic 'jr'.
   3086  0000					      jr	nz,dw0rt
hero.asm (3087): error: Unknown Mnemonic 'inc'.
   3087  0000					      inc	hl
hero.asm (3088): error: Unknown Mnemonic 'ld'.
   3088  0000					      ld	a,(hl)
hero.asm (3089): error: Unknown Mnemonic 'or'.
   3089  0000					      or	a
hero.asm (3090): error: Unknown Mnemonic 'jr'.
   3090  0000					      jr	z,dwst01
hero.asm (3091): error: Unknown Mnemonic 'inc'.
   3091  0000					      inc	b
hero.asm (3092): error: Unknown Mnemonic 'ld'.
   3092  0000					      ld	(hl),0
hero.asm (3093): error: Unknown Mnemonic 'inc'.
   3093  0000				   dwst01     inc	hl
hero.asm (3094): error: Unknown Mnemonic 'ld'.
   3094  0000					      ld	a,(hl)
hero.asm (3095): error: Unknown Mnemonic 'or'.
   3095  0000					      or	a
hero.asm (3096): error: Unknown Mnemonic 'jr'.
   3096  0000					      jr	z,dwst02
hero.asm (3097): error: Unknown Mnemonic 'inc'.
   3097  0000					      inc	b
hero.asm (3098): error: Unknown Mnemonic 'ld'.
   3098  0000					      ld	(hl),0
hero.asm (3099): error: Unknown Mnemonic 'ld'.
   3099  0000				   dwst02     ld	a,b
hero.asm (3100): error: Unknown Mnemonic 'or'.
   3100  0000					      or	a
hero.asm (3101): error: Unknown Mnemonic 'jr'.
   3101  0000					      jr	z,dw0rt
hero.asm (3102): error: Unknown Mnemonic 'ld'.
   3102  0000					      ld	a,(bombxdw)
hero.asm (3103): error: Unknown Mnemonic 'and'.
   3103  0000					      and	a
hero.asm (3104): error: Unknown Mnemonic 'rl'.
   3104  0000					      rl	a
hero.asm (3105): error: Unknown Mnemonic 'sub'.
   3105  0000				   dwst0ptl   sub	4
hero.asm (3106): error: Unknown Mnemonic 'ld'.
   3106  0000					      ld	b,a
hero.asm (3107): error: Unknown Mnemonic 'ld'.
   3107  0000					      ld	c,15+topoffset
hero.asm (3108): error: Unknown Mnemonic 'ld'.
   3108  0000					      ld	de,&2604
hero.asm (3109): error: Unknown Mnemonic 'xor'.
   3109  0000					      xor	a
hero.asm (3110): error: Unknown Mnemonic 'call'.
   3110  0000					      call	fillblock
hero.asm (3111): error: Unknown Mnemonic 'ld'.
   3111  0000					      ld	hl,dltwals
hero.asm (3112): error: Unknown Mnemonic 'inc'.
   3112  0000					      inc	(hl)
   3113  0000
   3114  0000							;delete walls right
hero.asm (3115): error: Unknown Mnemonic 'pop'.
   3115  0000				   dw0rt      pop	hl
hero.asm (3116): error: Unknown Mnemonic 'ld'.
   3116  0000					      ld	b,0
hero.asm (3117): error: Unknown Mnemonic 'inc'.
   3117  0000					      inc	hl
hero.asm (3118): error: Unknown Mnemonic 'ld'.
   3118  0000					      ld	a,(hl)
hero.asm (3119): error: Unknown Mnemonic 'or'.
   3119  0000					      or	a
hero.asm (3120): error: Unknown Mnemonic 'jr'.
   3120  0000					      jr	nz,dwst1
   3121  0000
hero.asm (3122): error: Unknown Mnemonic 'inc'.
   3122  0000					      inc	hl
hero.asm (3123): error: Unknown Mnemonic 'ld'.
   3123  0000					      ld	a,(hl)
hero.asm (3124): error: Unknown Mnemonic 'or'.
   3124  0000					      or	a
hero.asm (3125): error: Unknown Mnemonic 'jr'.
   3125  0000					      jr	nz,dw04ptch
hero.asm (3126): error: Unknown Mnemonic 'ld'.
   3126  0000					      ld	a,6
hero.asm (3127): error: Unknown Mnemonic 'ld'.
   3127  0000					      ld	(dwst0ptc+1),a
hero.asm (3128): error: Unknown Mnemonic 'jr'.
   3128  0000					      jr	dw0_2rt
hero.asm (3129): error: Unknown Mnemonic 'ld'.
   3129  0000				   dw04ptch   ld	a,4
hero.asm (3130): error: Unknown Mnemonic 'ld'.
   3130  0000					      ld	(dwst0ptc+1),a
hero.asm (3131): error: Unknown Mnemonic 'jr'.
   3131  0000					      jr	dw0_1rt
   3132  0000
hero.asm (3133): error: Unknown Mnemonic 'inc'.
   3133  0000				   dw0_2rt    inc	hl
hero.asm (3134): error: Unknown Mnemonic 'inc'.
   3134  0000				   dw0_1rt    inc	hl
hero.asm (3135): error: Unknown Mnemonic 'inc'.
   3135  0000					      inc	hl
hero.asm (3136): error: Unknown Mnemonic 'ld'.
   3136  0000					      ld	a,(hl)
hero.asm (3137): error: Unknown Mnemonic 'or'.
   3137  0000					      or	a
hero.asm (3138): error: Unknown Mnemonic 'jr'.
   3138  0000					      jr	nz,dwst1
hero.asm (3139): error: Unknown Mnemonic 'dec'.
   3139  0000					      dec	hl
hero.asm (3140): error: Unknown Mnemonic 'ld'.
   3140  0000					      ld	a,(hl)
hero.asm (3141): error: Unknown Mnemonic 'or'.
   3141  0000					      or	a
hero.asm (3142): error: Unknown Mnemonic 'jr'.
   3142  0000					      jr	z,dwst03
hero.asm (3143): error: Unknown Mnemonic 'inc'.
   3143  0000					      inc	b
hero.asm (3144): error: Unknown Mnemonic 'ld'.
   3144  0000					      ld	(hl),0
hero.asm (3145): error: Unknown Mnemonic 'dec'.
   3145  0000				   dwst03     dec	hl
hero.asm (3146): error: Unknown Mnemonic 'ld'.
   3146  0000					      ld	a,(hl)
hero.asm (3147): error: Unknown Mnemonic 'or'.
   3147  0000					      or	a
hero.asm (3148): error: Unknown Mnemonic 'jr'.
   3148  0000					      jr	z,dwst04
hero.asm (3149): error: Unknown Mnemonic 'inc'.
   3149  0000					      inc	b
hero.asm (3150): error: Unknown Mnemonic 'ld'.
   3150  0000					      ld	(hl),0
hero.asm (3151): error: Unknown Mnemonic 'ld'.
   3151  0000				   dwst04     ld	a,b
hero.asm (3152): error: Unknown Mnemonic 'or'.
   3152  0000					      or	a
hero.asm (3153): error: Unknown Mnemonic 'jr'.
   3153  0000					      jr	z,dwst1
hero.asm (3154): error: Unknown Mnemonic 'ld'.
   3154  0000					      ld	a,(bombxdw)
hero.asm (3155): error: Unknown Mnemonic 'and'.
   3155  0000					      and	a
hero.asm (3156): error: Unknown Mnemonic 'rl'.
   3156  0000					      rl	a
hero.asm (3157): error: Unknown Mnemonic 'add'.
   3157  0000				   dwst0ptc   add	4
hero.asm (3158): error: Unknown Mnemonic 'ld'.
   3158  0000					      ld	b,a
hero.asm (3159): error: Unknown Mnemonic 'ld'.
   3159  0000					      ld	c,15+topoffset
hero.asm (3160): error: Unknown Mnemonic 'ld'.
   3160  0000					      ld	de,&2604
hero.asm (3161): error: Unknown Mnemonic 'xor'.
   3161  0000					      xor	a
hero.asm (3162): error: Unknown Mnemonic 'call'.
   3162  0000					      call	fillblock
hero.asm (3163): error: Unknown Mnemonic 'ld'.
   3163  0000					      ld	hl,dltwals
hero.asm (3164): error: Unknown Mnemonic 'inc'.
   3164  0000					      inc	(hl)
   3165  0000
   3166  0000							;
   3167  0000							;stage 1
   3168  0000							;			     
hero.asm (3169): error: Unknown Mnemonic 'ld'.
   3169  0000				   dwst1      ld	hl,(dlwptrb2)
hero.asm (3170): error: Unknown Mnemonic 'ld'.
   3170  0000					      ld	a,(bombxdw)
hero.asm (3171): error: Unknown Mnemonic 'ld'.
   3171  0000					      ld	e,a
hero.asm (3172): error: Unknown Mnemonic 'ld'.
   3172  0000					      ld	d,0
hero.asm (3173): error: Unknown Mnemonic 'add'.
   3173  0000					      add	hl,de
   3174  0000
   3175  0000							;delete walls left
hero.asm (3176): error: Unknown Mnemonic 'ld'.
   3176  0000					      ld	b,0
hero.asm (3177): error: Unknown Mnemonic 'push'.
   3177  0000					      push	hl
hero.asm (3178): error: Unknown Mnemonic 'ld'.
   3178  0000					      ld	a,(hl)
hero.asm (3179): error: Unknown Mnemonic 'or'.
   3179  0000					      or	a
hero.asm (3180): error: Unknown Mnemonic 'jr'.
   3180  0000					      jr	nz,dw1rt
hero.asm (3181): error: Unknown Mnemonic 'dec'.
   3181  0000					      dec	hl
hero.asm (3182): error: Unknown Mnemonic 'ld'.
   3182  0000					      ld	a,(hl)
hero.asm (3183): error: Unknown Mnemonic 'or'.
   3183  0000					      or	a
hero.asm (3184): error: Unknown Mnemonic 'jr'.
   3184  0000					      jr	nz,dw14ptcl
hero.asm (3185): error: Unknown Mnemonic 'ld'.
   3185  0000					      ld	a,6
hero.asm (3186): error: Unknown Mnemonic 'ld'.
   3186  0000					      ld	(dwst1ptl+1),a
hero.asm (3187): error: Unknown Mnemonic 'jr'.
   3187  0000					      jr	dw1_2lt
hero.asm (3188): error: Unknown Mnemonic 'ld'.
   3188  0000				   dw14ptcl   ld	a,4
hero.asm (3189): error: Unknown Mnemonic 'ld'.
   3189  0000					      ld	(dwst1ptl+1),a
hero.asm (3190): error: Unknown Mnemonic 'jr'.
   3190  0000					      jr	dw1_1lt
   3191  0000
hero.asm (3192): error: Unknown Mnemonic 'dec'.
   3192  0000				   dw1_2lt    dec	hl
hero.asm (3193): error: Unknown Mnemonic 'dec'.
   3193  0000				   dw1_1lt    dec	hl
hero.asm (3194): error: Unknown Mnemonic 'dec'.
   3194  0000					      dec	hl
hero.asm (3195): error: Unknown Mnemonic 'ld'.
   3195  0000					      ld	a,(hl)
hero.asm (3196): error: Unknown Mnemonic 'or'.
   3196  0000					      or	a
hero.asm (3197): error: Unknown Mnemonic 'jr'.
   3197  0000					      jr	nz,dw1rt
hero.asm (3198): error: Unknown Mnemonic 'inc'.
   3198  0000					      inc	hl
hero.asm (3199): error: Unknown Mnemonic 'ld'.
   3199  0000					      ld	a,(hl)
hero.asm (3200): error: Unknown Mnemonic 'or'.
   3200  0000					      or	a
hero.asm (3201): error: Unknown Mnemonic 'jr'.
   3201  0000					      jr	z,dwst11
hero.asm (3202): error: Unknown Mnemonic 'inc'.
   3202  0000					      inc	b
hero.asm (3203): error: Unknown Mnemonic 'ld'.
   3203  0000					      ld	(hl),0
hero.asm (3204): error: Unknown Mnemonic 'inc'.
   3204  0000				   dwst11     inc	hl
hero.asm (3205): error: Unknown Mnemonic 'ld'.
   3205  0000					      ld	a,(hl)
hero.asm (3206): error: Unknown Mnemonic 'or'.
   3206  0000					      or	a
hero.asm (3207): error: Unknown Mnemonic 'jr'.
   3207  0000					      jr	z,dwst12
hero.asm (3208): error: Unknown Mnemonic 'inc'.
   3208  0000					      inc	b
hero.asm (3209): error: Unknown Mnemonic 'ld'.
   3209  0000					      ld	(hl),0
hero.asm (3210): error: Unknown Mnemonic 'ld'.
   3210  0000				   dwst12     ld	a,b
hero.asm (3211): error: Unknown Mnemonic 'or'.
   3211  0000					      or	a
hero.asm (3212): error: Unknown Mnemonic 'jr'.
   3212  0000					      jr	z,dw1rt
hero.asm (3213): error: Unknown Mnemonic 'ld'.
   3213  0000					      ld	a,(bombxdw)
hero.asm (3214): error: Unknown Mnemonic 'and'.
   3214  0000					      and	a
hero.asm (3215): error: Unknown Mnemonic 'rl'.
   3215  0000					      rl	a
hero.asm (3216): error: Unknown Mnemonic 'sub'.
   3216  0000				   dwst1ptl   sub	4
hero.asm (3217): error: Unknown Mnemonic 'ld'.
   3217  0000					      ld	b,a
hero.asm (3218): error: Unknown Mnemonic 'ld'.
   3218  0000					      ld	c,15+topoffset+39
hero.asm (3219): error: Unknown Mnemonic 'ld'.
   3219  0000					      ld	de,&2604
hero.asm (3220): error: Unknown Mnemonic 'xor'.
   3220  0000					      xor	a
hero.asm (3221): error: Unknown Mnemonic 'call'.
   3221  0000					      call	fillblock
hero.asm (3222): error: Unknown Mnemonic 'ld'.
   3222  0000					      ld	hl,dltwals
hero.asm (3223): error: Unknown Mnemonic 'inc'.
   3223  0000					      inc	(hl)
   3224  0000
   3225  0000							;delete walls right
hero.asm (3226): error: Unknown Mnemonic 'pop'.
   3226  0000				   dw1rt      pop	hl
hero.asm (3227): error: Unknown Mnemonic 'ld'.
   3227  0000					      ld	b,0
hero.asm (3228): error: Unknown Mnemonic 'inc'.
   3228  0000					      inc	hl
hero.asm (3229): error: Unknown Mnemonic 'ld'.
   3229  0000					      ld	a,(hl)
hero.asm (3230): error: Unknown Mnemonic 'or'.
   3230  0000					      or	a
hero.asm (3231): error: Unknown Mnemonic 'jr'.
   3231  0000					      jr	nz,dwst2
   3232  0000
hero.asm (3233): error: Unknown Mnemonic 'inc'.
   3233  0000					      inc	hl
hero.asm (3234): error: Unknown Mnemonic 'ld'.
   3234  0000					      ld	a,(hl)
hero.asm (3235): error: Unknown Mnemonic 'or'.
   3235  0000					      or	a
hero.asm (3236): error: Unknown Mnemonic 'jr'.
   3236  0000					      jr	nz,dw14ptch
hero.asm (3237): error: Unknown Mnemonic 'ld'.
   3237  0000					      ld	a,6
hero.asm (3238): error: Unknown Mnemonic 'ld'.
   3238  0000					      ld	(dwst1ptc+1),a
hero.asm (3239): error: Unknown Mnemonic 'jr'.
   3239  0000					      jr	dw1_2rt
hero.asm (3240): error: Unknown Mnemonic 'ld'.
   3240  0000				   dw14ptch   ld	a,4
hero.asm (3241): error: Unknown Mnemonic 'ld'.
   3241  0000					      ld	(dwst1ptc+1),a
hero.asm (3242): error: Unknown Mnemonic 'jr'.
   3242  0000					      jr	dw1_1rt
   3243  0000
hero.asm (3244): error: Unknown Mnemonic 'inc'.
   3244  0000				   dw1_2rt    inc	hl
hero.asm (3245): error: Unknown Mnemonic 'inc'.
   3245  0000				   dw1_1rt    inc	hl
hero.asm (3246): error: Unknown Mnemonic 'inc'.
   3246  0000					      inc	hl
hero.asm (3247): error: Unknown Mnemonic 'ld'.
   3247  0000					      ld	a,(hl)
hero.asm (3248): error: Unknown Mnemonic 'or'.
   3248  0000					      or	a
hero.asm (3249): error: Unknown Mnemonic 'jr'.
   3249  0000					      jr	nz,dwst2
hero.asm (3250): error: Unknown Mnemonic 'dec'.
   3250  0000					      dec	hl
hero.asm (3251): error: Unknown Mnemonic 'ld'.
   3251  0000					      ld	a,(hl)
hero.asm (3252): error: Unknown Mnemonic 'or'.
   3252  0000					      or	a
hero.asm (3253): error: Unknown Mnemonic 'jr'.
   3253  0000					      jr	z,dwst13
hero.asm (3254): error: Unknown Mnemonic 'inc'.
   3254  0000					      inc	b
hero.asm (3255): error: Unknown Mnemonic 'ld'.
   3255  0000					      ld	(hl),0
hero.asm (3256): error: Unknown Mnemonic 'dec'.
   3256  0000				   dwst13     dec	hl
hero.asm (3257): error: Unknown Mnemonic 'ld'.
   3257  0000					      ld	a,(hl)
hero.asm (3258): error: Unknown Mnemonic 'or'.
   3258  0000					      or	a
hero.asm (3259): error: Unknown Mnemonic 'jr'.
   3259  0000					      jr	z,dwst14
hero.asm (3260): error: Unknown Mnemonic 'inc'.
   3260  0000					      inc	b
hero.asm (3261): error: Unknown Mnemonic 'ld'.
   3261  0000					      ld	(hl),0
hero.asm (3262): error: Unknown Mnemonic 'ld'.
   3262  0000				   dwst14     ld	a,b
hero.asm (3263): error: Unknown Mnemonic 'or'.
   3263  0000					      or	a
hero.asm (3264): error: Unknown Mnemonic 'jr'.
   3264  0000					      jr	z,dwst2
hero.asm (3265): error: Unknown Mnemonic 'ld'.
   3265  0000					      ld	a,(bombxdw)
hero.asm (3266): error: Unknown Mnemonic 'and'.
   3266  0000					      and	a
hero.asm (3267): error: Unknown Mnemonic 'rl'.
   3267  0000					      rl	a
hero.asm (3268): error: Unknown Mnemonic 'add'.
   3268  0000				   dwst1ptc   add	4
hero.asm (3269): error: Unknown Mnemonic 'ld'.
   3269  0000					      ld	b,a
hero.asm (3270): error: Unknown Mnemonic 'ld'.
   3270  0000					      ld	c,15+topoffset+39
hero.asm (3271): error: Unknown Mnemonic 'ld'.
   3271  0000					      ld	de,&2604
hero.asm (3272): error: Unknown Mnemonic 'xor'.
   3272  0000					      xor	a
hero.asm (3273): error: Unknown Mnemonic 'call'.
   3273  0000					      call	fillblock
hero.asm (3274): error: Unknown Mnemonic 'ld'.
   3274  0000					      ld	hl,dltwals
hero.asm (3275): error: Unknown Mnemonic 'inc'.
   3275  0000					      inc	(hl)
   3276  0000
   3277  0000							;					       
   3278  0000							;stage 2
   3279  0000							;	     
hero.asm (3280): error: Unknown Mnemonic 'ld'.
   3280  0000				   dwst2      ld	hl,(dlwptrb3)
hero.asm (3281): error: Unknown Mnemonic 'ld'.
   3281  0000					      ld	a,(bombxdw)
hero.asm (3282): error: Unknown Mnemonic 'ld'.
   3282  0000					      ld	e,a
hero.asm (3283): error: Unknown Mnemonic 'ld'.
   3283  0000					      ld	d,0
hero.asm (3284): error: Unknown Mnemonic 'add'.
   3284  0000					      add	hl,de
   3285  0000
   3286  0000							;delete walls left
hero.asm (3287): error: Unknown Mnemonic 'ld'.
   3287  0000					      ld	b,0
hero.asm (3288): error: Unknown Mnemonic 'push'.
   3288  0000					      push	hl
hero.asm (3289): error: Unknown Mnemonic 'ld'.
   3289  0000					      ld	a,(hl)
hero.asm (3290): error: Unknown Mnemonic 'or'.
   3290  0000					      or	a
hero.asm (3291): error: Unknown Mnemonic 'jr'.
   3291  0000					      jr	nz,dw2rt
hero.asm (3292): error: Unknown Mnemonic 'dec'.
   3292  0000					      dec	hl
hero.asm (3293): error: Unknown Mnemonic 'ld'.
   3293  0000					      ld	a,(hl)
hero.asm (3294): error: Unknown Mnemonic 'or'.
   3294  0000					      or	a
hero.asm (3295): error: Unknown Mnemonic 'jr'.
   3295  0000					      jr	nz,dw24ptcl
hero.asm (3296): error: Unknown Mnemonic 'ld'.
   3296  0000					      ld	a,6
hero.asm (3297): error: Unknown Mnemonic 'ld'.
   3297  0000					      ld	(dwst2ptl+1),a
hero.asm (3298): error: Unknown Mnemonic 'jr'.
   3298  0000					      jr	dw2_2lt
hero.asm (3299): error: Unknown Mnemonic 'ld'.
   3299  0000				   dw24ptcl   ld	a,4
hero.asm (3300): error: Unknown Mnemonic 'ld'.
   3300  0000					      ld	(dwst2ptl+1),a
hero.asm (3301): error: Unknown Mnemonic 'jr'.
   3301  0000					      jr	dw2_1lt
   3302  0000
hero.asm (3303): error: Unknown Mnemonic 'dec'.
   3303  0000				   dw2_2lt    dec	hl
hero.asm (3304): error: Unknown Mnemonic 'dec'.
   3304  0000				   dw2_1lt    dec	hl
hero.asm (3305): error: Unknown Mnemonic 'dec'.
   3305  0000					      dec	hl
hero.asm (3306): error: Unknown Mnemonic 'ld'.
   3306  0000					      ld	a,(hl)
hero.asm (3307): error: Unknown Mnemonic 'or'.
   3307  0000					      or	a
hero.asm (3308): error: Unknown Mnemonic 'jr'.
   3308  0000					      jr	nz,dw2rt
hero.asm (3309): error: Unknown Mnemonic 'inc'.
   3309  0000					      inc	hl
hero.asm (3310): error: Unknown Mnemonic 'ld'.
   3310  0000					      ld	a,(hl)
hero.asm (3311): error: Unknown Mnemonic 'or'.
   3311  0000					      or	a
hero.asm (3312): error: Unknown Mnemonic 'jr'.
   3312  0000					      jr	z,dwst21
hero.asm (3313): error: Unknown Mnemonic 'inc'.
   3313  0000					      inc	b
hero.asm (3314): error: Unknown Mnemonic 'ld'.
   3314  0000					      ld	(hl),0
hero.asm (3315): error: Unknown Mnemonic 'inc'.
   3315  0000				   dwst21     inc	hl
hero.asm (3316): error: Unknown Mnemonic 'ld'.
   3316  0000					      ld	a,(hl)
hero.asm (3317): error: Unknown Mnemonic 'or'.
   3317  0000					      or	a
hero.asm (3318): error: Unknown Mnemonic 'jr'.
   3318  0000					      jr	z,dwst22
hero.asm (3319): error: Unknown Mnemonic 'inc'.
   3319  0000					      inc	b
hero.asm (3320): error: Unknown Mnemonic 'ld'.
   3320  0000					      ld	(hl),0
hero.asm (3321): error: Unknown Mnemonic 'ld'.
   3321  0000				   dwst22     ld	a,b
hero.asm (3322): error: Unknown Mnemonic 'or'.
   3322  0000					      or	a
hero.asm (3323): error: Unknown Mnemonic 'jr'.
   3323  0000					      jr	z,dw2rt
hero.asm (3324): error: Unknown Mnemonic 'ld'.
   3324  0000					      ld	a,(bombxdw)
hero.asm (3325): error: Unknown Mnemonic 'and'.
   3325  0000					      and	a
hero.asm (3326): error: Unknown Mnemonic 'rl'.
   3326  0000					      rl	a
hero.asm (3327): error: Unknown Mnemonic 'sub'.
   3327  0000				   dwst2ptl   sub	4
hero.asm (3328): error: Unknown Mnemonic 'ld'.
   3328  0000					      ld	b,a
hero.asm (3329): error: Unknown Mnemonic 'ld'.
   3329  0000					      ld	c,15+topoffset+39+39
hero.asm (3330): error: Unknown Mnemonic 'ld'.
   3330  0000					      ld	de,&2604
hero.asm (3331): error: Unknown Mnemonic 'xor'.
   3331  0000					      xor	a
hero.asm (3332): error: Unknown Mnemonic 'call'.
   3332  0000					      call	fillblock
hero.asm (3333): error: Unknown Mnemonic 'ld'.
   3333  0000					      ld	hl,dltwals
hero.asm (3334): error: Unknown Mnemonic 'inc'.
   3334  0000					      inc	(hl)
   3335  0000
   3336  0000							;delete walls right
hero.asm (3337): error: Unknown Mnemonic 'pop'.
   3337  0000				   dw2rt      pop	hl
hero.asm (3338): error: Unknown Mnemonic 'ld'.
   3338  0000					      ld	b,0
hero.asm (3339): error: Unknown Mnemonic 'inc'.
   3339  0000					      inc	hl
hero.asm (3340): error: Unknown Mnemonic 'ld'.
   3340  0000					      ld	a,(hl)
hero.asm (3341): error: Unknown Mnemonic 'or'.
   3341  0000					      or	a
hero.asm (3342): error: Unknown Mnemonic 'jr'.
   3342  0000					      jr	nz,dwadpnt
   3343  0000
hero.asm (3344): error: Unknown Mnemonic 'inc'.
   3344  0000					      inc	hl
hero.asm (3345): error: Unknown Mnemonic 'ld'.
   3345  0000					      ld	a,(hl)
hero.asm (3346): error: Unknown Mnemonic 'or'.
   3346  0000					      or	a
hero.asm (3347): error: Unknown Mnemonic 'jr'.
   3347  0000					      jr	nz,dw24ptch
hero.asm (3348): error: Unknown Mnemonic 'ld'.
   3348  0000					      ld	a,6
hero.asm (3349): error: Unknown Mnemonic 'ld'.
   3349  0000					      ld	(dwst2ptc+1),a
hero.asm (3350): error: Unknown Mnemonic 'jr'.
   3350  0000					      jr	dw2_2rt
hero.asm (3351): error: Unknown Mnemonic 'ld'.
   3351  0000				   dw24ptch   ld	a,4
hero.asm (3352): error: Unknown Mnemonic 'ld'.
   3352  0000					      ld	(dwst2ptc+1),a
hero.asm (3353): error: Unknown Mnemonic 'jr'.
   3353  0000					      jr	dw2_1rt
   3354  0000
hero.asm (3355): error: Unknown Mnemonic 'inc'.
   3355  0000				   dw2_2rt    inc	hl
hero.asm (3356): error: Unknown Mnemonic 'inc'.
   3356  0000				   dw2_1rt    inc	hl
hero.asm (3357): error: Unknown Mnemonic 'inc'.
   3357  0000					      inc	hl
hero.asm (3358): error: Unknown Mnemonic 'ld'.
   3358  0000					      ld	a,(hl)
hero.asm (3359): error: Unknown Mnemonic 'or'.
   3359  0000					      or	a
hero.asm (3360): error: Unknown Mnemonic 'jr'.
   3360  0000					      jr	nz,dwadpnt
hero.asm (3361): error: Unknown Mnemonic 'dec'.
   3361  0000					      dec	hl
hero.asm (3362): error: Unknown Mnemonic 'ld'.
   3362  0000					      ld	a,(hl)
hero.asm (3363): error: Unknown Mnemonic 'or'.
   3363  0000					      or	a
hero.asm (3364): error: Unknown Mnemonic 'jr'.
   3364  0000					      jr	z,dwst23
hero.asm (3365): error: Unknown Mnemonic 'inc'.
   3365  0000					      inc	b
hero.asm (3366): error: Unknown Mnemonic 'ld'.
   3366  0000					      ld	(hl),0
hero.asm (3367): error: Unknown Mnemonic 'dec'.
   3367  0000				   dwst23     dec	hl
hero.asm (3368): error: Unknown Mnemonic 'ld'.
   3368  0000					      ld	a,(hl)
hero.asm (3369): error: Unknown Mnemonic 'or'.
   3369  0000					      or	a
hero.asm (3370): error: Unknown Mnemonic 'jr'.
   3370  0000					      jr	z,dwst24
hero.asm (3371): error: Unknown Mnemonic 'inc'.
   3371  0000					      inc	b
hero.asm (3372): error: Unknown Mnemonic 'ld'.
   3372  0000					      ld	(hl),0
hero.asm (3373): error: Unknown Mnemonic 'ld'.
   3373  0000				   dwst24     ld	a,b
hero.asm (3374): error: Unknown Mnemonic 'or'.
   3374  0000					      or	a
hero.asm (3375): error: Unknown Mnemonic 'ret'.
   3375  0000					      ret	z
hero.asm (3376): error: Unknown Mnemonic 'ld'.
   3376  0000					      ld	a,(bombxdw)
hero.asm (3377): error: Unknown Mnemonic 'and'.
   3377  0000					      and	a
hero.asm (3378): error: Unknown Mnemonic 'rl'.
   3378  0000					      rl	a
hero.asm (3379): error: Unknown Mnemonic 'add'.
   3379  0000				   dwst2ptc   add	4
hero.asm (3380): error: Unknown Mnemonic 'ld'.
   3380  0000					      ld	b,a
hero.asm (3381): error: Unknown Mnemonic 'ld'.
   3381  0000					      ld	c,15+topoffset+39+39
hero.asm (3382): error: Unknown Mnemonic 'ld'.
   3382  0000					      ld	de,&2604
hero.asm (3383): error: Unknown Mnemonic 'xor'.
   3383  0000					      xor	a
hero.asm (3384): error: Unknown Mnemonic 'call'.
   3384  0000					      call	fillblock
hero.asm (3385): error: Unknown Mnemonic 'ld'.
   3385  0000					      ld	hl,dltwals
hero.asm (3386): error: Unknown Mnemonic 'inc'.
   3386  0000					      inc	(hl)
   3387  0000
   3388  0000							;add points, if a wall was deleted
hero.asm (3389): error: Unknown Mnemonic 'ld'.
   3389  0000				   dwadpnt    ld	a,(dltwals)
hero.asm (3390): error: Unknown Mnemonic 'or'.
   3390  0000					      or	a
hero.asm (3391): error: Unknown Mnemonic 'ret'.
   3391  0000					      ret	z
hero.asm (3392): error: Unknown Mnemonic 'ld'.
   3392  0000					      ld	c,&75
hero.asm (3393): error: Unknown Mnemonic 'call'.
   3393  0000					      call	addpoints
hero.asm (3394): error: Unknown Mnemonic 'call'.
   3394  0000					      call	drawscore
hero.asm (3395): error: Unknown Mnemonic 'ret'.
   3395  0000					      ret
   3396  0000
hero.asm (3397): error: Unknown Mnemonic 'db'.
   3397  0000				   bombxdw    db	0
hero.asm (3398): error: Unknown Mnemonic 'db'.
   3398  0000				   dltwals    db	0
hero.asm (3399): error: Unknown Mnemonic 'dw'.
   3399  0000				   dlwptrb1   dw	0
hero.asm (3400): error: Unknown Mnemonic 'dw'.
   3400  0000				   dlwptrb2   dw	0
hero.asm (3401): error: Unknown Mnemonic 'dw'.
   3401  0000				   dlwptrb3   dw	0
   3402  0000
   3403  0000							;-------------------------------------------------------------------------------
   3404  0000							;setupcrtc
   3405  0000							;
   3406  0000				   setupcrtc
hero.asm (3407): error: Unknown Mnemonic 'ld'.
   3407  0000					      ld	d,0
hero.asm (3408): error: Unknown Mnemonic 'ld'.
   3408  0000					      ld	hl,crtc
   3409  0000
hero.asm (3410): error: Unknown Mnemonic 'ld'.
   3410  0000				   scrtlp     ld	b,&bc
hero.asm (3411): error: Unknown Mnemonic 'out'.
   3411  0000					      out	(c),d
hero.asm (3412): error: Unknown Mnemonic 'ld'.
   3412  0000					      ld	b,&bd
hero.asm (3413): error: Unknown Mnemonic 'ld'.
   3413  0000					      ld	a,(hl)
hero.asm (3414): error: Unknown Mnemonic 'out'.
   3414  0000					      out	(c),a
hero.asm (3415): error: Unknown Mnemonic 'inc'.
   3415  0000					      inc	hl
hero.asm (3416): error: Unknown Mnemonic 'inc'.
   3416  0000					      inc	d
hero.asm (3417): error: Unknown Mnemonic 'ld'.
   3417  0000					      ld	a,d
hero.asm (3418): error: Unknown Mnemonic 'cp'.
   3418  0000					      cp	14
hero.asm (3419): error: Unknown Mnemonic 'jr'.
   3419  0000					      jr	nz,scrtlp
   3420  0000
hero.asm (3421): error: Unknown Mnemonic 'ret'.
   3421  0000					      ret
   3422  0000
hero.asm (3423): error: Unknown Mnemonic 'db'.
   3423  0000				   crtc       db	&3f,&28,&2e,&8e,&28,&06,&16,&1e,&00,&07,&00,&00,&30,&78
   3424  0000
   3425  0000							;-------------------------------------------------------------------------------
   3426  0000							;setupytab
   3427  0000							;
   3428  0000				   setupytab
hero.asm (3429): error: Unknown Mnemonic 'ld'.
   3429  0000					      ld	hl,ytab
hero.asm (3430): error: Unknown Mnemonic 'ld'.
   3430  0000					      ld	c,0
   3431  0000
hero.asm (3432): error: Unknown Mnemonic 'push'.
   3432  0000				   sytlop1    push	bc
hero.asm (3433): error: Unknown Mnemonic 'push'.
   3433  0000					      push	hl
hero.asm (3434): error: Unknown Mnemonic 'ld'.
   3434  0000					      ld	a,c	;8er-rasterzeile in h addieren
hero.asm (3435): error: Unknown Mnemonic 'and'.
   3435  0000					      and	7
hero.asm (3436): error: Unknown Mnemonic 'jr'.
   3436  0000					      jr	z,syt2
hero.asm (3437): error: Unknown Mnemonic 'ld'.
   3437  0000					      ld	b,a
hero.asm (3438): error: Unknown Mnemonic 'xor'.
   3438  0000					      xor	a
hero.asm (3439): error: Unknown Mnemonic 'add'.
   3439  0000				   sytshft1   add	8
hero.asm (3440): error: Unknown Mnemonic 'djnz'.
   3440  0000					      djnz	sytshft1
hero.asm (3441): error: Unknown Mnemonic 'ld'.
   3441  0000				   syt2       ld	h,a
   3442  0000
hero.asm (3443): error: Unknown Mnemonic 'ld'.
   3443  0000					      ld	a,c	;1er-rasterzeile in l,h addieren
hero.asm (3444): error: Unknown Mnemonic 'srl'.
   3444  0000					      srl	a	;a=a div 8
hero.asm (3445): error: Unknown Mnemonic 'srl'.
   3445  0000					      srl	a
hero.asm (3446): error: Unknown Mnemonic 'srl'.
   3446  0000					      srl	a
hero.asm (3447): error: Unknown Mnemonic 'jr'.
   3447  0000					      jr	z,sytmsksc
hero.asm (3448): error: Unknown Mnemonic 'ld'.
   3448  0000					      ld	b,a
hero.asm (3449): error: Unknown Mnemonic 'xor'.
   3449  0000					      xor	a
hero.asm (3450): error: Unknown Mnemonic 'add'.
   3450  0000				   sytshft2   add	80
hero.asm (3451): error: Unknown Mnemonic 'jr'.
   3451  0000					      jr	c,inchsyt
hero.asm (3452): error: Unknown Mnemonic 'djnz'.
   3452  0000					      djnz	sytshft2
hero.asm (3453): error: Unknown Mnemonic 'jr'.
   3453  0000					      jr	sytmsksc
hero.asm (3454): error: Unknown Mnemonic 'inc'.
   3454  0000				   inchsyt    inc	h
hero.asm (3455): error: Unknown Mnemonic 'djnz'.
   3455  0000					      djnz	sytshft2
   3456  0000
hero.asm (3457): error: Unknown Mnemonic 'ld'.
   3457  0000				   sytmsksc   ld	l,a	;hl=screen pos
hero.asm (3458): error: Unknown Mnemonic 'ld'.
   3458  0000					      ld	a,h
hero.asm (3459): error: Unknown Mnemonic 'and'.
   3459  0000					      and	&3f
hero.asm (3460): error: Unknown Mnemonic 'ld'.
   3460  0000					      ld	h,a
   3461  0000
hero.asm (3462): error: Unknown Mnemonic 'ex'.
   3462  0000					      ex	de,hl
hero.asm (3463): error: Unknown Mnemonic 'pop'.
   3463  0000					      pop	hl
hero.asm (3464): error: Unknown Mnemonic 'ld'.
   3464  0000					      ld	(hl),e
hero.asm (3465): error: Unknown Mnemonic 'inc'.
   3465  0000					      inc	hl
hero.asm (3466): error: Unknown Mnemonic 'ld'.
   3466  0000					      ld	(hl),d
hero.asm (3467): error: Unknown Mnemonic 'inc'.
   3467  0000					      inc	hl
hero.asm (3468): error: Unknown Mnemonic 'pop'.
   3468  0000					      pop	bc
hero.asm (3469): error: Unknown Mnemonic 'inc'.
   3469  0000					      inc	c
hero.asm (3470): error: Unknown Mnemonic 'ld'.
   3470  0000					      ld	a,c
hero.asm (3471): error: Unknown Mnemonic 'cp'.
   3471  0000					      cp	255
hero.asm (3472): error: Unknown Mnemonic 'ret'.
   3472  0000					      ret	z
hero.asm (3473): error: Unknown Mnemonic 'jr'.
   3473  0000					      jr	sytlop1
   3474  0000
hero.asm (3475): error: Unknown Mnemonic 'ret'.
   3475  0000					      ret
   3476  0000
   3477  0000							;-------------------------------------------------------------------------------
   3478  0000							;swapscroutput
   3479  0000							;
   3480  0000				   swapscroutput
hero.asm (3481): error: Unknown Mnemonic 'ld'.
   3481  0000					      ld	a,(scrswp1+1)
hero.asm (3482): error: Unknown Mnemonic 'cp'.
   3482  0000					      cp	&c0
hero.asm (3483): error: Unknown Mnemonic 'jr'.
   3483  0000					      jr	nz,scoswap1
hero.asm (3484): error: Unknown Mnemonic 'ld'.
   3484  0000					      ld	a,&80
hero.asm (3485): error: Unknown Mnemonic 'jr'.
   3485  0000					      jr	scoswap2
hero.asm (3486): error: Unknown Mnemonic 'ld'.
   3486  0000				   scoswap1   ld	a,&c0
hero.asm (3487): error: Unknown Mnemonic 'ld'.
   3487  0000				   scoswap2   ld	(scrswp1+1),a
hero.asm (3488): error: Unknown Mnemonic 'ld'.
   3488  0000					      ld	(scrswp2+1),a
hero.asm (3489): error: Unknown Mnemonic 'ld'.
   3489  0000					      ld	(scrswp3+1),a
hero.asm (3490): error: Unknown Mnemonic 'ld'.
   3490  0000					      ld	(scrswp4+1),a
hero.asm (3491): error: Unknown Mnemonic 'ld'.
   3491  0000					      ld	(scrswp5+1),a
hero.asm (3492): error: Unknown Mnemonic 'ld'.
   3492  0000					      ld	(scrswp6+1),a
hero.asm (3493): error: Unknown Mnemonic 'ld'.
   3493  0000					      ld	(scrswp7+1),a
hero.asm (3494): error: Unknown Mnemonic 'ld'.
   3494  0000					      ld	(scrswp8+1),a
hero.asm (3495): error: Unknown Mnemonic 'ret'.
   3495  0000					      ret
   3496  0000
   3497  0000							;-------------------------------------------------------------------------------
   3498  0000							;swapscreen
   3499  0000							;
   3500  0000				   swapscreen
hero.asm (3501): error: Unknown Mnemonic 'ld'.
   3501  0000					      ld	a,(scrswp1+1)
hero.asm (3502): error: Unknown Mnemonic 'cp'.
   3502  0000					      cp	&c0
hero.asm (3503): error: Unknown Mnemonic 'jr'.
   3503  0000					      jr	nz,ssswap1
hero.asm (3504): error: Unknown Mnemonic 'ld'.
   3504  0000					      ld	a,&30
hero.asm (3505): error: Unknown Mnemonic 'jr'.
   3505  0000					      jr	ssswap2
hero.asm (3506): error: Unknown Mnemonic 'ld'.
   3506  0000				   ssswap1    ld	a,&20
hero.asm (3507): error: Unknown Mnemonic 'ld'.
   3507  0000				   ssswap2    ld	bc,&bc0c
hero.asm (3508): error: Unknown Mnemonic 'out'.
   3508  0000					      out	(c),c
hero.asm (3509): error: Unknown Mnemonic 'ld'.
   3509  0000					      ld	bc,&bd00
hero.asm (3510): error: Unknown Mnemonic 'out'.
   3510  0000					      out	(c),a
hero.asm (3511): error: Unknown Mnemonic 'ret'.
   3511  0000					      ret
   3512  0000
   3513  0000							;-------------------------------------------------------------------------------
   3514  0000							;setuplevel
   3515  0000							;
   3516  0000		       00 3f	   initialwallstrength equ	%00111111
   3517  0000		       00 40	   bottomwater equ	%01000000
   3518  0000		       00 80	   flashingwall equ	%10000000
   3519  0000
   3520  0000				   setuplevel
hero.asm (3521): error: Unknown Mnemonic 'xor'.
   3521  0000					      xor	a	;current screen is 0 (top of level)
hero.asm (3522): error: Unknown Mnemonic 'ld'.
   3522  0000					      ld	(curscrn),a
   3523  0000
hero.asm (3524): error: Unknown Mnemonic 'ld'.
   3524  0000					      ld	hl,(pnextlev)
hero.asm (3525): error: Unknown Mnemonic 'ld'.
   3525  0000					      ld	(pcurlev),hl
   3526  0000
hero.asm (3527): error: Unknown Mnemonic 'ld'.
   3527  0000					      ld	de,curlevel	;set working pointer
hero.asm (3528): error: Unknown Mnemonic 'inc'.
   3528  0000					      inc	de
hero.asm (3529): error: Unknown Mnemonic 'ld'.
   3529  0000					      ld	(clvptrb1),de	;set current screen pointer
hero.asm (3530): error: Unknown Mnemonic 'dec'.
   3530  0000					      dec	de
hero.asm (3531): error: Unknown Mnemonic 'ld'.
   3531  0000					      ld	a,(hl)	;copy current level number...
hero.asm (3532): error: Unknown Mnemonic 'ld'.
   3532  0000					      ld	(curlvnbr),a	;...in memory
hero.asm (3533): error: Unknown Mnemonic 'inc'.
   3533  0000					      inc	hl
hero.asm (3534): error: Unknown Mnemonic 'ld'.
   3534  0000					      ld	b,(hl)	;screens in level
hero.asm (3535): error: Unknown Mnemonic 'inc'.
   3535  0000					      inc	hl
   3536  0000
hero.asm (3537): error: Unknown Mnemonic 'push'.
   3537  0000				   slrep4     push	bc
   3538  0000
hero.asm (3539): error: Unknown Mnemonic 'push'.
   3539  0000					      push	hl
hero.asm (3540): error: Unknown Mnemonic 'push'.
   3540  0000					      push	de
   3541  0000							;init crushcode?
hero.asm (3542): error: Unknown Mnemonic 'ld'.
   3542  0000					      ld	de,17
hero.asm (3543): error: Unknown Mnemonic 'add'.
   3543  0000					      add	hl,de
hero.asm (3544): error: Unknown Mnemonic 'ld'.
   3544  0000					      ld	a,(hl)
hero.asm (3545): error: Unknown Mnemonic 'and'.
   3545  0000					      and	wall_mask_crush
hero.asm (3546): error: Unknown Mnemonic 'or'.
   3546  0000					      or	a
hero.asm (3547): error: Unknown Mnemonic 'jr'.
   3547  0000					      jr	z,nocrushi
hero.asm (3548): error: Unknown Mnemonic 'ld'.
   3548  0000					      ld	a,%10000000	;crushflag
hero.asm (3549): error: Unknown Mnemonic 'jr'.
   3549  0000					      jr	chkflwls
hero.asm (3550): error: Unknown Mnemonic 'ld'.
   3550  0000				   nocrushi   ld	a,0
hero.asm (3551): error: Unknown Mnemonic 'ld'.
   3551  0000				   chkflwls   ld	(crshptch+1),a
   3552  0000							;flashing walls?
hero.asm (3553): error: Unknown Mnemonic 'ld'.
   3553  0000					      ld	a,(hl)
hero.asm (3554): error: Unknown Mnemonic 'and'.
   3554  0000					      and	wall_mask_flash
hero.asm (3555): error: Unknown Mnemonic 'or'.
   3555  0000					      or	a
hero.asm (3556): error: Unknown Mnemonic 'jr'.
   3556  0000					      jr	z,slptchno
hero.asm (3557): error: Unknown Mnemonic 'ld'.
   3557  0000					      ld	a,initialwallstrength or flashingwall
hero.asm (3558): error: Unknown Mnemonic 'jr'.
   3558  0000					      jr	slptchgo
hero.asm (3559): error: Unknown Mnemonic 'ld'.
   3559  0000				   slptchno   ld	a,initialwallstrength
hero.asm (3560): error: Unknown Mnemonic 'ld'.
   3560  0000				   slptchgo   ld	(slptchfw+1),a
   3561  0000							;water bottom
hero.asm (3562): error: Unknown Mnemonic 'ld'.
   3562  0000					      ld	a,(hl)
hero.asm (3563): error: Unknown Mnemonic 'and'.
   3563  0000					      and	item_bottm_water
hero.asm (3564): error: Unknown Mnemonic 'or'.
   3564  0000					      or	a
hero.asm (3565): error: Unknown Mnemonic 'jr'.
   3565  0000					      jr	z,slptc2no
hero.asm (3566): error: Unknown Mnemonic 'ld'.
   3566  0000					      ld	a,0 or bottomwater
hero.asm (3567): error: Unknown Mnemonic 'jr'.
   3567  0000					      jr	slptc2go
hero.asm (3568): error: Unknown Mnemonic 'ld'.
   3568  0000				   slptc2no   ld	a,0
hero.asm (3569): error: Unknown Mnemonic 'ld'.
   3569  0000				   slptc2go   ld	(slptchbw+1),a
   3570  0000							;setup level colour
hero.asm (3571): error: Unknown Mnemonic 'ld'.
   3571  0000					      ld	hl,levelcolourtab
hero.asm (3572): error: Unknown Mnemonic 'ld'.
   3572  0000					      ld	a,(levelcoltabptr)
hero.asm (3573): error: Unknown Mnemonic 'ld'.
   3573  0000					      ld	e,a
hero.asm (3574): error: Unknown Mnemonic 'ld'.
   3574  0000					      ld	d,0
   3575  0000
hero.asm (3576): error: Unknown Mnemonic 'push'.
   3576  0000					      push	hl	;patch water colour
hero.asm (3577): error: Unknown Mnemonic 'ld'.
   3577  0000					      ld	hl,watercolourtab
hero.asm (3578): error: Unknown Mnemonic 'add'.
   3578  0000					      add	hl,de
hero.asm (3579): error: Unknown Mnemonic 'ld'.
   3579  0000					      ld	a,(hl)
hero.asm (3580): error: Unknown Mnemonic 'ld'.
   3580  0000					      ld	(d3blkwt2+1),a
hero.asm (3581): error: Unknown Mnemonic 'pop'.
   3581  0000					      pop	hl
   3582  0000
hero.asm (3583): error: Unknown Mnemonic 'add'.
   3583  0000					      add	hl,de
hero.asm (3584): error: Unknown Mnemonic 'pop'.
   3584  0000					      pop	de
hero.asm (3585): error: Unknown Mnemonic 'ld'.
   3585  0000					      ld	a,(hl)
hero.asm (3586): error: Unknown Mnemonic 'ld'.
   3586  0000					      ld	(de),a
hero.asm (3587): error: Unknown Mnemonic 'inc'.
   3587  0000					      inc	de
hero.asm (3588): error: Unknown Mnemonic 'pop'.
   3588  0000					      pop	hl
   3589  0000
   3590  0000							;prepare new level
hero.asm (3591): error: Unknown Mnemonic 'ld'.
   3591  0000					      ld	b,3	;3 block lines
hero.asm (3592): error: Unknown Mnemonic 'ld'.
   3592  0000				   slrep3     ld	yl,b
hero.asm (3593): error: Unknown Mnemonic 'push'.
   3593  0000					      push	bc
hero.asm (3594): error: Unknown Mnemonic 'ld'.
   3594  0000					      ld	b,5	;5 bytes -> 1 block line 
hero.asm (3595): error: Unknown Mnemonic 'push'.
   3595  0000				   slrep2     push	bc
hero.asm (3596): error: Unknown Mnemonic 'ld'.
   3596  0000					      ld	b,8
hero.asm (3597): error: Unknown Mnemonic 'ld'.
   3597  0000					      ld	a,(hl)
hero.asm (3598): error: Unknown Mnemonic 'rlc'.
   3598  0000				   slrep1     rlc	a
hero.asm (3599): error: Unknown Mnemonic 'jr'.
   3599  0000					      jr	nc,slnocry
hero.asm (3600): error: Unknown Mnemonic 'push'.
   3600  0000					      push	af
hero.asm (3601): error: Unknown Mnemonic 'ld'.
   3601  0000					      ld	a,yl
hero.asm (3602): error: Unknown Mnemonic 'cp'.
   3602  0000					      cp	2
hero.asm (3603): error: Unknown Mnemonic 'jr'.
   3603  0000					      jr	nz,slsetbtb
hero.asm (3604): error: Unknown Mnemonic 'pop'.
   3604  0000					      pop	af
hero.asm (3605): error: Unknown Mnemonic 'ld'.
   3605  0000				   slptchfw   ld	c,initialwallstrength	;stage 2
hero.asm (3606): error: Unknown Mnemonic 'jr'.
   3606  0000					      jr	slsetbyt
hero.asm (3607): error: Unknown Mnemonic 'pop'.
   3607  0000				   slsetbtb   pop	af
hero.asm (3608): error: Unknown Mnemonic 'ld'.
   3608  0000					      ld	c,initialwallstrength	;stage 1
hero.asm (3609): error: Unknown Mnemonic 'jr'.
   3609  0000					      jr	slsetbyt
   3610  0000
hero.asm (3611): error: Unknown Mnemonic 'push'.
   3611  0000				   slnocry    push	af
hero.asm (3612): error: Unknown Mnemonic 'ld'.
   3612  0000					      ld	a,yl
hero.asm (3613): error: Unknown Mnemonic 'cp'.
   3613  0000					      cp	1
hero.asm (3614): error: Unknown Mnemonic 'jr'.
   3614  0000					      jr	nz,slnocry2
hero.asm (3615): error: Unknown Mnemonic 'ld'.
   3615  0000				   slptchbw   ld	c,0	;stage 3
hero.asm (3616): error: Unknown Mnemonic 'jr'.
   3616  0000					      jr	slsetbt2
hero.asm (3617): error: Unknown Mnemonic 'ld'.
   3617  0000				   slnocry2   ld	c,0
hero.asm (3618): error: Unknown Mnemonic 'pop'.
   3618  0000				   slsetbt2   pop	af
hero.asm (3619): error: Unknown Mnemonic 'push'.
   3619  0000				   slsetbyt   push	af
hero.asm (3620): error: Unknown Mnemonic 'ld'.
   3620  0000					      ld	a,c
hero.asm (3621): error: Unknown Mnemonic 'ld'.
   3621  0000					      ld	(de),a
hero.asm (3622): error: Unknown Mnemonic 'inc'.
   3622  0000					      inc	de
hero.asm (3623): error: Unknown Mnemonic 'pop'.
   3623  0000					      pop	af
hero.asm (3624): error: Unknown Mnemonic 'djnz'.
   3624  0000					      djnz	slrep1
hero.asm (3625): error: Unknown Mnemonic 'pop'.
   3625  0000					      pop	bc
hero.asm (3626): error: Unknown Mnemonic 'inc'.
   3626  0000					      inc	hl
hero.asm (3627): error: Unknown Mnemonic 'djnz'.
   3627  0000					      djnz	slrep2
hero.asm (3628): error: Unknown Mnemonic 'pop'.
   3628  0000					      pop	bc
hero.asm (3629): error: Unknown Mnemonic 'djnz'.
   3629  0000					      djnz	slrep3
   3630  0000
   3631  0000							;direction bytes
hero.asm (3632): error: Unknown Mnemonic 'ld'.
   3632  0000					      ld	b,2
hero.asm (3633): error: Unknown Mnemonic 'ld'.
   3633  0000				   cpdirdat   ld	a,(hl)
hero.asm (3634): error: Unknown Mnemonic 'and'.
   3634  0000					      and	%11110000
hero.asm (3635): error: Unknown Mnemonic 'srl'.
   3635  0000					      srl	a
hero.asm (3636): error: Unknown Mnemonic 'srl'.
   3636  0000					      srl	a
hero.asm (3637): error: Unknown Mnemonic 'srl'.
   3637  0000					      srl	a
hero.asm (3638): error: Unknown Mnemonic 'srl'.
   3638  0000					      srl	a
hero.asm (3639): error: Unknown Mnemonic 'inc'.
   3639  0000					      inc	a
hero.asm (3640): error: Unknown Mnemonic 'or'.
   3640  0000				   crshptch   or	%00000000	;patch crush code
hero.asm (3641): error: Unknown Mnemonic 'ld'.
   3641  0000					      ld	(de),a
hero.asm (3642): error: Unknown Mnemonic 'inc'.
   3642  0000					      inc	de
hero.asm (3643): error: Unknown Mnemonic 'ld'.
   3643  0000					      ld	a,(hl)
hero.asm (3644): error: Unknown Mnemonic 'and'.
   3644  0000					      and	%00001111
hero.asm (3645): error: Unknown Mnemonic 'inc'.
   3645  0000					      inc	a
hero.asm (3646): error: Unknown Mnemonic 'ld'.
   3646  0000					      ld	(de),a
hero.asm (3647): error: Unknown Mnemonic 'inc'.
   3647  0000					      inc	de
hero.asm (3648): error: Unknown Mnemonic 'inc'.
   3648  0000					      inc	hl
hero.asm (3649): error: Unknown Mnemonic 'djnz'.
   3649  0000					      djnz	cpdirdat
   3650  0000
   3651  0000							;crush position
hero.asm (3652): error: Unknown Mnemonic 'xor'.
   3652  0000					      xor	a
hero.asm (3653): error: Unknown Mnemonic 'ld'.
   3653  0000					      ld	(de),a
hero.asm (3654): error: Unknown Mnemonic 'inc'.
   3654  0000					      inc	de
   3655  0000
hero.asm (3656): error: Unknown Mnemonic 'ld'.
   3656  0000					      ld	b,items
hero.asm (3657): error: Unknown Mnemonic 'push'.
   3657  0000				   slsetitm   push	bc
hero.asm (3658): error: Unknown Mnemonic 'ld'.
   3658  0000					      ld	a,(hl)
hero.asm (3659): error: Unknown Mnemonic 'and'.
   3659  0000					      and	item_mask_out
hero.asm (3660): error: Unknown Mnemonic 'inc'.
   3660  0000					      inc	hl
hero.asm (3661): error: Unknown Mnemonic 'ld'.
   3661  0000					      ld	(de),a
hero.asm (3662): error: Unknown Mnemonic 'inc'.
   3662  0000					      inc	de
hero.asm (3663): error: Unknown Mnemonic 'cp'.
   3663  0000					      cp	item_lantern_on
hero.asm (3664): error: Unknown Mnemonic 'jr'.
   3664  0000					      jr	z,setuplantern
hero.asm (3665): error: Unknown Mnemonic 'cp'.
   3665  0000					      cp	item_spider
hero.asm (3666): error: Unknown Mnemonic 'jr'.
   3666  0000					      jr	z,setupspider
hero.asm (3667): error: Unknown Mnemonic 'cp'.
   3667  0000					      cp	item_moth
hero.asm (3668): error: Unknown Mnemonic 'jr'.
   3668  0000					      jr	z,setupmoth
hero.asm (3669): error: Unknown Mnemonic 'cp'.
   3669  0000					      cp	item_bat
hero.asm (3670): error: Unknown Mnemonic 'jr'.
   3670  0000					      jr	z,setupbat
hero.asm (3671): error: Unknown Mnemonic 'cp'.
   3671  0000					      cp	item_miner_rt
hero.asm (3672): error: Unknown Mnemonic 'jr'.
   3672  0000					      jr	z,setupminerright
hero.asm (3673): error: Unknown Mnemonic 'cp'.
   3673  0000					      cp	item_miner_lt
hero.asm (3674): error: Unknown Mnemonic 'jr'.
   3674  0000					      jr	z,setupminerleft
hero.asm (3675): error: Unknown Mnemonic 'cp'.
   3675  0000					      cp	item_snake
hero.asm (3676): error: Unknown Mnemonic 'jr'.
   3676  0000					      jr	z,setupsnake
hero.asm (3677): error: Unknown Mnemonic 'cp'.
   3677  0000					      cp	item_raft
hero.asm (3678): error: Unknown Mnemonic 'jr'.
   3678  0000					      jr	z,setupraft
hero.asm (3679): error: Unknown Mnemonic 'cp'.
   3679  0000					      cp	item_tentacle
hero.asm (3680): error: Unknown Mnemonic 'jr'.
   3680  0000					      jr	z,setuptentacle
   3681  0000
   3682  0000							;
   3683  0000							;setup other stuff here
   3684  0000							;
hero.asm (3685): error: Unknown Mnemonic 'push'.
   3685  0000					      push	hl
hero.asm (3686): error: Unknown Mnemonic 'xor'.
   3686  0000					      xor	a
hero.asm (3687): error: Unknown Mnemonic 'ld'.
   3687  0000					      ld	(de),a
hero.asm (3688): error: Unknown Mnemonic 'push'.
   3688  0000					      push	de
hero.asm (3689): error: Unknown Mnemonic 'pop'.
   3689  0000					      pop	hl
hero.asm (3690): error: Unknown Mnemonic 'inc'.
   3690  0000					      inc	de
hero.asm (3691): error: Unknown Mnemonic 'ld'.
   3691  0000					      ld	bc,itemrecsize-2
hero.asm (3692): error: Unknown Mnemonic 'ldir'.
   3692  0000					      ldir
hero.asm (3693): error: Unknown Mnemonic 'pop'.
   3693  0000					      pop	hl
   3694  0000
hero.asm (3695): error: Unknown Mnemonic 'pop'.
   3695  0000				   slnext     pop	bc
hero.asm (3696): error: Unknown Mnemonic 'djnz'.
   3696  0000					      djnz	slsetitm
   3697  0000
hero.asm (3698): error: Unknown Mnemonic 'pop'.
   3698  0000					      pop	bc
hero.asm (3699): error: Unknown Mnemonic 'djnz'.
   3699  0000					      djnz	slrept
hero.asm (3700): error: Unknown Mnemonic 'jr'.
   3700  0000					      jr	slgah
hero.asm (3701): error: Unknown Mnemonic 'jp'.
   3701  0000				   slrept     jp	slrep4
   3702  0000
hero.asm (3703): error: Unknown Mnemonic 'ld'.
   3703  0000				   slgah      ld	(pnextlev),hl
hero.asm (3704): error: Unknown Mnemonic 'ld'.
   3704  0000					      ld	hl,(clvptrb1)
hero.asm (3705): error: Unknown Mnemonic 'ld'.
   3705  0000					      ld	de,40
hero.asm (3706): error: Unknown Mnemonic 'add'.
   3706  0000					      add	hl,de
hero.asm (3707): error: Unknown Mnemonic 'ld'.
   3707  0000					      ld	(clvptrb2),hl
hero.asm (3708): error: Unknown Mnemonic 'add'.
   3708  0000					      add	hl,de
hero.asm (3709): error: Unknown Mnemonic 'ld'.
   3709  0000					      ld	(clvptrb3),hl
   3710  0000
hero.asm (3711): error: Unknown Mnemonic 'ret'.
   3711  0000					      ret
   3712  0000
   3713  0000							;
   3714  0000							;setup items
   3715  0000							;
   3716  0000				   setuplantern
hero.asm (3717): error: Unknown Mnemonic 'ld'.
   3717  0000					      ld	ix,extract_item_lantern
hero.asm (3718): error: Unknown Mnemonic 'jr'.
   3718  0000					      jr	setupitem
   3719  0000
   3720  0000				   setupspider
hero.asm (3721): error: Unknown Mnemonic 'ld'.
   3721  0000					      ld	ix,extract_item_spider
hero.asm (3722): error: Unknown Mnemonic 'jr'.
   3722  0000					      jr	setupitem
   3723  0000
   3724  0000				   setupmoth
hero.asm (3725): error: Unknown Mnemonic 'ld'.
   3725  0000					      ld	ix,extract_item_moth
hero.asm (3726): error: Unknown Mnemonic 'jr'.
   3726  0000					      jr	setupitem
   3727  0000
   3728  0000				   setupbat
hero.asm (3729): error: Unknown Mnemonic 'ld'.
   3729  0000					      ld	ix,extract_item_bat
hero.asm (3730): error: Unknown Mnemonic 'jr'.
   3730  0000					      jr	setupitem
   3731  0000
   3732  0000				   setupsnake
hero.asm (3733): error: Unknown Mnemonic 'ld'.
   3733  0000					      ld	ix,extract_item_snake
hero.asm (3734): error: Unknown Mnemonic 'jr'.
   3734  0000					      jr	setupitem
   3735  0000
   3736  0000				   setupraft
hero.asm (3737): error: Unknown Mnemonic 'ld'.
   3737  0000					      ld	ix,extract_item_raft
hero.asm (3738): error: Unknown Mnemonic 'jr'.
   3738  0000					      jr	setupitem
   3739  0000
   3740  0000				   setuptentacle
hero.asm (3741): error: Unknown Mnemonic 'ld'.
   3741  0000					      ld	ix,extract_item_tenctacle
hero.asm (3742): error: Unknown Mnemonic 'jr'.
   3742  0000					      jr	setupitem
   3743  0000
   3744  0000				   setupminerright
hero.asm (3745): error: Unknown Mnemonic 'ld'.
   3745  0000					      ld	ix,extract_item_miner_right
hero.asm (3746): error: Unknown Mnemonic 'jr'.
   3746  0000					      jr	setupitem
   3747  0000
   3748  0000				   setupminerleft
hero.asm (3749): error: Unknown Mnemonic 'ld'.
   3749  0000					      ld	ix,extract_item_miner_left
hero.asm (3750): error: Unknown Mnemonic 'jr'.
   3750  0000					      jr	setupitem
   3751  0000
   3752  0000				   setupitem
hero.asm (3753): error: Unknown Mnemonic 'push'.
   3753  0000					      push	hl
hero.asm (3754): error: Unknown Mnemonic 'push'.
   3754  0000					      push	ix
hero.asm (3755): error: Unknown Mnemonic 'pop'.
   3755  0000					      pop	hl
hero.asm (3756): error: Unknown Mnemonic 'ld'.
   3756  0000					      ld	bc,1
hero.asm (3757): error: Unknown Mnemonic 'ldir'.
   3757  0000					      ldir
hero.asm (3758): error: Unknown Mnemonic 'xor'.
   3758  0000					      xor	a
hero.asm (3759): error: Unknown Mnemonic 'ld'.
   3759  0000					      ld	(de),a	;clear counter space
hero.asm (3760): error: Unknown Mnemonic 'inc'.
   3760  0000					      inc	de	;
hero.asm (3761): error: Unknown Mnemonic 'pop'.
   3761  0000					      pop	hl
   3762  0000
hero.asm (3763): error: Unknown Mnemonic 'ld'.
   3763  0000					      ld	bc,2	;retrieve x/y pos
hero.asm (3764): error: Unknown Mnemonic 'ldir'.
   3764  0000					      ldir
   3765  0000
hero.asm (3766): error: Unknown Mnemonic 'ld'.
   3766  0000					      ld	a,(hl)	;extract x/y movement range
hero.asm (3767): error: Unknown Mnemonic 'and'.
   3767  0000					      and	%11110000
hero.asm (3768): error: Unknown Mnemonic 'srl'.
   3768  0000					      srl	a
hero.asm (3769): error: Unknown Mnemonic 'srl'.
   3769  0000					      srl	a
hero.asm (3770): error: Unknown Mnemonic 'srl'.
   3770  0000					      srl	a
hero.asm (3771): error: Unknown Mnemonic 'srl'.
   3771  0000					      srl	a
hero.asm (3772): error: Unknown Mnemonic 'ld'.
   3772  0000					      ld	(de),a
hero.asm (3773): error: Unknown Mnemonic 'inc'.
   3773  0000					      inc	de
hero.asm (3774): error: Unknown Mnemonic 'xor'.
   3774  0000					      xor	a
hero.asm (3775): error: Unknown Mnemonic 'ld'.
   3775  0000					      ld	(de),a
hero.asm (3776): error: Unknown Mnemonic 'inc'.
   3776  0000					      inc	de
hero.asm (3777): error: Unknown Mnemonic 'ld'.
   3777  0000					      ld	a,(hl)
hero.asm (3778): error: Unknown Mnemonic 'and'.
   3778  0000					      and	%00001111
hero.asm (3779): error: Unknown Mnemonic 'ld'.
   3779  0000					      ld	(de),a
hero.asm (3780): error: Unknown Mnemonic 'inc'.
   3780  0000					      inc	de
hero.asm (3781): error: Unknown Mnemonic 'xor'.
   3781  0000					      xor	a
hero.asm (3782): error: Unknown Mnemonic 'ld'.
   3782  0000					      ld	(de),a
hero.asm (3783): error: Unknown Mnemonic 'inc'.
   3783  0000					      inc	de
hero.asm (3784): error: Unknown Mnemonic 'inc'.
   3784  0000					      inc	hl
   3785  0000
hero.asm (3786): error: Unknown Mnemonic 'push'.
   3786  0000					      push	hl
hero.asm (3787): error: Unknown Mnemonic 'push'.
   3787  0000					      push	ix
hero.asm (3788): error: Unknown Mnemonic 'pop'.
   3788  0000					      pop	hl
hero.asm (3789): error: Unknown Mnemonic 'inc'.
   3789  0000					      inc	hl
hero.asm (3790): error: Unknown Mnemonic 'ld'.
   3790  0000					      ld	bc,6*2	;garbage would be copied too,
hero.asm (3791): error: Unknown Mnemonic 'ldir'.
   3791  0000					      ldir
hero.asm (3792): error: Unknown Mnemonic 'pop'.
   3792  0000					      pop	hl
hero.asm (3793): error: Unknown Mnemonic 'jp'.
   3793  0000					      jp	slnext
   3794  0000
hero.asm (3795): error: Unknown Mnemonic 'db'.
   3795  0000				   curlvnbr   db	0	;current level number -> scoring
hero.asm (3796): error: Unknown Mnemonic 'db'.
   3796  0000				   curscrn    db	0	;current screen
hero.asm (3797): error: Unknown Mnemonic 'dw'.
   3797  0000				   clvptrb1   dw	0	;pointer to memory of current screen stage 1
hero.asm (3798): error: Unknown Mnemonic 'dw'.
   3798  0000				   clvptrb2   dw	0	;pointer to memory of current screen stage 2
hero.asm (3799): error: Unknown Mnemonic 'dw'.
   3799  0000				   clvptrb3   dw	0	;pointer to memory of current screen stage 3
hero.asm (3800): error: Unknown Mnemonic 'dw'.
   3800  0000				   pnextlev   dw	0	;pointer to next level
hero.asm (3801): error: Unknown Mnemonic 'dw'.
   3801  0000				   pcurlev    dw	0	;pointer to current level
   3802  0000
   3803  0000							;-------------------------------------------------------------------------------
   3804  0000							;drawlevel
   3805  0000							;
   3806  0000				   drawlevel
   3807  0000							;
   3808  0000							;first stage
   3809  0000							;
hero.asm (3810): error: Unknown Mnemonic 'ld'.
   3810  0000					      ld	b,38
hero.asm (3811): error: Unknown Mnemonic 'push'.
   3811  0000				   dl1blk2    push	bc
hero.asm (3812): error: Unknown Mnemonic 'ld'.
   3812  0000					      ld	a,b
hero.asm (3813): error: Unknown Mnemonic 'add'.
   3813  0000					      add	13+topoffset
hero.asm (3814): error: Unknown Mnemonic 'sla'.
   3814  0000					      sla	a
hero.asm (3815): error: Unknown Mnemonic 'ld'.
   3815  0000					      ld	e,a
hero.asm (3816): error: Unknown Mnemonic 'ld'.
   3816  0000					      ld	a,0
hero.asm (3817): error: Unknown Mnemonic 'adc'.
   3817  0000					      adc	0
hero.asm (3818): error: Unknown Mnemonic 'ld'.
   3818  0000					      ld	d,a
hero.asm (3819): error: Unknown Mnemonic 'ld'.
   3819  0000					      ld	hl,ytab
hero.asm (3820): error: Unknown Mnemonic 'add'.
   3820  0000					      add	hl,de
hero.asm (3821): error: Unknown Mnemonic 'ld'.
   3821  0000					      ld	e,(hl)
hero.asm (3822): error: Unknown Mnemonic 'inc'.
   3822  0000					      inc	hl
hero.asm (3823): error: Unknown Mnemonic 'ld'.
   3823  0000					      ld	a,(hl)
hero.asm (3824): error: Unknown Mnemonic 'or'.
   3824  0000				   scrswp1    or	&c0
hero.asm (3825): error: Unknown Mnemonic 'ld'.
   3825  0000					      ld	d,a
hero.asm (3826): error: Unknown Mnemonic 'ld'.
   3826  0000					      ld	hl,(clvptrb1)
   3827  0000
hero.asm (3828): error: Unknown Mnemonic 'ld'.
   3828  0000					      ld	b,40
hero.asm (3829): error: Unknown Mnemonic 'ld'.
   3829  0000				   dl1blk1    ld	a,(hl)
hero.asm (3830): error: Unknown Mnemonic 'or'.
   3830  0000					      or	a
hero.asm (3831): error: Unknown Mnemonic 'inc'.
   3831  0000					      inc	hl
hero.asm (3832): error: Unknown Mnemonic 'jr'.
   3832  0000					      jr	nz,dlblkblk
hero.asm (3833): error: Unknown Mnemonic 'ld'.
   3833  0000					      ld	(de),a
hero.asm (3834): error: Unknown Mnemonic 'inc'.
   3834  0000					      inc	de
hero.asm (3835): error: Unknown Mnemonic 'ld'.
   3835  0000					      ld	(de),a
hero.asm (3836): error: Unknown Mnemonic 'inc'.
   3836  0000					      inc	de
hero.asm (3837): error: Unknown Mnemonic 'jr'.
   3837  0000					      jr	dl1blklp
hero.asm (3838): error: Unknown Mnemonic 'ld'.
   3838  0000				   dlblkblk   ld	a,%11111111
hero.asm (3839): error: Unknown Mnemonic 'ld'.
   3839  0000				   dlblkmov   ld	(de),a
hero.asm (3840): error: Unknown Mnemonic 'inc'.
   3840  0000					      inc	de
hero.asm (3841): error: Unknown Mnemonic 'ld'.
   3841  0000					      ld	(de),a
hero.asm (3842): error: Unknown Mnemonic 'inc'.
   3842  0000					      inc	de
hero.asm (3843): error: Unknown Mnemonic 'djnz'.
   3843  0000				   dl1blklp   djnz	dl1blk1
hero.asm (3844): error: Unknown Mnemonic 'pop'.
   3844  0000					      pop	bc
hero.asm (3845): error: Unknown Mnemonic 'djnz'.
   3845  0000					      djnz	dl1blk2
   3846  0000
   3847  0000							;
   3848  0000							;second stage
   3849  0000							;
hero.asm (3850): error: Unknown Mnemonic 'ld'.
   3850  0000					      ld	b,38
hero.asm (3851): error: Unknown Mnemonic 'push'.
   3851  0000				   dl2blk2    push	bc
hero.asm (3852): error: Unknown Mnemonic 'ld'.
   3852  0000					      ld	a,b
hero.asm (3853): error: Unknown Mnemonic 'add'.
   3853  0000					      add	52+topoffset
hero.asm (3854): error: Unknown Mnemonic 'sla'.
   3854  0000					      sla	a
hero.asm (3855): error: Unknown Mnemonic 'ld'.
   3855  0000					      ld	e,a
hero.asm (3856): error: Unknown Mnemonic 'ld'.
   3856  0000					      ld	a,0
hero.asm (3857): error: Unknown Mnemonic 'adc'.
   3857  0000					      adc	0
hero.asm (3858): error: Unknown Mnemonic 'ld'.
   3858  0000					      ld	d,a
hero.asm (3859): error: Unknown Mnemonic 'ld'.
   3859  0000					      ld	hl,ytab
hero.asm (3860): error: Unknown Mnemonic 'add'.
   3860  0000					      add	hl,de
hero.asm (3861): error: Unknown Mnemonic 'ld'.
   3861  0000					      ld	e,(hl)
hero.asm (3862): error: Unknown Mnemonic 'inc'.
   3862  0000					      inc	hl
hero.asm (3863): error: Unknown Mnemonic 'ld'.
   3863  0000					      ld	a,(hl)
hero.asm (3864): error: Unknown Mnemonic 'or'.
   3864  0000				   scrswp2    or	&c0
hero.asm (3865): error: Unknown Mnemonic 'ld'.
   3865  0000					      ld	d,a
hero.asm (3866): error: Unknown Mnemonic 'ld'.
   3866  0000					      ld	hl,(clvptrb2)
   3867  0000
hero.asm (3868): error: Unknown Mnemonic 'ld'.
   3868  0000					      ld	b,40
hero.asm (3869): error: Unknown Mnemonic 'ld'.
   3869  0000				   dl2blk1    ld	a,(hl)
hero.asm (3870): error: Unknown Mnemonic 'or'.
   3870  0000					      or	a
hero.asm (3871): error: Unknown Mnemonic 'inc'.
   3871  0000					      inc	hl
hero.asm (3872): error: Unknown Mnemonic 'jr'.
   3872  0000					      jr	nz,dl2blkcl
hero.asm (3873): error: Unknown Mnemonic 'ld'.
   3873  0000					      ld	(de),a
hero.asm (3874): error: Unknown Mnemonic 'inc'.
   3874  0000					      inc	de
hero.asm (3875): error: Unknown Mnemonic 'ld'.
   3875  0000					      ld	(de),a
hero.asm (3876): error: Unknown Mnemonic 'inc'.
   3876  0000					      inc	de
hero.asm (3877): error: Unknown Mnemonic 'jr'.
   3877  0000					      jr	dl2blklp
hero.asm (3878): error: Unknown Mnemonic 'bit'.
   3878  0000				   dl2blkcl   bit	7,a
hero.asm (3879): error: Unknown Mnemonic 'jr'.
   3879  0000					      jr	z,d2blkblk
hero.asm (3880): error: Unknown Mnemonic 'ld'.
   3880  0000					      ld	a,%00111111
hero.asm (3881): error: Unknown Mnemonic 'jr'.
   3881  0000					      jr	d2blkmov
hero.asm (3882): error: Unknown Mnemonic 'ld'.
   3882  0000				   d2blkblk   ld	a,%11111111
hero.asm (3883): error: Unknown Mnemonic 'ld'.
   3883  0000				   d2blkmov   ld	(de),a
hero.asm (3884): error: Unknown Mnemonic 'inc'.
   3884  0000					      inc	de
hero.asm (3885): error: Unknown Mnemonic 'ld'.
   3885  0000					      ld	(de),a
hero.asm (3886): error: Unknown Mnemonic 'inc'.
   3886  0000					      inc	de
hero.asm (3887): error: Unknown Mnemonic 'djnz'.
   3887  0000				   dl2blklp   djnz	dl2blk1
hero.asm (3888): error: Unknown Mnemonic 'pop'.
   3888  0000					      pop	bc
hero.asm (3889): error: Unknown Mnemonic 'djnz'.
   3889  0000					      djnz	dl2blk2
   3890  0000
   3891  0000							;
   3892  0000							;third stage
   3893  0000							;
hero.asm (3894): error: Unknown Mnemonic 'ld'.
   3894  0000					      ld	b,38
hero.asm (3895): error: Unknown Mnemonic 'push'.
   3895  0000				   dl3blk2    push	bc
hero.asm (3896): error: Unknown Mnemonic 'ld'.
   3896  0000					      ld	a,b
hero.asm (3897): error: Unknown Mnemonic 'ld'.
   3897  0000					      ld	(dlvs3y),a
hero.asm (3898): error: Unknown Mnemonic 'add'.
   3898  0000					      add	91+topoffset
hero.asm (3899): error: Unknown Mnemonic 'sla'.
   3899  0000					      sla	a
hero.asm (3900): error: Unknown Mnemonic 'ld'.
   3900  0000					      ld	e,a
hero.asm (3901): error: Unknown Mnemonic 'ld'.
   3901  0000					      ld	a,0
hero.asm (3902): error: Unknown Mnemonic 'adc'.
   3902  0000					      adc	0
hero.asm (3903): error: Unknown Mnemonic 'ld'.
   3903  0000					      ld	d,a
hero.asm (3904): error: Unknown Mnemonic 'ld'.
   3904  0000					      ld	hl,ytab
hero.asm (3905): error: Unknown Mnemonic 'add'.
   3905  0000					      add	hl,de
hero.asm (3906): error: Unknown Mnemonic 'ld'.
   3906  0000					      ld	e,(hl)
hero.asm (3907): error: Unknown Mnemonic 'inc'.
   3907  0000					      inc	hl
hero.asm (3908): error: Unknown Mnemonic 'ld'.
   3908  0000					      ld	a,(hl)
hero.asm (3909): error: Unknown Mnemonic 'or'.
   3909  0000				   scrswp3    or	&c0
hero.asm (3910): error: Unknown Mnemonic 'ld'.
   3910  0000					      ld	d,a
hero.asm (3911): error: Unknown Mnemonic 'ld'.
   3911  0000					      ld	hl,(clvptrb3)
   3912  0000
hero.asm (3913): error: Unknown Mnemonic 'ld'.
   3913  0000					      ld	b,40
hero.asm (3914): error: Unknown Mnemonic 'ld'.
   3914  0000				   dl3blk1    ld	a,(hl)
hero.asm (3915): error: Unknown Mnemonic 'or'.
   3915  0000					      or	a
hero.asm (3916): error: Unknown Mnemonic 'inc'.
   3916  0000					      inc	hl
hero.asm (3917): error: Unknown Mnemonic 'jr'.
   3917  0000					      jr	nz,dl3blkcl
hero.asm (3918): error: Unknown Mnemonic 'ld'.
   3918  0000					      ld	(de),a
hero.asm (3919): error: Unknown Mnemonic 'inc'.
   3919  0000					      inc	de
hero.asm (3920): error: Unknown Mnemonic 'ld'.
   3920  0000					      ld	(de),a
hero.asm (3921): error: Unknown Mnemonic 'inc'.
   3921  0000					      inc	de
hero.asm (3922): error: Unknown Mnemonic 'jr'.
   3922  0000					      jr	dl3blklp
hero.asm (3923): error: Unknown Mnemonic 'bit'.
   3923  0000				   dl3blkcl   bit	6,a
hero.asm (3924): error: Unknown Mnemonic 'jr'.
   3924  0000					      jr	z,d3blkblk
hero.asm (3925): error: Unknown Mnemonic 'ld'.
   3925  0000					      ld	a,(dlvs3y)
hero.asm (3926): error: Unknown Mnemonic 'cp'.
   3926  0000					      cp	36
hero.asm (3927): error: Unknown Mnemonic 'jr'.
   3927  0000					      jr	nc,d3blkwt2
hero.asm (3928): error: Unknown Mnemonic 'xor'.
   3928  0000					      xor	a
hero.asm (3929): error: Unknown Mnemonic 'jr'.
   3929  0000					      jr	d3blkmov
hero.asm (3930): error: Unknown Mnemonic 'ld'.
   3930  0000				   d3blkwt2   ld	a,%11110000
hero.asm (3931): error: Unknown Mnemonic 'jr'.
   3931  0000					      jr	d3blkmov
hero.asm (3932): error: Unknown Mnemonic 'ld'.
   3932  0000				   d3blkblk   ld	a,%11111111
hero.asm (3933): error: Unknown Mnemonic 'ld'.
   3933  0000				   d3blkmov   ld	(de),a
hero.asm (3934): error: Unknown Mnemonic 'inc'.
   3934  0000					      inc	de
hero.asm (3935): error: Unknown Mnemonic 'ld'.
   3935  0000					      ld	(de),a
hero.asm (3936): error: Unknown Mnemonic 'inc'.
   3936  0000					      inc	de
hero.asm (3937): error: Unknown Mnemonic 'djnz'.
   3937  0000				   dl3blklp   djnz	dl3blk1
hero.asm (3938): error: Unknown Mnemonic 'pop'.
   3938  0000					      pop	bc
hero.asm (3939): error: Unknown Mnemonic 'djnz'.
   3939  0000					      djnz	dl3blk2
   3940  0000
   3941  0000							;
   3942  0000							;draw two line
   3943  0000							;
hero.asm (3944): error: Unknown Mnemonic 'ld'.
   3944  0000					      ld	b,0
hero.asm (3945): error: Unknown Mnemonic 'ld'.
   3945  0000					      ld	c,53+topoffset
hero.asm (3946): error: Unknown Mnemonic 'ld'.
   3946  0000					      ld	de,&0150
hero.asm (3947): error: Unknown Mnemonic 'xor'.
   3947  0000					      xor	a
hero.asm (3948): error: Unknown Mnemonic 'call'.
   3948  0000					      call	fillblock
hero.asm (3949): error: Unknown Mnemonic 'ld'.
   3949  0000					      ld	b,0
hero.asm (3950): error: Unknown Mnemonic 'ld'.
   3950  0000					      ld	c,92+topoffset
hero.asm (3951): error: Unknown Mnemonic 'ld'.
   3951  0000					      ld	de,&0150
hero.asm (3952): error: Unknown Mnemonic 'xor'.
   3952  0000					      xor	a
hero.asm (3953): error: Unknown Mnemonic 'call'.
   3953  0000					      call	fillblock
   3954  0000
   3955  0000							;
   3956  0000							;erase laser beam
   3957  0000							;
hero.asm (3958): error: Unknown Mnemonic 'xor'.
   3958  0000					      xor	a
hero.asm (3959): error: Unknown Mnemonic 'ld'.
   3959  0000					      ld	(oldlasln),a
   3960  0000
   3961  0000							;
   3962  0000							;erase points on screen
   3963  0000							;
hero.asm (3964): error: Unknown Mnemonic 'ld'.
   3964  0000					      ld	(plcpntct),a
hero.asm (3965): error: Unknown Mnemonic 'ld'.
   3965  0000					      ld	(plcpntc2),a
   3966  0000							;
   3967  0000							;draw items
   3968  0000							;
hero.asm (3969): error: Unknown Mnemonic 'ld'.
   3969  0000					      ld	hl,(clvptrb1)
hero.asm (3970): error: Unknown Mnemonic 'ld'.
   3970  0000					      ld	bc,120+4+1
hero.asm (3971): error: Unknown Mnemonic 'add'.
   3971  0000					      add	hl,bc
hero.asm (3972): error: Unknown Mnemonic 'ld'.
   3972  0000					      ld	b,items
hero.asm (3973): error: Unknown Mnemonic 'push'.
   3973  0000				   drwitems   push	bc
hero.asm (3974): error: Unknown Mnemonic 'ld'.
   3974  0000					      ld	a,(hl)
hero.asm (3975): error: Unknown Mnemonic 'inc'.
   3975  0000					      inc	hl
hero.asm (3976): error: Unknown Mnemonic 'and'.
   3976  0000					      and	item_mask_drlev
hero.asm (3977): error: Unknown Mnemonic 'or'.
   3977  0000					      or	a
hero.asm (3978): error: Unknown Mnemonic 'jr'.
   3978  0000					      jr	z,drwitms2
hero.asm (3979): error: Unknown Mnemonic 'inc'.
   3979  0000					      inc	hl	;skip animation counter
hero.asm (3980): error: Unknown Mnemonic 'inc'.
   3980  0000					      inc	hl
hero.asm (3981): error: Unknown Mnemonic 'ld'.
   3981  0000					      ld	b,(hl)
hero.asm (3982): error: Unknown Mnemonic 'inc'.
   3982  0000					      inc	hl
hero.asm (3983): error: Unknown Mnemonic 'ld'.
   3983  0000					      ld	c,(hl)
hero.asm (3984): error: Unknown Mnemonic 'inc'.
   3984  0000					      inc	hl
   3985  0000
hero.asm (3986): error: Unknown Mnemonic 'ld'.
   3986  0000					      ld	de,4	;skip x/y-movements
hero.asm (3987): error: Unknown Mnemonic 'add'.
   3987  0000					      add	hl,de
   3988  0000
hero.asm (3989): error: Unknown Mnemonic 'ld'.
   3989  0000					      ld	e,(hl)
hero.asm (3990): error: Unknown Mnemonic 'inc'.
   3990  0000					      inc	hl
hero.asm (3991): error: Unknown Mnemonic 'ld'.
   3991  0000					      ld	d,(hl)
hero.asm (3992): error: Unknown Mnemonic 'inc'.
   3992  0000					      inc	hl
   3993  0000
hero.asm (3994): error: Unknown Mnemonic 'push'.
   3994  0000					      push	hl
hero.asm (3995): error: Unknown Mnemonic 'ex'.
   3995  0000					      ex	de,hl
hero.asm (3996): error: Unknown Mnemonic 'ld'.
   3996  0000					      ld	e,(hl)
hero.asm (3997): error: Unknown Mnemonic 'inc'.
   3997  0000					      inc	hl
hero.asm (3998): error: Unknown Mnemonic 'ld'.
   3998  0000					      ld	d,(hl)
hero.asm (3999): error: Unknown Mnemonic 'inc'.
   3999  0000					      inc	hl
hero.asm (4000): error: Unknown Mnemonic 'call'.
   4000  0000					      call	drawsprite
hero.asm (4001): error: Unknown Mnemonic 'pop'.
   4001  0000					      pop	hl
hero.asm (4002): error: Unknown Mnemonic 'ld'.
   4002  0000					      ld	de,5*2
hero.asm (4003): error: Unknown Mnemonic 'add'.
   4003  0000					      add	hl,de
hero.asm (4004): error: Unknown Mnemonic 'jr'.
   4004  0000					      jr	drwitms3
hero.asm (4005): error: Unknown Mnemonic 'ld'.
   4005  0000				   drwitms2   ld	de,itemrecsize-1
hero.asm (4006): error: Unknown Mnemonic 'add'.
   4006  0000					      add	hl,de
hero.asm (4007): error: Unknown Mnemonic 'pop'.
   4007  0000				   drwitms3   pop	bc
hero.asm (4008): error: Unknown Mnemonic 'djnz'.
   4008  0000					      djnz	drwitems
hero.asm (4009): error: Unknown Mnemonic 'call'.
   4009  0000					      call	drawenemies
hero.asm (4010): error: Unknown Mnemonic 'ret'.
   4010  0000					      ret
   4011  0000
hero.asm (4012): error: Unknown Mnemonic 'db'.
   4012  0000				   dlvypos    db	15+topoffset,54+topoffset,93+topoffset
hero.asm (4013): error: Unknown Mnemonic 'db'.
   4013  0000				   dlvs3y     db	0
   4014  0000
   4015  0000							;-------------------------------------------------------------------------------
   4016  0000							;set level colour
   4017  0000							;
   4018  0000				   setlevelcolour
hero.asm (4019): error: Unknown Mnemonic 'ld'.
   4019  0000					      ld	bc,&7f0f
hero.asm (4020): error: Unknown Mnemonic 'out'.
   4020  0000					      out	(c),c
hero.asm (4021): error: Unknown Mnemonic 'push'.
   4021  0000					      push	hl
hero.asm (4022): error: Unknown Mnemonic 'ld'.
   4022  0000					      ld	hl,(clvptrb1)
hero.asm (4023): error: Unknown Mnemonic 'dec'.
   4023  0000					      dec	hl
hero.asm (4024): error: Unknown Mnemonic 'ld'.
   4024  0000					      ld	a,(hl)
hero.asm (4025): error: Unknown Mnemonic 'pop'.
   4025  0000					      pop	hl
hero.asm (4026): error: Unknown Mnemonic 'or'.
   4026  0000					      or	%01000000
hero.asm (4027): error: Unknown Mnemonic 'out'.
   4027  0000					      out	(c),a
hero.asm (4028): error: Unknown Mnemonic 'ret'.
   4028  0000					      ret
   4029  0000
   4030  0000							;-------------------------------------------------------------------------------
   4031  0000							;fill energy
   4032  0000							;
   4033  0000				   fillenergy
hero.asm (4034): error: Unknown Mnemonic 'ld'.
   4034  0000					      ld	a,(newlevl)
hero.asm (4035): error: Unknown Mnemonic 'cp'.
   4035  0000					      cp	0
hero.asm (4036): error: Unknown Mnemonic 'jp'.
   4036  0000					      jp	z,heroset5
   4037  0000
hero.asm (4038): error: Unknown Mnemonic 'call'.
   4038  0000				   herostnr   call	showlevel
   4039  0000
   4040  0000							;hero falls down in start level
hero.asm (4041): error: Unknown Mnemonic 'ld'.
   4041  0000					      ld	a,1
hero.asm (4042): error: Unknown Mnemonic 'push'.
   4042  0000				   heroset    push	af
hero.asm (4043): error: Unknown Mnemonic 'push'.
   4043  0000					      push	af
hero.asm (4044): error: Unknown Mnemonic 'call'.
   4044  0000					      call	waitvsync
hero.asm (4045): error: Unknown Mnemonic 'call'.
   4045  0000					      call	flashwalls
hero.asm (4046): error: Unknown Mnemonic 'pop'.
   4046  0000					      pop	af
hero.asm (4047): error: Unknown Mnemonic 'ld'.
   4047  0000					      ld	(newheroy),a
hero.asm (4048): error: Unknown Mnemonic 'cp'.
   4048  0000					      cp	1
hero.asm (4049): error: Unknown Mnemonic 'jr'.
   4049  0000					      jr	z,heroset3
hero.asm (4050): error: Unknown Mnemonic 'ld'.
   4050  0000					      ld	c,a
hero.asm (4051): error: Unknown Mnemonic 'ld'.
   4051  0000					      ld	a,(newherox)
hero.asm (4052): error: Unknown Mnemonic 'ld'.
   4052  0000					      ld	b,a
hero.asm (4053): error: Unknown Mnemonic 'xor'.
   4053  0000					      xor	a
hero.asm (4054): error: Unknown Mnemonic 'ld'.
   4054  0000					      ld	de,&1804
hero.asm (4055): error: Unknown Mnemonic 'call'.
   4055  0000					      call	fillblock
hero.asm (4056): error: Unknown Mnemonic 'call'.
   4056  0000				   heroset3   call	drawhero
hero.asm (4057): error: Unknown Mnemonic 'pop'.
   4057  0000					      pop	af
hero.asm (4058): error: Unknown Mnemonic 'inc'.
   4058  0000					      inc	a
hero.asm (4059): error: Unknown Mnemonic 'cp'.
   4059  0000					      cp	25
hero.asm (4060): error: Unknown Mnemonic 'jr'.
   4060  0000					      jr	nz,heroset
   4061  0000
hero.asm (4062): error: Unknown Mnemonic 'ld'.
   4062  0000					      ld	c,channelb	;volume b, pssst!!!
hero.asm (4063): error: Unknown Mnemonic 'ld'.
   4063  0000					      ld	a,soundfull
hero.asm (4064): error: Unknown Mnemonic 'call'.
   4064  0000					      call	wrpsg
   4065  0000
hero.asm (4066): error: Unknown Mnemonic 'ld'.
   4066  0000					      ld	a,1	;fill up energy 0-40
hero.asm (4067): error: Unknown Mnemonic 'ld'.
   4067  0000				   fn1	      ld	(energy),a
hero.asm (4068): error: Unknown Mnemonic 'push'.
   4068  0000					      push	af
hero.asm (4069): error: Unknown Mnemonic 'rra'.
   4069  0000					      rra
hero.asm (4070): error: Unknown Mnemonic 'cpl'.
   4070  0000					      cpl
hero.asm (4071): error: Unknown Mnemonic 'ld'.
   4071  0000					      ld	c,6
hero.asm (4072): error: Unknown Mnemonic 'call'.
   4072  0000					      call	wrpsg
hero.asm (4073): error: Unknown Mnemonic 'call'.
   4073  0000					      call	drawenergy
hero.asm (4074): error: Unknown Mnemonic 'call'.
   4074  0000					      call	waitvsync
hero.asm (4075): error: Unknown Mnemonic 'call'.
   4075  0000					      call	flashwalls
   4076  0000
hero.asm (4077): error: Unknown Mnemonic 'ld'.
   4077  0000					      ld	a,(newheroy)
hero.asm (4078): error: Unknown Mnemonic 'inc'.
   4078  0000					      inc	a
hero.asm (4079): error: Unknown Mnemonic 'ld'.
   4079  0000					      ld	(newheroy),a
hero.asm (4080): error: Unknown Mnemonic 'jr'.
   4080  0000					      jr	z,heroset4
hero.asm (4081): error: Unknown Mnemonic 'ld'.
   4081  0000					      ld	c,a
hero.asm (4082): error: Unknown Mnemonic 'ld'.
   4082  0000					      ld	a,(newherox)
hero.asm (4083): error: Unknown Mnemonic 'ld'.
   4083  0000					      ld	b,a
hero.asm (4084): error: Unknown Mnemonic 'xor'.
   4084  0000					      xor	a
hero.asm (4085): error: Unknown Mnemonic 'ld'.
   4085  0000					      ld	de,&1804
hero.asm (4086): error: Unknown Mnemonic 'call'.
   4086  0000					      call	fillblock
hero.asm (4087): error: Unknown Mnemonic 'call'.
   4087  0000				   heroset4   call	drawhero
hero.asm (4088): error: Unknown Mnemonic 'pop'.
   4088  0000					      pop	af
hero.asm (4089): error: Unknown Mnemonic 'inc'.
   4089  0000					      inc	a
hero.asm (4090): error: Unknown Mnemonic 'cp'.
   4090  0000					      cp	41
hero.asm (4091): error: Unknown Mnemonic 'jr'.
   4091  0000					      jr	nz,fn1
   4092  0000
hero.asm (4093): error: Unknown Mnemonic 'ld'.
   4093  0000					      ld	c,channelb	;volume b, pssst!!!
hero.asm (4094): error: Unknown Mnemonic 'ld'.
   4094  0000					      ld	a,soundpst
hero.asm (4095): error: Unknown Mnemonic 'call'.
   4095  0000					      call	wrpsg
   4096  0000
hero.asm (4097): error: Unknown Mnemonic 'call'.
   4097  0000					      call	clearlevel
hero.asm (4098): error: Unknown Mnemonic 'call'.
   4098  0000					      call	drawscore
   4099  0000
hero.asm (4100): error: Unknown Mnemonic 'ld'.
   4100  0000				   heroset5   ld	a,herodlymiddle
hero.asm (4101): error: Unknown Mnemonic 'ld'.
   4101  0000					      ld	(houpdly),a
hero.asm (4102): error: Unknown Mnemonic 'ld'.
   4102  0000					      ld	a,1
hero.asm (4103): error: Unknown Mnemonic 'ld'.
   4103  0000					      ld	(herofly),a	;hero is flying
   4104  0000
hero.asm (4105): error: Unknown Mnemonic 'call'.
   4105  0000					      call	waitvsync
   4106  0000
hero.asm (4107): error: Unknown Mnemonic 'ld'.
   4107  0000					      ld	a,(newherox)
hero.asm (4108): error: Unknown Mnemonic 'ld'.
   4108  0000					      ld	b,a
hero.asm (4109): error: Unknown Mnemonic 'ld'.
   4109  0000					      ld	a,(newheroy)
hero.asm (4110): error: Unknown Mnemonic 'ld'.
   4110  0000					      ld	c,a
hero.asm (4111): error: Unknown Mnemonic 'inc'.
   4111  0000					      inc	c
hero.asm (4112): error: Unknown Mnemonic 'ld'.
   4112  0000					      ld	de,&0104
hero.asm (4113): error: Unknown Mnemonic 'xor'.
   4113  0000					      xor	a
hero.asm (4114): error: Unknown Mnemonic 'call'.
   4114  0000					      call	fillblock
hero.asm (4115): error: Unknown Mnemonic 'call'.
   4115  0000					      call	drawhero
hero.asm (4116): error: Unknown Mnemonic 'call'.
   4116  0000					      call	readjoystick
hero.asm (4117): error: Unknown Mnemonic 'call'.
   4117  0000					      call	flashwalls
hero.asm (4118): error: Unknown Mnemonic 'ld'.
   4118  0000					      ld	a,(joybyte)
hero.asm (4119): error: Unknown Mnemonic 'and'.
   4119  0000					      and	%00001111
hero.asm (4120): error: Unknown Mnemonic 'jr'.
   4120  0000					      jr	nz,heroset7
hero.asm (4121): error: Unknown Mnemonic 'ld'.
   4121  0000					      ld	a,(escbyte)
hero.asm (4122): error: Unknown Mnemonic 'bit'.
   4122  0000					      bit	2,a
   4123  0000							;call nz,giveupquestion
hero.asm (4124): error: Unknown Mnemonic 'jr'.
   4124  0000					      jr	z,heroset5	;delete...
hero.asm (4125): error: Unknown Mnemonic 'ld'.
   4125  0000					      ld	(wimp),a	;..this if question mem left
hero.asm (4126): error: Unknown Mnemonic 'ld'.
   4126  0000					      ld	a,(wimp)
hero.asm (4127): error: Unknown Mnemonic 'or'.
   4127  0000					      or	a
hero.asm (4128): error: Unknown Mnemonic 'jr'.
   4128  0000					      jr	z,heroset5
hero.asm (4129): error: Unknown Mnemonic 'jr'.
   4129  0000					      jr	clearherobackground
   4130  0000
hero.asm (4131): error: Unknown Mnemonic 'ld'.
   4131  0000				   heroset7   ld	c,channelb	;volume b, 100 % vol
hero.asm (4132): error: Unknown Mnemonic 'ld'.
   4132  0000					      ld	a,soundfull
hero.asm (4133): error: Unknown Mnemonic 'call'.
   4133  0000					      call	wrpsg
   4134  0000
hero.asm (4135): error: Unknown Mnemonic 'ld'.
   4135  0000					      ld	a,&00	;patch make roto sound
hero.asm (4136): error: Unknown Mnemonic 'ld'.
   4136  0000					      ld	(makerotosound),a
   4137  0000
   4138  0000				   clearherobackground
hero.asm (4139): error: Unknown Mnemonic 'ld'.
   4139  0000					      ld	b,&04*&18
hero.asm (4140): error: Unknown Mnemonic 'ld'.
   4140  0000					      ld	hl,heroback
hero.asm (4141): error: Unknown Mnemonic 'ld'.
   4141  0000				   clrhebck   ld	(hl),0
hero.asm (4142): error: Unknown Mnemonic 'inc'.
   4142  0000					      inc	hl
hero.asm (4143): error: Unknown Mnemonic 'djnz'.
   4143  0000					      djnz	clrhebck
   4144  0000
hero.asm (4145): error: Unknown Mnemonic 'ret'.
   4145  0000					      ret
   4146  0000
   4147  0000							;-------------------------------------------------------------------------------
   4148  0000							;setscreen
   4149  0000							;
   4150  0000				   setscreen
hero.asm (4151): error: Unknown Mnemonic 'push'.
   4151  0000					      push	bc
hero.asm (4152): error: Unknown Mnemonic 'push'.
   4152  0000					      push	de
hero.asm (4153): error: Unknown Mnemonic 'push'.
   4153  0000					      push	hl
hero.asm (4154): error: Unknown Mnemonic 'push'.
   4154  0000					      push	ix
hero.asm (4155): error: Unknown Mnemonic 'push'.
   4155  0000					      push	iy
hero.asm (4156): error: Unknown Mnemonic 'call'.
   4156  0000					      call	herosilence
hero.asm (4157): error: Unknown Mnemonic 'call'.
   4157  0000					      call	acsoundstop
   4158  0000
hero.asm (4159): error: Unknown Mnemonic 'ld'.
   4159  0000					      ld	hl,(clvptrb1)	;+patch  
hero.asm (4160): error: Unknown Mnemonic 'ld'.
   4160  0000				   stscptch   ld	e,120
hero.asm (4161): error: Unknown Mnemonic 'ld'.
   4161  0000					      ld	d,0
hero.asm (4162): error: Unknown Mnemonic 'add'.
   4162  0000					      add	hl,de
   4163  0000
hero.asm (4164): error: Unknown Mnemonic 'ld'.
   4164  0000					      ld	a,(hl)
hero.asm (4165): error: Unknown Mnemonic 'dec'.
   4165  0000					      dec	a
hero.asm (4166): error: Unknown Mnemonic 'and'.
   4166  0000					      and	%00011111	;1-16, bit 5-7 could be flags
hero.asm (4167): error: Unknown Mnemonic 'ld'.
   4167  0000					      ld	(curscrn),a
   4168  0000
hero.asm (4169): error: Unknown Mnemonic 'ld'.
   4169  0000					      ld	hl,curlevel
hero.asm (4170): error: Unknown Mnemonic 'inc'.
   4170  0000					      inc	hl
hero.asm (4171): error: Unknown Mnemonic 'or'.
   4171  0000					      or	a
hero.asm (4172): error: Unknown Mnemonic 'jr'.
   4172  0000					      jr	z,stscrn2
hero.asm (4173): error: Unknown Mnemonic 'ld'.
   4173  0000					      ld	b,a
hero.asm (4174): error: Unknown Mnemonic 'ld'.
   4174  0000					      ld	de,1+120+4+1+(itemperlevel)	;4=direction bytes,+1=crushcntr 
hero.asm (4175): error: Unknown Mnemonic 'add'.
   4175  0000				   stscrn     add	hl,de
hero.asm (4176): error: Unknown Mnemonic 'djnz'.
   4176  0000					      djnz	stscrn
hero.asm (4177): error: Unknown Mnemonic 'ld'.
   4177  0000				   stscrn2    ld	(clvptrb1),hl
hero.asm (4178): error: Unknown Mnemonic 'ld'.
   4178  0000					      ld	de,40
hero.asm (4179): error: Unknown Mnemonic 'add'.
   4179  0000					      add	hl,de
hero.asm (4180): error: Unknown Mnemonic 'ld'.
   4180  0000					      ld	(clvptrb2),hl
hero.asm (4181): error: Unknown Mnemonic 'add'.
   4181  0000					      add	hl,de
hero.asm (4182): error: Unknown Mnemonic 'ld'.
   4182  0000					      ld	(clvptrb3),hl
hero.asm (4183): error: Unknown Mnemonic 'call'.
   4183  0000					      call	swapscroutput
hero.asm (4184): error: Unknown Mnemonic 'call'.
   4184  0000					      call	drawlevel
hero.asm (4185): error: Unknown Mnemonic 'call'.
   4185  0000					      call	drawenergy
hero.asm (4186): error: Unknown Mnemonic 'call'.
   4186  0000					      call	drawlifes
hero.asm (4187): error: Unknown Mnemonic 'call'.
   4187  0000					      call	drawscore
hero.asm (4188): error: Unknown Mnemonic 'call'.
   4188  0000					      call	drawbombs
hero.asm (4189): error: Unknown Mnemonic 'ld'.
   4189  0000					      ld	a,(newherox)
hero.asm (4190): error: Unknown Mnemonic 'ld'.
   4190  0000					      ld	(herox),a
hero.asm (4191): error: Unknown Mnemonic 'ld'.
   4191  0000					      ld	b,a
hero.asm (4192): error: Unknown Mnemonic 'ld'.
   4192  0000					      ld	a,(newheroy)
hero.asm (4193): error: Unknown Mnemonic 'ld'.
   4193  0000					      ld	(heroy),a
hero.asm (4194): error: Unknown Mnemonic 'ld'.
   4194  0000					      ld	c,a
   4195  0000
hero.asm (4196): error: Unknown Mnemonic 'ld'.
   4196  0000					      ld	de,&0418
hero.asm (4197): error: Unknown Mnemonic 'ld'.
   4197  0000					      ld	hl,heroback
hero.asm (4198): error: Unknown Mnemonic 'call'.
   4198  0000					      call	savebackground
   4199  0000
hero.asm (4200): error: Unknown Mnemonic 'call'.
   4200  0000					      call	drawhero
hero.asm (4201): error: Unknown Mnemonic 'call'.
   4201  0000					      call	swapscreen
hero.asm (4202): error: Unknown Mnemonic 'call'.
   4202  0000					      call	waitvsync
hero.asm (4203): error: Unknown Mnemonic 'ei'.
   4203  0000					      ei
hero.asm (4204): error: Unknown Mnemonic 'halt'.
   4204  0000					      halt
hero.asm (4205): error: Unknown Mnemonic 'di'.
   4205  0000					      di
hero.asm (4206): error: Unknown Mnemonic 'call'.
   4206  0000					      call	setlevelcolour
hero.asm (4207): error: Unknown Mnemonic 'pop'.
   4207  0000					      pop	iy
hero.asm (4208): error: Unknown Mnemonic 'pop'.
   4208  0000					      pop	ix
hero.asm (4209): error: Unknown Mnemonic 'pop'.
   4209  0000					      pop	hl
hero.asm (4210): error: Unknown Mnemonic 'pop'.
   4210  0000					      pop	de
hero.asm (4211): error: Unknown Mnemonic 'pop'.
   4211  0000					      pop	bc
hero.asm (4212): error: Unknown Mnemonic 'ret'.
   4212  0000					      ret
   4213  0000
   4214  0000							;-------------------------------------------------------------------------------
   4215  0000							;upscreen
   4216  0000							;
   4217  0000		       00 7f	   lowernextscreen equ	137-10
   4218  0000
   4219  0000				   upscreen
hero.asm (4220): error: Unknown Mnemonic 'push'.
   4220  0000					      push	af
hero.asm (4221): error: Unknown Mnemonic 'ld'.
   4221  0000					      ld	a,(curscrn)
hero.asm (4222): error: Unknown Mnemonic 'or'.
   4222  0000					      or	a
hero.asm (4223): error: Unknown Mnemonic 'jr'.
   4223  0000					      jr	z,upscrny1
hero.asm (4224): error: Unknown Mnemonic 'ld'.
   4224  0000					      ld	a,120	;up   
hero.asm (4225): error: Unknown Mnemonic 'ld'.
   4225  0000					      ld	(stscptch+1),a
hero.asm (4226): error: Unknown Mnemonic 'ld'.
   4226  0000					      ld	a,lowernextscreen
hero.asm (4227): error: Unknown Mnemonic 'ld'.
   4227  0000					      ld	(newheroy),a
hero.asm (4228): error: Unknown Mnemonic 'call'.
   4228  0000					      call	setscreen
hero.asm (4229): error: Unknown Mnemonic 'pop'.
   4229  0000				   upscrnpp   pop	af
hero.asm (4230): error: Unknown Mnemonic 'ret'.
   4230  0000					      ret
hero.asm (4231): error: Unknown Mnemonic 'ld'.
   4231  0000				   upscrny1   ld	a,1
hero.asm (4232): error: Unknown Mnemonic 'ld'.
   4232  0000					      ld	(newheroy),a
hero.asm (4233): error: Unknown Mnemonic 'jr'.
   4233  0000					      jr	upscrnpp
   4234  0000
   4235  0000							;-------------------------------------------------------------------------------
   4236  0000							;downscreen
   4237  0000							;
   4238  0000				   downscreen
hero.asm (4239): error: Unknown Mnemonic 'push'.
   4239  0000					      push	af
hero.asm (4240): error: Unknown Mnemonic 'ld'.
   4240  0000					      ld	a,121	;down
hero.asm (4241): error: Unknown Mnemonic 'ld'.
   4241  0000					      ld	(stscptch+1),a
hero.asm (4242): error: Unknown Mnemonic 'ld'.
   4242  0000					      ld	a,1
hero.asm (4243): error: Unknown Mnemonic 'ld'.
   4243  0000					      ld	(newheroy),a
hero.asm (4244): error: Unknown Mnemonic 'call'.
   4244  0000					      call	setscreen
hero.asm (4245): error: Unknown Mnemonic 'pop'.
   4245  0000					      pop	af
hero.asm (4246): error: Unknown Mnemonic 'ret'.
   4246  0000					      ret
   4247  0000
   4248  0000							;-------------------------------------------------------------------------------
   4249  0000							;leftscreen
   4250  0000							;
   4251  0000				   leftscreen
hero.asm (4252): error: Unknown Mnemonic 'push'.
   4252  0000					      push	af
hero.asm (4253): error: Unknown Mnemonic 'ld'.
   4253  0000					      ld	a,122	;left
hero.asm (4254): error: Unknown Mnemonic 'ld'.
   4254  0000					      ld	(stscptch+1),a
hero.asm (4255): error: Unknown Mnemonic 'ld'.
   4255  0000					      ld	a,76
hero.asm (4256): error: Unknown Mnemonic 'ld'.
   4256  0000					      ld	(newherox),a
hero.asm (4257): error: Unknown Mnemonic 'call'.
   4257  0000					      call	setscreen
hero.asm (4258): error: Unknown Mnemonic 'pop'.
   4258  0000					      pop	af
hero.asm (4259): error: Unknown Mnemonic 'ret'.
   4259  0000					      ret
   4260  0000
   4261  0000							;-------------------------------------------------------------------------------
   4262  0000							;rightscreen
   4263  0000							;
   4264  0000				   rightscreen
hero.asm (4265): error: Unknown Mnemonic 'push'.
   4265  0000					      push	af
hero.asm (4266): error: Unknown Mnemonic 'ld'.
   4266  0000					      ld	a,123	;right
hero.asm (4267): error: Unknown Mnemonic 'ld'.
   4267  0000					      ld	(stscptch+1),a
hero.asm (4268): error: Unknown Mnemonic 'ld'.
   4268  0000					      ld	a,1
hero.asm (4269): error: Unknown Mnemonic 'ld'.
   4269  0000					      ld	(newherox),a
hero.asm (4270): error: Unknown Mnemonic 'call'.
   4270  0000					      call	setscreen
hero.asm (4271): error: Unknown Mnemonic 'pop'.
   4271  0000					      pop	af
hero.asm (4272): error: Unknown Mnemonic 'ret'.
   4272  0000					      ret
   4273  0000
   4274  0000							;-------------------------------------------------------------------------------
   4275  0000							;waitvsync
   4276  0000							;
   4277  0000				   waitvsync
hero.asm (4278): error: Unknown Mnemonic 'ld'.
   4278  0000					      ld	b,&F5
hero.asm (4279): error: Unknown Mnemonic 'in'.
   4279  0000				   wtvsync    in	a,(c)
hero.asm (4280): error: Unknown Mnemonic 'rra'.
   4280  0000					      rra
hero.asm (4281): error: Unknown Mnemonic 'jr'.
   4281  0000					      jr	nc,wtvsync
hero.asm (4282): error: Unknown Mnemonic 'ret'.
   4282  0000					      ret
   4283  0000
   4284  0000							;-------------------------------------------------------------------------------
   4285  0000							;hero move
   4286  0000							;
   4287  0000				   heromove
hero.asm (4288): error: Unknown Mnemonic 'ld'.
   4288  0000					      ld	a,(newherox)
hero.asm (4289): error: Unknown Mnemonic 'ld'.
   4289  0000					      ld	(raftherox),a
   4290  0000
hero.asm (4291): error: Unknown Mnemonic 'xor'.
   4291  0000					      xor	a
hero.asm (4292): error: Unknown Mnemonic 'ld'.
   4292  0000					      ld	(horunng),a
   4293  0000
hero.asm (4294): error: Unknown Mnemonic 'ld'.
   4294  0000					      ld	a,(joybyte)	;check movement/joystick
   4295  0000
hero.asm (4296): error: Unknown Mnemonic 'bit'.
   4296  0000					      bit	joyleft,a	;joystick left ----------------------------
hero.asm (4297): error: Unknown Mnemonic 'jr'.
   4297  0000					      jr	z,joytst
   4298  0000
hero.asm (4299): error: Unknown Mnemonic 'push'.
   4299  0000					      push	af	;
hero.asm (4300): error: Unknown Mnemonic 'ld'.
   4300  0000					      ld	a,(herodir)
hero.asm (4301): error: Unknown Mnemonic 'or'.
   4301  0000					      or	a
hero.asm (4302): error: Unknown Mnemonic 'jr'.
   4302  0000					      jr	nz,herolft
hero.asm (4303): error: Unknown Mnemonic 'cpl'.
   4303  0000					      cpl
hero.asm (4304): error: Unknown Mnemonic 'ld'.
   4304  0000					      ld	(herodir),a
hero.asm (4305): error: Unknown Mnemonic 'jr'.
   4305  0000					      jr	hmltdir
   4306  0000
hero.asm (4307): error: Unknown Mnemonic 'ld'.
   4307  0000				   herolft    ld	a,1
hero.asm (4308): error: Unknown Mnemonic 'ld'.
   4308  0000					      ld	(horunng),a
hero.asm (4309): error: Unknown Mnemonic 'ld'.
   4309  0000					      ld	a,(newherox)	;top collision with level blocks?
hero.asm (4310): error: Unknown Mnemonic 'cp'.
   4310  0000					      cp	1	;hero left 
hero.asm (4311): error: Unknown Mnemonic 'jr'.
   4311  0000					      jr	nz,hmlt
hero.asm (4312): error: Unknown Mnemonic 'call'.
   4312  0000					      call	leftscreen
hero.asm (4313): error: Unknown Mnemonic 'jr'.
   4313  0000					      jr	hmltdir
hero.asm (4314): error: Unknown Mnemonic 'dec'.
   4314  0000				   hmlt       dec	a
hero.asm (4315): error: Unknown Mnemonic 'ld'.
   4315  0000					      ld	yl,a
hero.asm (4316): error: Unknown Mnemonic 'ld'.
   4316  0000					      ld	b,a
hero.asm (4317): error: Unknown Mnemonic 'ld'.
   4317  0000					      ld	a,(newheroy)
hero.asm (4318): error: Unknown Mnemonic 'ld'.
   4318  0000					      ld	c,a
hero.asm (4319): error: Unknown Mnemonic 'call'.
   4319  0000					      call	getstage
   4320  0000
hero.asm (4321): error: Unknown Mnemonic 'bit'.
   4321  0000					      bit	7,a
hero.asm (4322): error: Unknown Mnemonic 'jr'.
   4322  0000					      jr	z,hmlttst2
hero.asm (4323): error: Unknown Mnemonic 'ld'.
   4323  0000					      ld	a,(heroclsn)
   4324  0000					      set	col_flag_flashw,a
hero.asm (4325): error: Unknown Mnemonic 'ld'.
   4325  0000					      ld	(heroclsn),a
hero.asm (4326): error: Unknown Mnemonic 'jr'.
   4326  0000					      jr	hmltdir
   4327  0000
hero.asm (4328): error: Unknown Mnemonic 'or'.
   4328  0000				   hmlttst2   or	a
hero.asm (4329): error: Unknown Mnemonic 'jr'.
   4329  0000					      jr	nz,hmltdir
hero.asm (4330): error: Unknown Mnemonic 'ld'.
   4330  0000					      ld	b,yl
hero.asm (4331): error: Unknown Mnemonic 'ld'.
   4331  0000					      ld	a,(newheroy)
hero.asm (4332): error: Unknown Mnemonic 'add'.
   4332  0000					      add	heroheight	;hero height incl roto
hero.asm (4333): error: Unknown Mnemonic 'ld'.
   4333  0000					      ld	c,a
hero.asm (4334): error: Unknown Mnemonic 'call'.
   4334  0000					      call	getstage
   4335  0000
hero.asm (4336): error: Unknown Mnemonic 'bit'.
   4336  0000					      bit	7,a
hero.asm (4337): error: Unknown Mnemonic 'jr'.
   4337  0000					      jr	z,hmlttst3
hero.asm (4338): error: Unknown Mnemonic 'ld'.
   4338  0000					      ld	a,(heroclsn)
   4339  0000					      set	col_flag_flashw,a
hero.asm (4340): error: Unknown Mnemonic 'ld'.
   4340  0000					      ld	(heroclsn),a
hero.asm (4341): error: Unknown Mnemonic 'jr'.
   4341  0000					      jr	hmltdir
   4342  0000
hero.asm (4343): error: Unknown Mnemonic 'or'.
   4343  0000				   hmlttst3   or	a
hero.asm (4344): error: Unknown Mnemonic 'jr'.
   4344  0000					      jr	nz,hmltdir
   4345  0000
hero.asm (4346): error: Unknown Mnemonic 'ld'.
   4346  0000					      ld	a,yl
hero.asm (4347): error: Unknown Mnemonic 'ld'.
   4347  0000					      ld	(newherox),a
   4348  0000
hero.asm (4349): error: Unknown Mnemonic 'pop'.
   4349  0000				   hmltdir    pop	af
   4350  0000
hero.asm (4351): error: Unknown Mnemonic 'bit'.
   4351  0000				   joytst     bit	joyright,a	;joystick right ---------------------------
hero.asm (4352): error: Unknown Mnemonic 'jr'.
   4352  0000					      jr	z,joytst2
   4353  0000
hero.asm (4354): error: Unknown Mnemonic 'push'.
   4354  0000					      push	af
hero.asm (4355): error: Unknown Mnemonic 'ld'.
   4355  0000					      ld	a,(herodir)
hero.asm (4356): error: Unknown Mnemonic 'or'.
   4356  0000					      or	a
hero.asm (4357): error: Unknown Mnemonic 'jr'.
   4357  0000					      jr	z,herorigh
hero.asm (4358): error: Unknown Mnemonic 'xor'.
   4358  0000					      xor	a
hero.asm (4359): error: Unknown Mnemonic 'ld'.
   4359  0000					      ld	(herodir),a
hero.asm (4360): error: Unknown Mnemonic 'jr'.
   4360  0000					      jr	hmrtdir
   4361  0000
hero.asm (4362): error: Unknown Mnemonic 'ld'.
   4362  0000				   herorigh   ld	a,1
hero.asm (4363): error: Unknown Mnemonic 'ld'.
   4363  0000					      ld	(horunng),a
hero.asm (4364): error: Unknown Mnemonic 'ld'.
   4364  0000					      ld	a,(newherox)	;top collision with level blocks?
hero.asm (4365): error: Unknown Mnemonic 'cp'.
   4365  0000					      cp	76	;hero right
hero.asm (4366): error: Unknown Mnemonic 'jr'.
   4366  0000					      jr	nz,hmrt
hero.asm (4367): error: Unknown Mnemonic 'call'.
   4367  0000					      call	rightscreen
hero.asm (4368): error: Unknown Mnemonic 'jr'.
   4368  0000					      jr	hmrtdir
hero.asm (4369): error: Unknown Mnemonic 'add'.
   4369  0000				   hmrt       add	4
hero.asm (4370): error: Unknown Mnemonic 'ld'.
   4370  0000					      ld	yl,a
hero.asm (4371): error: Unknown Mnemonic 'ld'.
   4371  0000					      ld	b,a
hero.asm (4372): error: Unknown Mnemonic 'ld'.
   4372  0000					      ld	a,(newheroy)
hero.asm (4373): error: Unknown Mnemonic 'ld'.
   4373  0000					      ld	c,a
hero.asm (4374): error: Unknown Mnemonic 'call'.
   4374  0000					      call	getstage
   4375  0000
hero.asm (4376): error: Unknown Mnemonic 'bit'.
   4376  0000					      bit	7,a
hero.asm (4377): error: Unknown Mnemonic 'jr'.
   4377  0000					      jr	z,hmrttst2
hero.asm (4378): error: Unknown Mnemonic 'ld'.
   4378  0000					      ld	a,(heroclsn)
   4379  0000					      set	col_flag_flashw,a
hero.asm (4380): error: Unknown Mnemonic 'ld'.
   4380  0000					      ld	(heroclsn),a
hero.asm (4381): error: Unknown Mnemonic 'jr'.
   4381  0000					      jr	hmrtdir
   4382  0000
hero.asm (4383): error: Unknown Mnemonic 'or'.
   4383  0000				   hmrttst2   or	a
hero.asm (4384): error: Unknown Mnemonic 'jr'.
   4384  0000					      jr	nz,hmrtdir
hero.asm (4385): error: Unknown Mnemonic 'ld'.
   4385  0000					      ld	b,yl
hero.asm (4386): error: Unknown Mnemonic 'ld'.
   4386  0000					      ld	a,(newheroy)
hero.asm (4387): error: Unknown Mnemonic 'add'.
   4387  0000					      add	heroheight	;hero height incl roto
hero.asm (4388): error: Unknown Mnemonic 'ld'.
   4388  0000					      ld	c,a
hero.asm (4389): error: Unknown Mnemonic 'call'.
   4389  0000					      call	getstage
   4390  0000
hero.asm (4391): error: Unknown Mnemonic 'bit'.
   4391  0000					      bit	7,a
hero.asm (4392): error: Unknown Mnemonic 'jr'.
   4392  0000					      jr	z,hmrttst3
hero.asm (4393): error: Unknown Mnemonic 'ld'.
   4393  0000					      ld	a,(heroclsn)
   4394  0000					      set	col_flag_flashw,a
hero.asm (4395): error: Unknown Mnemonic 'ld'.
   4395  0000					      ld	(heroclsn),a
hero.asm (4396): error: Unknown Mnemonic 'jr'.
   4396  0000					      jr	hmrtdir
   4397  0000
hero.asm (4398): error: Unknown Mnemonic 'or'.
   4398  0000				   hmrttst3   or	a
hero.asm (4399): error: Unknown Mnemonic 'jr'.
   4399  0000					      jr	nz,hmrtdir
   4400  0000
hero.asm (4401): error: Unknown Mnemonic 'ld'.
   4401  0000					      ld	a,(newherox)
hero.asm (4402): error: Unknown Mnemonic 'inc'.
   4402  0000					      inc	a
hero.asm (4403): error: Unknown Mnemonic 'ld'.
   4403  0000					      ld	(newherox),a
   4404  0000
hero.asm (4405): error: Unknown Mnemonic 'pop'.
   4405  0000				   hmrtdir    pop	af
   4406  0000
hero.asm (4407): error: Unknown Mnemonic 'bit'.
   4407  0000				   joytst2    bit	joyup,a	;joystick up ------------------------------
hero.asm (4408): error: Unknown Mnemonic 'jp'.
   4408  0000					      jp	z,homvfall
   4409  0000
   4410  0000							;raising
hero.asm (4411): error: Unknown Mnemonic 'ld'.
   4411  0000				   homvrais   ld	a,(houpdly)	;hero is raising -> increase delay
hero.asm (4412): error: Unknown Mnemonic 'cp'.
   4412  0000					      cp	herodlybordertop
hero.asm (4413): error: Unknown Mnemonic 'jr'.
   4413  0000					      jr	z,herytest
hero.asm (4414): error: Unknown Mnemonic 'inc'.
   4414  0000					      inc	a
hero.asm (4415): error: Unknown Mnemonic 'ld'.
   4415  0000					      ld	(houpdly),a
hero.asm (4416): error: Unknown Mnemonic 'jr'.
   4416  0000					      jr	herytest
   4417  0000
hero.asm (4418): error: Unknown Mnemonic 'ld'.
   4418  0000				   homvfall   ld	a,(houpdly)	;hero is falling -> decrease delay
hero.asm (4419): error: Unknown Mnemonic 'or'.
   4419  0000					      or	a
hero.asm (4420): error: Unknown Mnemonic 'jr'.
   4420  0000					      jr	z,herytest
hero.asm (4421): error: Unknown Mnemonic 'dec'.
   4421  0000					      dec	a
hero.asm (4422): error: Unknown Mnemonic 'ld'.
   4422  0000					      ld	(houpdly),a
   4423  0000
hero.asm (4424): error: Unknown Mnemonic 'cp'.
   4424  0000				   herytest   cp	herodlyborderdzbottom
hero.asm (4425): error: Unknown Mnemonic 'jr'.
   4425  0000					      jr	c,herofall
hero.asm (4426): error: Unknown Mnemonic 'cp'.
   4426  0000					      cp	herodlyborderdztop
hero.asm (4427): error: Unknown Mnemonic 'jr'.
   4427  0000					      jr	nc,herorais
hero.asm (4428): error: Unknown Mnemonic 'jp'.
   4428  0000					      jp	joytst3
   4429  0000
hero.asm (4430): error: Unknown Mnemonic 'sub'.
   4430  0000				   herorais   sub	herodlyborderdztop
hero.asm (4431): error: Unknown Mnemonic 'ld'.
   4431  0000					      ld	b,a
hero.asm (4432): error: Unknown Mnemonic 'inc'.
   4432  0000					      inc	b
hero.asm (4433): error: Unknown Mnemonic 'xor'.
   4433  0000					      xor	a ! ld (heroonraft),a
hero.asm (4434): error: Unknown Mnemonic 'ld'.
   4434  0000					      ld	a,(newheroy)
hero.asm (4435): error: Unknown Mnemonic 'sub'.
   4435  0000					      sub	b	;!!!!!
hero.asm (4436): error: Unknown Mnemonic 'jr'.
   4436  0000					      jr	c,houpscr
   4437  0000
hero.asm (4438): error: Unknown Mnemonic 'or'.
   4438  0000					      or	1
hero.asm (4439): error: Unknown Mnemonic 'jr'.
   4439  0000					      jr	z,herorai2
hero.asm (4440): error: Unknown Mnemonic 'jr'.
   4440  0000					      jr	nc,herorai2
   4441  0000
hero.asm (4442): error: Unknown Mnemonic 'call'.
   4442  0000				   houpscr    call	upscreen
hero.asm (4443): error: Unknown Mnemonic 'jp'.
   4443  0000					      jp	joytst3
hero.asm (4444): error: Unknown Mnemonic 'ld'.
   4444  0000				   herorai2   ld	(newheroy),a
   4445  0000
hero.asm (4446): error: Unknown Mnemonic 'ld'.
   4446  0000					      ld	b,4	;wall test lower
hero.asm (4447): error: Unknown Mnemonic 'push'.
   4447  0000				   raistest   push	bc
hero.asm (4448): error: Unknown Mnemonic 'ld'.
   4448  0000					      ld	a,(newherox)
hero.asm (4449): error: Unknown Mnemonic 'add'.
   4449  0000					      add	b
hero.asm (4450): error: Unknown Mnemonic 'dec'.
   4450  0000					      dec	a
hero.asm (4451): error: Unknown Mnemonic 'ld'.
   4451  0000					      ld	b,a
hero.asm (4452): error: Unknown Mnemonic 'ld'.
   4452  0000					      ld	a,(newheroy)
hero.asm (4453): error: Unknown Mnemonic 'dec'.
   4453  0000					      dec	a
hero.asm (4454): error: Unknown Mnemonic 'ld'.
   4454  0000					      ld	c,a
hero.asm (4455): error: Unknown Mnemonic 'call'.
   4455  0000					      call	getstage
   4456  0000
hero.asm (4457): error: Unknown Mnemonic 'bit'.
   4457  0000					      bit	7,a
hero.asm (4458): error: Unknown Mnemonic 'jr'.
   4458  0000					      jr	z,hmuptst2
hero.asm (4459): error: Unknown Mnemonic 'ld'.
   4459  0000					      ld	a,(heroclsn)
   4460  0000					      set	col_flag_flashw,a
hero.asm (4461): error: Unknown Mnemonic 'ld'.
   4461  0000					      ld	(heroclsn),a
hero.asm (4462): error: Unknown Mnemonic 'jr'.
   4462  0000					      jr	herowalc
   4463  0000
hero.asm (4464): error: Unknown Mnemonic 'or'.
   4464  0000				   hmuptst2   or	a
hero.asm (4465): error: Unknown Mnemonic 'jr'.
   4465  0000					      jr	nz,herowalc
hero.asm (4466): error: Unknown Mnemonic 'pop'.
   4466  0000					      pop	bc
hero.asm (4467): error: Unknown Mnemonic 'djnz'.
   4467  0000					      djnz	raistest
hero.asm (4468): error: Unknown Mnemonic 'ld'.
   4468  0000					      ld	a,1
hero.asm (4469): error: Unknown Mnemonic 'ld'.
   4469  0000					      ld	(herofly),a
hero.asm (4470): error: Unknown Mnemonic 'jp'.
   4470  0000					      jp	joytst3	;no wall collision -> next joy test		      
   4471  0000
hero.asm (4472): error: Unknown Mnemonic 'pop'.
   4472  0000				   herowalc   pop	af
hero.asm (4473): error: Unknown Mnemonic 'ld'.
   4473  0000					      ld	a,c
hero.asm (4474): error: Unknown Mnemonic 'or'.
   4474  0000					      or	a
hero.asm (4475): error: Unknown Mnemonic 'jr'.
   4475  0000					      jr	nz,herowal2
hero.asm (4476): error: Unknown Mnemonic 'ld'.
   4476  0000					      ld	a,53+topoffset
hero.asm (4477): error: Unknown Mnemonic 'jr'.
   4477  0000					      jr	herowal3
hero.asm (4478): error: Unknown Mnemonic 'ld'.
   4478  0000				   herowal2   ld	a,92+topoffset	;wall collision
hero.asm (4479): error: Unknown Mnemonic 'ld'.
   4479  0000				   herowal3   ld	(newheroy),a
hero.asm (4480): error: Unknown Mnemonic 'ld'.
   4480  0000					      ld	a,1
hero.asm (4481): error: Unknown Mnemonic 'ld'.
   4481  0000					      ld	(herofly),a
hero.asm (4482): error: Unknown Mnemonic 'jp'.
   4482  0000					      jp	joytst3
   4483  0000
   4484  0000							;falling
hero.asm (4485): error: Unknown Mnemonic 'ld'.
   4485  0000				   herofall   ld	b,a
hero.asm (4486): error: Unknown Mnemonic 'ld'.
   4486  0000					      ld	a,herodlyborderdzbottom
hero.asm (4487): error: Unknown Mnemonic 'sub'.
   4487  0000					      sub	b
hero.asm (4488): error: Unknown Mnemonic 'ld'.
   4488  0000					      ld	b,a
hero.asm (4489): error: Unknown Mnemonic 'xor'.
   4489  0000					      xor	a ! ld (heroonraft),a
hero.asm (4490): error: Unknown Mnemonic 'ld'.
   4490  0000					      ld	a,(newheroy)
hero.asm (4491): error: Unknown Mnemonic 'add'.
   4491  0000					      add	b	;!!!!!!
hero.asm (4492): error: Unknown Mnemonic 'cp'.
   4492  0000					      cp	lowernextscreen	;next screen?
hero.asm (4493): error: Unknown Mnemonic 'jr'.
   4493  0000					      jr	c,herofal2
hero.asm (4494): error: Unknown Mnemonic 'call'.
   4494  0000					      call	downscreen
hero.asm (4495): error: Unknown Mnemonic 'jp'.
   4495  0000					      jp	joytst3
hero.asm (4496): error: Unknown Mnemonic 'ld'.
   4496  0000				   herofal2   ld	(newheroy),a
   4497  0000
hero.asm (4498): error: Unknown Mnemonic 'ld'.
   4498  0000					      ld	b,4	;wall test lower
hero.asm (4499): error: Unknown Mnemonic 'push'.
   4499  0000				   falltest   push	bc
hero.asm (4500): error: Unknown Mnemonic 'ld'.
   4500  0000					      ld	a,(newherox)
hero.asm (4501): error: Unknown Mnemonic 'add'.
   4501  0000					      add	b
hero.asm (4502): error: Unknown Mnemonic 'dec'.
   4502  0000					      dec	a
hero.asm (4503): error: Unknown Mnemonic 'ld'.
   4503  0000					      ld	b,a
hero.asm (4504): error: Unknown Mnemonic 'ld'.
   4504  0000					      ld	a,(newheroy)
hero.asm (4505): error: Unknown Mnemonic 'add'.
   4505  0000					      add	heroheight+1
hero.asm (4506): error: Unknown Mnemonic 'ld'.
   4506  0000					      ld	c,a
hero.asm (4507): error: Unknown Mnemonic 'call'.
   4507  0000					      call	getstagewithwater
   4508  0000
hero.asm (4509): error: Unknown Mnemonic 'bit'.
   4509  0000					      bit	7,a
hero.asm (4510): error: Unknown Mnemonic 'jr'.
   4510  0000					      jr	z,hmuptst3
hero.asm (4511): error: Unknown Mnemonic 'ld'.
   4511  0000					      ld	a,(heroclsn)
   4512  0000					      set	col_flag_flashw,a
hero.asm (4513): error: Unknown Mnemonic 'ld'.
   4513  0000					      ld	(heroclsn),a
hero.asm (4514): error: Unknown Mnemonic 'jr'.
   4514  0000					      jr	herostnd
hero.asm (4515): error: Unknown Mnemonic 'bit'.
   4515  0000				   hmuptst3   bit	6,a
hero.asm (4516): error: Unknown Mnemonic 'jr'.
   4516  0000					      jr	z,hmuptst4
hero.asm (4517): error: Unknown Mnemonic 'ld'.
   4517  0000					      ld	yl,a
   4518  0000
hero.asm (4519): error: Unknown Mnemonic 'ld'.
   4519  0000					      ld	hl,(clvptrb1)	;RAFT ITEM MUST BE THE FIRST ITEM IN LIST!!
hero.asm (4520): error: Unknown Mnemonic 'ld'.
   4520  0000					      ld	de,120+4+1
hero.asm (4521): error: Unknown Mnemonic 'add'.
   4521  0000					      add	hl,de
hero.asm (4522): error: Unknown Mnemonic 'ld'.
   4522  0000					      ld	a,(hl)
hero.asm (4523): error: Unknown Mnemonic 'cp'.
   4523  0000					      cp	item_raft
hero.asm (4524): error: Unknown Mnemonic 'jr'.
   4524  0000					      jr	nz,hmwatnor
hero.asm (4525): error: Unknown Mnemonic 'ld'.
   4525  0000					      ld	a,(newheroy)
hero.asm (4526): error: Unknown Mnemonic 'cp'.
   4526  0000					      cp	101+topoffset
hero.asm (4527): error: Unknown Mnemonic 'jr'.
   4527  0000					      jr	c,hmwatnor	;no possible y collision with raft
   4528  0000
hero.asm (4529): error: Unknown Mnemonic 'inc'.
   4529  0000					      inc	hl	;skip sprite-anim
hero.asm (4530): error: Unknown Mnemonic 'inc'.
   4530  0000					      inc	hl
hero.asm (4531): error: Unknown Mnemonic 'inc'.
   4531  0000					      inc	hl
hero.asm (4532): error: Unknown Mnemonic 'ld'.
   4532  0000					      ld	a,(newherox)
hero.asm (4533): error: Unknown Mnemonic 'add'.
   4533  0000					      add	3
hero.asm (4534): error: Unknown Mnemonic 'ld'.
   4534  0000					      ld	b,(hl)	;x pos of raft
hero.asm (4535): error: Unknown Mnemonic 'sub'.
   4535  0000					      sub	b
hero.asm (4536): error: Unknown Mnemonic 'jr'.
   4536  0000					      jr	z,raftcols
hero.asm (4537): error: Unknown Mnemonic 'jr'.
   4537  0000					      jr	c,hmwatnor
hero.asm (4538): error: Unknown Mnemonic 'sub'.
   4538  0000				   raftcols   sub	8
hero.asm (4539): error: Unknown Mnemonic 'jr'.
   4539  0000					      jr	nc,hmwatnor
   4540  0000
hero.asm (4541): error: Unknown Mnemonic 'pop'.
   4541  0000					      pop	af
hero.asm (4542): error: Unknown Mnemonic 'ld'.
   4542  0000					      ld	a,1
hero.asm (4543): error: Unknown Mnemonic 'ld'.
   4543  0000					      ld	(heroonraft),a
hero.asm (4544): error: Unknown Mnemonic 'ld'.
   4544  0000					      ld	a,101+topoffset
hero.asm (4545): error: Unknown Mnemonic 'jr'.
   4545  0000					      jr	herstdwy
   4546  0000
hero.asm (4547): error: Unknown Mnemonic 'ld'.
   4547  0000				   hmwatnor   ld	a,(newheroy)	;no raft
hero.asm (4548): error: Unknown Mnemonic 'cp'.
   4548  0000					      cp	102+topoffset
hero.asm (4549): error: Unknown Mnemonic 'jr'.
   4549  0000					      jr	c,hmuptstr
hero.asm (4550): error: Unknown Mnemonic 'ld'.
   4550  0000					      ld	a,(heroclsn)
   4551  0000					      set	col_flag_water,a
hero.asm (4552): error: Unknown Mnemonic 'ld'.
   4552  0000					      ld	(heroclsn),a
hero.asm (4553): error: Unknown Mnemonic 'ld'.
   4553  0000					      ld	a,102+topoffset
hero.asm (4554): error: Unknown Mnemonic 'ld'.
   4554  0000					      ld	(newheroy),a
hero.asm (4555): error: Unknown Mnemonic 'pop'.
   4555  0000					      pop	af
hero.asm (4556): error: Unknown Mnemonic 'jr'.
   4556  0000					      jr	joytst3
   4557  0000
hero.asm (4558): error: Unknown Mnemonic 'ld'.
   4558  0000				   hmuptstr   ld	a,yl
hero.asm (4559): error: Unknown Mnemonic 'bit'.
   4559  0000					      bit	6,a
hero.asm (4560): error: Unknown Mnemonic 'jr'.
   4560  0000					      jr	nz,hmuptst5
hero.asm (4561): error: Unknown Mnemonic 'or'.
   4561  0000				   hmuptst4   or	a
hero.asm (4562): error: Unknown Mnemonic 'jr'.
   4562  0000					      jr	nz,herostnd
hero.asm (4563): error: Unknown Mnemonic 'pop'.
   4563  0000				   hmuptst5   pop	bc
hero.asm (4564): error: Unknown Mnemonic 'djnz'.
   4564  0000					      djnz	falltest
hero.asm (4565): error: Unknown Mnemonic 'ld'.
   4565  0000					      ld	a,1
hero.asm (4566): error: Unknown Mnemonic 'ld'.
   4566  0000					      ld	(herofly),a
hero.asm (4567): error: Unknown Mnemonic 'jr'.
   4567  0000					      jr	joytst3	;no wall collision -> next joy test		      
   4568  0000
hero.asm (4569): error: Unknown Mnemonic 'pop'.
   4569  0000				   herostnd   pop	af
hero.asm (4570): error: Unknown Mnemonic 'ld'.
   4570  0000					      ld	a,c
hero.asm (4571): error: Unknown Mnemonic 'cp'.
   4571  0000					      cp	1
hero.asm (4572): error: Unknown Mnemonic 'jr'.
   4572  0000					      jr	nz,herstnd2
hero.asm (4573): error: Unknown Mnemonic 'ld'.
   4573  0000					      ld	a,28+topoffset
hero.asm (4574): error: Unknown Mnemonic 'jr'.
   4574  0000					      jr	herstdwy
hero.asm (4575): error: Unknown Mnemonic 'ld'.
   4575  0000				   herstnd2   ld	a,67+topoffset	;wall collision -> hero is standing
hero.asm (4576): error: Unknown Mnemonic 'ld'.
   4576  0000				   herstdwy   ld	(newheroy),a
hero.asm (4577): error: Unknown Mnemonic 'ld'.
   4577  0000					      ld	a,0
hero.asm (4578): error: Unknown Mnemonic 'ld'.
   4578  0000					      ld	(herofly),a
   4579  0000							;ld   a,herodlymiddle	     ;this commented code makes...
   4580  0000							;ld   (houpdly),a	     ;...falling from a cliff too smooth!!!!			      
   4581  0000
   4582  0000				   joytst3		;raft movement -> no hero x move!!
hero.asm (4583): error: Unknown Mnemonic 'ld'.
   4583  0000					      ld	a,(heroonraft)
hero.asm (4584): error: Unknown Mnemonic 'or'.
   4584  0000					      or	a
hero.asm (4585): error: Unknown Mnemonic 'jr'.
   4585  0000					      jr	z,joytst4
hero.asm (4586): error: Unknown Mnemonic 'ld'.
   4586  0000					      ld	a,(raftherox)
hero.asm (4587): error: Unknown Mnemonic 'ld'.
   4587  0000					      ld	(newherox),a
hero.asm (4588): error: Unknown Mnemonic 'xor'.
   4588  0000					      xor	a
hero.asm (4589): error: Unknown Mnemonic 'ld'.
   4589  0000					      ld	(horunng),a
   4590  0000
hero.asm (4591): error: Unknown Mnemonic 'ld'.
   4591  0000				   joytst4    ld	a,(joybyte)	;joystick down -> PLACE BOMB --------------
hero.asm (4592): error: Unknown Mnemonic 'bit'.
   4592  0000					      bit	joydown,a
hero.asm (4593): error: Unknown Mnemonic 'ret'.
   4593  0000					      ret	z
hero.asm (4594): error: Unknown Mnemonic 'ld'.
   4594  0000					      ld	a,(herofly)
hero.asm (4595): error: Unknown Mnemonic 'cp'.
   4595  0000					      cp	1
hero.asm (4596): error: Unknown Mnemonic 'ret'.
   4596  0000					      ret	z
hero.asm (4597): error: Unknown Mnemonic 'ld'.
   4597  0000					      ld	a,(bombset)
hero.asm (4598): error: Unknown Mnemonic 'cp'.
   4598  0000					      cp	0
hero.asm (4599): error: Unknown Mnemonic 'ret'.
   4599  0000					      ret	nz
hero.asm (4600): error: Unknown Mnemonic 'ld'.
   4600  0000					      ld	a,(bombs)
hero.asm (4601): error: Unknown Mnemonic 'or'.
   4601  0000					      or	a
hero.asm (4602): error: Unknown Mnemonic 'ret'.
   4602  0000					      ret	z
hero.asm (4603): error: Unknown Mnemonic 'ld'.
   4603  0000					      ld	a,bombdly	;place bomb
hero.asm (4604): error: Unknown Mnemonic 'ld'.
   4604  0000					      ld	(bombset),a
hero.asm (4605): error: Unknown Mnemonic 'ld'.
   4605  0000					      ld	a,(curscrn)	;copy...
hero.asm (4606): error: Unknown Mnemonic 'ld'.
   4606  0000					      ld	(bombscrn),a	;...screen info
hero.asm (4607): error: Unknown Mnemonic 'ld'.
   4607  0000					      ld	hl,clvptrb1	;
hero.asm (4608): error: Unknown Mnemonic 'ld'.
   4608  0000					      ld	de,dlwptrb1	;
hero.asm (4609): error: Unknown Mnemonic 'ld'.
   4609  0000					      ld	bc,6	;
hero.asm (4610): error: Unknown Mnemonic 'ldir'.
   4610  0000					      ldir		;
hero.asm (4611): error: Unknown Mnemonic 'ld'.
   4611  0000					      ld	a,(newherox)
hero.asm (4612): error: Unknown Mnemonic 'inc'.
   4612  0000					      inc	a
hero.asm (4613): error: Unknown Mnemonic 'ld'.
   4613  0000					      ld	(bombx),a
hero.asm (4614): error: Unknown Mnemonic 'ld'.
   4614  0000					      ld	b,a
hero.asm (4615): error: Unknown Mnemonic 'ld'.
   4615  0000					      ld	a,(newheroy)
hero.asm (4616): error: Unknown Mnemonic 'add'.
   4616  0000					      add	13
hero.asm (4617): error: Unknown Mnemonic 'ld'.
   4617  0000					      ld	(bomby),a
hero.asm (4618): error: Unknown Mnemonic 'ld'.
   4618  0000					      ld	c,a
hero.asm (4619): error: Unknown Mnemonic 'ret'.
   4619  0000					      ret
   4620  0000
   4621  0000		       00 11	   herodlybordertop equ	17
   4622  0000		       00 08	   herodlymiddle equ	8
   4623  0000		       00 00	   herodlyborderbottom equ	0
   4624  0000		       00 0c	   herodlyborderdztop equ	12
   4625  0000		       00 05	   herodlyborderdzbottom equ	herodlybordertop-herodlyborderdztop
   4626  0000
   4627  0000		       00 02	   heroraftmovedelay equ	2
   4628  0000
hero.asm (4629): error: Unknown Mnemonic 'db'.
   4629  0000				   houpdly    db	0
hero.asm (4630): error: Unknown Mnemonic 'db'.
   4630  0000				   horunng    db	0
hero.asm (4631): error: Unknown Mnemonic 'db'.
   4631  0000				   heroonraft db	0
hero.asm (4632): error: Unknown Mnemonic 'db'.
   4632  0000				   heroraftdly db	heroraftmovedelay
hero.asm (4633): error: Unknown Mnemonic 'db'.
   4633  0000				   raftherox  db	0
   4634  0000
   4635  0000							;-------------------------------------------------------------------------------
   4636  0000							;getstage    
   4637  0000							;in:  b=x, c=y
   4638  0000							;out: a=block,c=stage,de=level address
   4639  0000							;
   4640  0000
   4641  0000				   getstage
hero.asm (4642): error: Unknown Mnemonic 'call'.
   4642  0000					      call	getstagewithwater
hero.asm (4643): error: Unknown Mnemonic 'bit'.
   4643  0000					      bit	6,a
hero.asm (4644): error: Unknown Mnemonic 'ret'.
   4644  0000					      ret	z
hero.asm (4645): error: Unknown Mnemonic 'xor'.
   4645  0000					      xor	a
hero.asm (4646): error: Unknown Mnemonic 'ret'.
   4646  0000					      ret
   4647  0000
   4648  0000				   getstagewithwater
hero.asm (4649): error: Unknown Mnemonic 'push'.
   4649  0000					      push	hl
hero.asm (4650): error: Unknown Mnemonic 'ld'.
   4650  0000					      ld	a,b
hero.asm (4651): error: Unknown Mnemonic 'srl'.
   4651  0000					      srl	a
hero.asm (4652): error: Unknown Mnemonic 'ld'.
   4652  0000					      ld	l,a
   4653  0000
hero.asm (4654): error: Unknown Mnemonic 'ld'.
   4654  0000					      ld	a,c
hero.asm (4655): error: Unknown Mnemonic 'sub'.
   4655  0000					      sub	13+topoffset
hero.asm (4656): error: Unknown Mnemonic 'jr'.
   4656  0000					      jr	nc,gstdiv5
hero.asm (4657): error: Unknown Mnemonic 'xor'.
   4657  0000					      xor	a
hero.asm (4658): error: Unknown Mnemonic 'ld'.
   4658  0000				   gstdiv5    ld	e,a
hero.asm (4659): error: Unknown Mnemonic 'ld'.
   4659  0000					      ld	c,39
hero.asm (4660): error: Unknown Mnemonic 'xor'.
   4660  0000					      xor	a
hero.asm (4661): error: Unknown Mnemonic 'ld'.
   4661  0000					      ld	b,8
hero.asm (4662): error: Unknown Mnemonic 'rl'.
   4662  0000				   gstdiv     rl	e
hero.asm (4663): error: Unknown Mnemonic 'rla'.
   4663  0000					      rla
hero.asm (4664): error: Unknown Mnemonic 'sub'.
   4664  0000					      sub	c
hero.asm (4665): error: Unknown Mnemonic 'jr'.
   4665  0000					      jr	nc,gstdiv2
hero.asm (4666): error: Unknown Mnemonic 'add'.
   4666  0000					      add	a,c
hero.asm (4667): error: Unknown Mnemonic 'djnz'.
   4667  0000				   gstdiv2    djnz	gstdiv
hero.asm (4668): error: Unknown Mnemonic 'ld'.
   4668  0000					      ld	a,e
hero.asm (4669): error: Unknown Mnemonic 'rla'.
   4669  0000					      rla
hero.asm (4670): error: Unknown Mnemonic 'cpl'.
   4670  0000					      cpl
   4671  0000
hero.asm (4672): error: Unknown Mnemonic 'cp'.
   4672  0000					      cp	3
hero.asm (4673): error: Unknown Mnemonic 'jr'.
   4673  0000					      jr	nz,gst3
hero.asm (4674): error: Unknown Mnemonic 'ld'.
   4674  0000					      ld	a,2
hero.asm (4675): error: Unknown Mnemonic 'ld'.
   4675  0000				   gst3       ld	(gstpatch+1),a
hero.asm (4676): error: Unknown Mnemonic 'or'.
   4676  0000					      or	a
hero.asm (4677): error: Unknown Mnemonic 'jr'.
   4677  0000					      jr	z,gstdiv4
hero.asm (4678): error: Unknown Mnemonic 'ld'.
   4678  0000					      ld	b,a
hero.asm (4679): error: Unknown Mnemonic 'xor'.
   4679  0000					      xor	a
hero.asm (4680): error: Unknown Mnemonic 'add'.
   4680  0000				   gstdiv3    add	40
hero.asm (4681): error: Unknown Mnemonic 'djnz'.
   4681  0000					      djnz	gstdiv3
   4682  0000
hero.asm (4683): error: Unknown Mnemonic 'add'.
   4683  0000				   gstdiv4    add	l
hero.asm (4684): error: Unknown Mnemonic 'ld'.
   4684  0000					      ld	e,a
hero.asm (4685): error: Unknown Mnemonic 'ld'.
   4685  0000					      ld	d,0
hero.asm (4686): error: Unknown Mnemonic 'ld'.
   4686  0000					      ld	hl,(clvptrb1)	;
hero.asm (4687): error: Unknown Mnemonic 'add'.
   4687  0000					      add	hl,de	;
   4688  0000
hero.asm (4689): error: Unknown Mnemonic 'ld'.
   4689  0000					      ld	a,(hl)
hero.asm (4690): error: Unknown Mnemonic 'ld'.
   4690  0000				   gstpatch   ld	c,0
hero.asm (4691): error: Unknown Mnemonic 'ex'.
   4691  0000					      ex	de,hl
hero.asm (4692): error: Unknown Mnemonic 'pop'.
   4692  0000					      pop	hl
hero.asm (4693): error: Unknown Mnemonic 'ret'.
   4693  0000					      ret
   4694  0000
   4695  0000							;-------------------------------------------------------------------------------
   4696  0000							;draw hero
   4697  0000							;(not really nice to read, but fast)
   4698  0000							;
   4699  0000				   drawhero
hero.asm (4700): error: Unknown Mnemonic 'ld'.
   4700  0000					      ld	a,(herofly)	;is hero running?
hero.asm (4701): error: Unknown Mnemonic 'or'.
   4701  0000					      or	a
hero.asm (4702): error: Unknown Mnemonic 'jp'.
   4702  0000					      jp	z,dwhorun
   4703  0000
hero.asm (4704): error: Unknown Mnemonic 'ld'.
   4704  0000					      ld	a,(herodir)	;draw hero left or right
hero.asm (4705): error: Unknown Mnemonic 'or'.
   4705  0000					      or	a
hero.asm (4706): error: Unknown Mnemonic 'jp'.
   4706  0000					      jp	nz,heroleft
   4707  0000
hero.asm (4708): error: Unknown Mnemonic 'ld'.
   4708  0000					      ld	a,(rotostat)	;hero right -------------------------------
   4709  0000
hero.asm (4710): error: Unknown Mnemonic 'cp'.
   4710  0000					      cp	0	;roto 100%
hero.asm (4711): error: Unknown Mnemonic 'jr'.
   4711  0000					      jr	nz,hort50r
hero.asm (4712): error: Unknown Mnemonic 'inc'.
   4712  0000					      inc	a
hero.asm (4713): error: Unknown Mnemonic 'ld'.
   4713  0000					      ld	(rotostat),a
hero.asm (4714): error: Unknown Mnemonic 'ld'.
   4714  0000					      ld	a,(newherox)
hero.asm (4715): error: Unknown Mnemonic 'ld'.
   4715  0000					      ld	b,a
hero.asm (4716): error: Unknown Mnemonic 'ld'.
   4716  0000					      ld	a,(newheroy)
hero.asm (4717): error: Unknown Mnemonic 'ld'.
   4717  0000					      ld	c,a
hero.asm (4718): error: Unknown Mnemonic 'ld'.
   4718  0000					      ld	hl,roto100r
hero.asm (4719): error: Unknown Mnemonic 'ld'.
   4719  0000					      ld	de,&0403
hero.asm (4720): error: Unknown Mnemonic 'push'.
   4720  0000					      push	bc
hero.asm (4721): error: Unknown Mnemonic 'call'.
   4721  0000					      call	drawsprite_or
hero.asm (4722): error: Unknown Mnemonic 'pop'.
   4722  0000					      pop	bc
hero.asm (4723): error: Unknown Mnemonic 'inc'.
   4723  0000					      inc	c
hero.asm (4724): error: Unknown Mnemonic 'inc'.
   4724  0000					      inc	c
hero.asm (4725): error: Unknown Mnemonic 'inc'.
   4725  0000					      inc	c
hero.asm (4726): error: Unknown Mnemonic 'ld'.
   4726  0000					      ld	hl,hoflyr
hero.asm (4727): error: Unknown Mnemonic 'ld'.
   4727  0000					      ld	de,&0415
hero.asm (4728): error: Unknown Mnemonic 'call'.
   4728  0000					      call	drawsprite_or
hero.asm (4729): error: Unknown Mnemonic 'call'.
   4729  0000					      call	makerotosound
hero.asm (4730): error: Unknown Mnemonic 'ret'.
   4730  0000					      ret
   4731  0000
hero.asm (4732): error: Unknown Mnemonic 'cp'.
   4732  0000				   hort50r    cp	1	;roto 50%
hero.asm (4733): error: Unknown Mnemonic 'jr'.
   4733  0000					      jr	nz,hort0r
hero.asm (4734): error: Unknown Mnemonic 'inc'.
   4734  0000					      inc	a
hero.asm (4735): error: Unknown Mnemonic 'ld'.
   4735  0000					      ld	(rotostat),a
hero.asm (4736): error: Unknown Mnemonic 'ld'.
   4736  0000					      ld	a,(newherox)
hero.asm (4737): error: Unknown Mnemonic 'ld'.
   4737  0000					      ld	b,a
hero.asm (4738): error: Unknown Mnemonic 'ld'.
   4738  0000					      ld	a,(newheroy)
hero.asm (4739): error: Unknown Mnemonic 'ld'.
   4739  0000					      ld	c,a
hero.asm (4740): error: Unknown Mnemonic 'ld'.
   4740  0000					      ld	hl,roto50r
hero.asm (4741): error: Unknown Mnemonic 'ld'.
   4741  0000					      ld	de,&0403
hero.asm (4742): error: Unknown Mnemonic 'push'.
   4742  0000					      push	bc
hero.asm (4743): error: Unknown Mnemonic 'call'.
   4743  0000					      call	drawsprite_or
hero.asm (4744): error: Unknown Mnemonic 'pop'.
   4744  0000					      pop	bc
hero.asm (4745): error: Unknown Mnemonic 'inc'.
   4745  0000					      inc	c
hero.asm (4746): error: Unknown Mnemonic 'inc'.
   4746  0000					      inc	c
hero.asm (4747): error: Unknown Mnemonic 'inc'.
   4747  0000					      inc	c
hero.asm (4748): error: Unknown Mnemonic 'ld'.
   4748  0000					      ld	hl,hoflyr
hero.asm (4749): error: Unknown Mnemonic 'ld'.
   4749  0000					      ld	de,&0415
hero.asm (4750): error: Unknown Mnemonic 'call'.
   4750  0000					      call	drawsprite_or
hero.asm (4751): error: Unknown Mnemonic 'call'.
   4751  0000					      call	makerotosound
hero.asm (4752): error: Unknown Mnemonic 'ret'.
   4752  0000					      ret
   4753  0000
hero.asm (4754): error: Unknown Mnemonic 'cp'.
   4754  0000				   hort0r     cp	2	;roto 0%
hero.asm (4755): error: Unknown Mnemonic 'jr'.
   4755  0000					      jr	nz,hort50r_
hero.asm (4756): error: Unknown Mnemonic 'inc'.
   4756  0000					      inc	a
hero.asm (4757): error: Unknown Mnemonic 'ld'.
   4757  0000					      ld	(rotostat),a
hero.asm (4758): error: Unknown Mnemonic 'ld'.
   4758  0000					      ld	a,(newherox)
hero.asm (4759): error: Unknown Mnemonic 'ld'.
   4759  0000					      ld	b,a
hero.asm (4760): error: Unknown Mnemonic 'ld'.
   4760  0000					      ld	a,(newheroy)
hero.asm (4761): error: Unknown Mnemonic 'ld'.
   4761  0000					      ld	c,a
hero.asm (4762): error: Unknown Mnemonic 'ld'.
   4762  0000					      ld	hl,roto0r
hero.asm (4763): error: Unknown Mnemonic 'ld'.
   4763  0000					      ld	de,&0403
hero.asm (4764): error: Unknown Mnemonic 'push'.
   4764  0000					      push	bc
hero.asm (4765): error: Unknown Mnemonic 'call'.
   4765  0000					      call	drawsprite_or
hero.asm (4766): error: Unknown Mnemonic 'pop'.
   4766  0000					      pop	bc
hero.asm (4767): error: Unknown Mnemonic 'inc'.
   4767  0000					      inc	c
hero.asm (4768): error: Unknown Mnemonic 'inc'.
   4768  0000					      inc	c
hero.asm (4769): error: Unknown Mnemonic 'inc'.
   4769  0000					      inc	c
hero.asm (4770): error: Unknown Mnemonic 'ld'.
   4770  0000					      ld	hl,hoflyr
hero.asm (4771): error: Unknown Mnemonic 'ld'.
   4771  0000					      ld	de,&0415
hero.asm (4772): error: Unknown Mnemonic 'call'.
   4772  0000					      call	drawsprite_or
hero.asm (4773): error: Unknown Mnemonic 'call'.
   4773  0000					      call	makerotosound
hero.asm (4774): error: Unknown Mnemonic 'ret'.
   4774  0000					      ret
   4775  0000
hero.asm (4776): error: Unknown Mnemonic 'xor'.
   4776  0000				   hort50r_   xor	a	;roto 50%
hero.asm (4777): error: Unknown Mnemonic 'ld'.
   4777  0000					      ld	(rotostat),a
hero.asm (4778): error: Unknown Mnemonic 'ld'.
   4778  0000					      ld	a,(newherox)
hero.asm (4779): error: Unknown Mnemonic 'ld'.
   4779  0000					      ld	b,a
hero.asm (4780): error: Unknown Mnemonic 'ld'.
   4780  0000					      ld	a,(newheroy)
hero.asm (4781): error: Unknown Mnemonic 'ld'.
   4781  0000					      ld	c,a
hero.asm (4782): error: Unknown Mnemonic 'ld'.
   4782  0000					      ld	hl,roto50r
hero.asm (4783): error: Unknown Mnemonic 'ld'.
   4783  0000					      ld	de,&0403
hero.asm (4784): error: Unknown Mnemonic 'push'.
   4784  0000					      push	bc
hero.asm (4785): error: Unknown Mnemonic 'call'.
   4785  0000					      call	drawsprite_or
hero.asm (4786): error: Unknown Mnemonic 'pop'.
   4786  0000					      pop	bc
hero.asm (4787): error: Unknown Mnemonic 'inc'.
   4787  0000					      inc	c
hero.asm (4788): error: Unknown Mnemonic 'inc'.
   4788  0000					      inc	c
hero.asm (4789): error: Unknown Mnemonic 'inc'.
   4789  0000					      inc	c
hero.asm (4790): error: Unknown Mnemonic 'ld'.
   4790  0000					      ld	hl,hoflyr
hero.asm (4791): error: Unknown Mnemonic 'ld'.
   4791  0000					      ld	de,&0415
hero.asm (4792): error: Unknown Mnemonic 'call'.
   4792  0000					      call	drawsprite_or
hero.asm (4793): error: Unknown Mnemonic 'call'.
   4793  0000					      call	makerotosound
hero.asm (4794): error: Unknown Mnemonic 'ret'.
   4794  0000					      ret
   4795  0000
hero.asm (4796): error: Unknown Mnemonic 'ld'.
   4796  0000				   heroleft   ld	a,(rotostat)	;hero left --------------------------------
hero.asm (4797): error: Unknown Mnemonic 'cp'.
   4797  0000					      cp	0	;roto 100%
hero.asm (4798): error: Unknown Mnemonic 'jr'.
   4798  0000					      jr	nz,hort50l
hero.asm (4799): error: Unknown Mnemonic 'inc'.
   4799  0000					      inc	a
hero.asm (4800): error: Unknown Mnemonic 'ld'.
   4800  0000					      ld	(rotostat),a
hero.asm (4801): error: Unknown Mnemonic 'ld'.
   4801  0000					      ld	a,(newherox)
hero.asm (4802): error: Unknown Mnemonic 'ld'.
   4802  0000					      ld	b,a
hero.asm (4803): error: Unknown Mnemonic 'ld'.
   4803  0000					      ld	a,(newheroy)
hero.asm (4804): error: Unknown Mnemonic 'ld'.
   4804  0000					      ld	c,a
hero.asm (4805): error: Unknown Mnemonic 'ld'.
   4805  0000					      ld	hl,roto100l
hero.asm (4806): error: Unknown Mnemonic 'ld'.
   4806  0000					      ld	de,&0403
hero.asm (4807): error: Unknown Mnemonic 'push'.
   4807  0000					      push	bc
hero.asm (4808): error: Unknown Mnemonic 'call'.
   4808  0000					      call	drawsprite_or
hero.asm (4809): error: Unknown Mnemonic 'pop'.
   4809  0000					      pop	bc
hero.asm (4810): error: Unknown Mnemonic 'inc'.
   4810  0000					      inc	c
hero.asm (4811): error: Unknown Mnemonic 'inc'.
   4811  0000					      inc	c
hero.asm (4812): error: Unknown Mnemonic 'inc'.
   4812  0000					      inc	c
hero.asm (4813): error: Unknown Mnemonic 'ld'.
   4813  0000					      ld	hl,hoflyl
hero.asm (4814): error: Unknown Mnemonic 'ld'.
   4814  0000					      ld	de,&0415
hero.asm (4815): error: Unknown Mnemonic 'call'.
   4815  0000					      call	drawsprite_or
hero.asm (4816): error: Unknown Mnemonic 'call'.
   4816  0000					      call	makerotosound
hero.asm (4817): error: Unknown Mnemonic 'ret'.
   4817  0000					      ret
   4818  0000
hero.asm (4819): error: Unknown Mnemonic 'cp'.
   4819  0000				   hort50l    cp	1	;roto 50%
hero.asm (4820): error: Unknown Mnemonic 'jr'.
   4820  0000					      jr	nz,hort0l
hero.asm (4821): error: Unknown Mnemonic 'inc'.
   4821  0000					      inc	a
hero.asm (4822): error: Unknown Mnemonic 'ld'.
   4822  0000					      ld	(rotostat),a
hero.asm (4823): error: Unknown Mnemonic 'ld'.
   4823  0000					      ld	a,(newherox)
hero.asm (4824): error: Unknown Mnemonic 'ld'.
   4824  0000					      ld	b,a
hero.asm (4825): error: Unknown Mnemonic 'ld'.
   4825  0000					      ld	a,(newheroy)
hero.asm (4826): error: Unknown Mnemonic 'ld'.
   4826  0000					      ld	c,a
hero.asm (4827): error: Unknown Mnemonic 'ld'.
   4827  0000					      ld	hl,roto50l
hero.asm (4828): error: Unknown Mnemonic 'ld'.
   4828  0000					      ld	de,&0403
hero.asm (4829): error: Unknown Mnemonic 'push'.
   4829  0000					      push	bc
hero.asm (4830): error: Unknown Mnemonic 'call'.
   4830  0000					      call	drawsprite_or
hero.asm (4831): error: Unknown Mnemonic 'pop'.
   4831  0000					      pop	bc
hero.asm (4832): error: Unknown Mnemonic 'inc'.
   4832  0000					      inc	c
hero.asm (4833): error: Unknown Mnemonic 'inc'.
   4833  0000					      inc	c
hero.asm (4834): error: Unknown Mnemonic 'inc'.
   4834  0000					      inc	c
hero.asm (4835): error: Unknown Mnemonic 'ld'.
   4835  0000					      ld	hl,hoflyl
hero.asm (4836): error: Unknown Mnemonic 'ld'.
   4836  0000					      ld	de,&0415
hero.asm (4837): error: Unknown Mnemonic 'call'.
   4837  0000					      call	drawsprite_or
hero.asm (4838): error: Unknown Mnemonic 'call'.
   4838  0000					      call	makerotosound
hero.asm (4839): error: Unknown Mnemonic 'ret'.
   4839  0000					      ret
   4840  0000
hero.asm (4841): error: Unknown Mnemonic 'cp'.
   4841  0000				   hort0l     cp	2	;roto 0%
hero.asm (4842): error: Unknown Mnemonic 'jr'.
   4842  0000					      jr	nz,hort50l_
hero.asm (4843): error: Unknown Mnemonic 'inc'.
   4843  0000					      inc	a
hero.asm (4844): error: Unknown Mnemonic 'ld'.
   4844  0000					      ld	(rotostat),a
hero.asm (4845): error: Unknown Mnemonic 'ld'.
   4845  0000					      ld	a,(newherox)
hero.asm (4846): error: Unknown Mnemonic 'ld'.
   4846  0000					      ld	b,a
hero.asm (4847): error: Unknown Mnemonic 'ld'.
   4847  0000					      ld	a,(newheroy)
hero.asm (4848): error: Unknown Mnemonic 'ld'.
   4848  0000					      ld	c,a
hero.asm (4849): error: Unknown Mnemonic 'ld'.
   4849  0000					      ld	hl,roto0l
hero.asm (4850): error: Unknown Mnemonic 'ld'.
   4850  0000					      ld	de,&0403
hero.asm (4851): error: Unknown Mnemonic 'push'.
   4851  0000					      push	bc
hero.asm (4852): error: Unknown Mnemonic 'call'.
   4852  0000					      call	drawsprite_or
hero.asm (4853): error: Unknown Mnemonic 'pop'.
   4853  0000					      pop	bc
hero.asm (4854): error: Unknown Mnemonic 'inc'.
   4854  0000					      inc	c
hero.asm (4855): error: Unknown Mnemonic 'inc'.
   4855  0000					      inc	c
hero.asm (4856): error: Unknown Mnemonic 'inc'.
   4856  0000					      inc	c
hero.asm (4857): error: Unknown Mnemonic 'ld'.
   4857  0000					      ld	hl,hoflyl
hero.asm (4858): error: Unknown Mnemonic 'ld'.
   4858  0000					      ld	de,&0415
hero.asm (4859): error: Unknown Mnemonic 'call'.
   4859  0000					      call	drawsprite_or
hero.asm (4860): error: Unknown Mnemonic 'call'.
   4860  0000					      call	makerotosound
hero.asm (4861): error: Unknown Mnemonic 'ret'.
   4861  0000					      ret
   4862  0000
hero.asm (4863): error: Unknown Mnemonic 'xor'.
   4863  0000				   hort50l_   xor	a	;roto 50%
hero.asm (4864): error: Unknown Mnemonic 'ld'.
   4864  0000					      ld	(rotostat),a
hero.asm (4865): error: Unknown Mnemonic 'ld'.
   4865  0000					      ld	a,(newherox)
hero.asm (4866): error: Unknown Mnemonic 'ld'.
   4866  0000					      ld	b,a
hero.asm (4867): error: Unknown Mnemonic 'ld'.
   4867  0000					      ld	a,(newheroy)
hero.asm (4868): error: Unknown Mnemonic 'ld'.
   4868  0000					      ld	c,a
hero.asm (4869): error: Unknown Mnemonic 'ld'.
   4869  0000					      ld	hl,roto50l
hero.asm (4870): error: Unknown Mnemonic 'ld'.
   4870  0000					      ld	de,&0403
hero.asm (4871): error: Unknown Mnemonic 'push'.
   4871  0000					      push	bc
hero.asm (4872): error: Unknown Mnemonic 'call'.
   4872  0000					      call	drawsprite_or
hero.asm (4873): error: Unknown Mnemonic 'pop'.
   4873  0000					      pop	bc
hero.asm (4874): error: Unknown Mnemonic 'inc'.
   4874  0000					      inc	c
hero.asm (4875): error: Unknown Mnemonic 'inc'.
   4875  0000					      inc	c
hero.asm (4876): error: Unknown Mnemonic 'inc'.
   4876  0000					      inc	c
hero.asm (4877): error: Unknown Mnemonic 'ld'.
   4877  0000					      ld	hl,hoflyl
hero.asm (4878): error: Unknown Mnemonic 'ld'.
   4878  0000					      ld	de,&0415
hero.asm (4879): error: Unknown Mnemonic 'call'.
   4879  0000					      call	drawsprite_or
hero.asm (4880): error: Unknown Mnemonic 'call'.
   4880  0000					      call	makerotosound
hero.asm (4881): error: Unknown Mnemonic 'ret'.
   4881  0000					      ret
   4882  0000
hero.asm (4883): error: Unknown Mnemonic 'ld'.
   4883  0000				   dwhorun    ld	a,(herodir)	;draw hero left or right
hero.asm (4884): error: Unknown Mnemonic 'or'.
   4884  0000					      or	a
hero.asm (4885): error: Unknown Mnemonic 'jp'.
   4885  0000					      jp	nz,horunlft
   4886  0000
hero.asm (4887): error: Unknown Mnemonic 'ld'.
   4887  0000					      ld	a,(herolegs)	;hero right -------------------------------
hero.asm (4888): error: Unknown Mnemonic 'cp'.
   4888  0000					      cp	0	;hero stand
hero.asm (4889): error: Unknown Mnemonic 'jr'.
   4889  0000					      jr	nz,horunrt1
hero.asm (4890): error: Unknown Mnemonic 'ld'.
   4890  0000					      ld	a,(newherox)
hero.asm (4891): error: Unknown Mnemonic 'ld'.
   4891  0000					      ld	b,a
hero.asm (4892): error: Unknown Mnemonic 'ld'.
   4892  0000					      ld	a,(newheroy)
hero.asm (4893): error: Unknown Mnemonic 'ld'.
   4893  0000					      ld	c,a
hero.asm (4894): error: Unknown Mnemonic 'ld'.
   4894  0000					      ld	hl,roto50r
hero.asm (4895): error: Unknown Mnemonic 'ld'.
   4895  0000					      ld	de,&0403
hero.asm (4896): error: Unknown Mnemonic 'push'.
   4896  0000					      push	bc
hero.asm (4897): error: Unknown Mnemonic 'call'.
   4897  0000					      call	drawsprite_or
hero.asm (4898): error: Unknown Mnemonic 'pop'.
   4898  0000					      pop	bc
hero.asm (4899): error: Unknown Mnemonic 'inc'.
   4899  0000					      inc	c
hero.asm (4900): error: Unknown Mnemonic 'inc'.
   4900  0000					      inc	c
hero.asm (4901): error: Unknown Mnemonic 'inc'.
   4901  0000					      inc	c
hero.asm (4902): error: Unknown Mnemonic 'ld'.
   4902  0000					      ld	hl,hostndr
hero.asm (4903): error: Unknown Mnemonic 'ld'.
   4903  0000					      ld	de,&0415
hero.asm (4904): error: Unknown Mnemonic 'call'.
   4904  0000					      call	drawsprite_or
hero.asm (4905): error: Unknown Mnemonic 'call'.
   4905  0000					      call	herosilence
hero.asm (4906): error: Unknown Mnemonic 'ret'.
   4906  0000					      ret
   4907  0000
hero.asm (4908): error: Unknown Mnemonic 'sra'.
   4908  0000				   horunrt1   sra	a
hero.asm (4909): error: Unknown Mnemonic 'cp'.
   4909  0000					      cp	1	;hero run state 1  (1)
hero.asm (4910): error: Unknown Mnemonic 'jr'.
   4910  0000					      jr	nz,horunrt2
hero.asm (4911): error: Unknown Mnemonic 'ld'.
   4911  0000					      ld	a,(newherox)
hero.asm (4912): error: Unknown Mnemonic 'ld'.
   4912  0000					      ld	b,a
hero.asm (4913): error: Unknown Mnemonic 'ld'.
   4913  0000					      ld	a,(newheroy)
hero.asm (4914): error: Unknown Mnemonic 'ld'.
   4914  0000					      ld	c,a
hero.asm (4915): error: Unknown Mnemonic 'ld'.
   4915  0000					      ld	hl,roto100r
hero.asm (4916): error: Unknown Mnemonic 'ld'.
   4916  0000					      ld	de,&0403
hero.asm (4917): error: Unknown Mnemonic 'push'.
   4917  0000					      push	bc
hero.asm (4918): error: Unknown Mnemonic 'call'.
   4918  0000					      call	drawsprite_or
hero.asm (4919): error: Unknown Mnemonic 'pop'.
   4919  0000					      pop	bc
hero.asm (4920): error: Unknown Mnemonic 'inc'.
   4920  0000					      inc	c
hero.asm (4921): error: Unknown Mnemonic 'inc'.
   4921  0000					      inc	c
hero.asm (4922): error: Unknown Mnemonic 'inc'.
   4922  0000					      inc	c
hero.asm (4923): error: Unknown Mnemonic 'ld'.
   4923  0000					      ld	hl,horun1r
hero.asm (4924): error: Unknown Mnemonic 'ld'.
   4924  0000					      ld	de,&0415
hero.asm (4925): error: Unknown Mnemonic 'call'.
   4925  0000					      call	drawsprite_or
hero.asm (4926): error: Unknown Mnemonic 'call'.
   4926  0000					      call	herosilence
hero.asm (4927): error: Unknown Mnemonic 'ret'.
   4927  0000					      ret
   4928  0000
hero.asm (4929): error: Unknown Mnemonic 'cp'.
   4929  0000				   horunrt2   cp	2	;hero run state 2
hero.asm (4930): error: Unknown Mnemonic 'jr'.
   4930  0000					      jr	nz,horunrt3
hero.asm (4931): error: Unknown Mnemonic 'ld'.
   4931  0000					      ld	a,(newherox)
hero.asm (4932): error: Unknown Mnemonic 'ld'.
   4932  0000					      ld	b,a
hero.asm (4933): error: Unknown Mnemonic 'ld'.
   4933  0000					      ld	a,(newheroy)
hero.asm (4934): error: Unknown Mnemonic 'ld'.
   4934  0000					      ld	c,a
hero.asm (4935): error: Unknown Mnemonic 'ld'.
   4935  0000					      ld	hl,roto50r
hero.asm (4936): error: Unknown Mnemonic 'ld'.
   4936  0000					      ld	de,&0403
hero.asm (4937): error: Unknown Mnemonic 'push'.
   4937  0000					      push	bc
hero.asm (4938): error: Unknown Mnemonic 'call'.
   4938  0000					      call	drawsprite_or
hero.asm (4939): error: Unknown Mnemonic 'pop'.
   4939  0000					      pop	bc
hero.asm (4940): error: Unknown Mnemonic 'inc'.
   4940  0000					      inc	c
hero.asm (4941): error: Unknown Mnemonic 'inc'.
   4941  0000					      inc	c
hero.asm (4942): error: Unknown Mnemonic 'inc'.
   4942  0000					      inc	c
hero.asm (4943): error: Unknown Mnemonic 'ld'.
   4943  0000					      ld	hl,horun2r
hero.asm (4944): error: Unknown Mnemonic 'ld'.
   4944  0000					      ld	de,&0415
hero.asm (4945): error: Unknown Mnemonic 'call'.
   4945  0000					      call	drawsprite_or
hero.asm (4946): error: Unknown Mnemonic 'call'.
   4946  0000					      call	herosilence
hero.asm (4947): error: Unknown Mnemonic 'ret'.
   4947  0000					      ret
   4948  0000
hero.asm (4949): error: Unknown Mnemonic 'cp'.
   4949  0000				   horunrt3   cp	3	;hero run state 3
hero.asm (4950): error: Unknown Mnemonic 'jr'.
   4950  0000					      jr	nz,horunrt4
hero.asm (4951): error: Unknown Mnemonic 'ld'.
   4951  0000					      ld	a,(newherox)
hero.asm (4952): error: Unknown Mnemonic 'ld'.
   4952  0000					      ld	b,a
hero.asm (4953): error: Unknown Mnemonic 'ld'.
   4953  0000					      ld	a,(newheroy)
hero.asm (4954): error: Unknown Mnemonic 'ld'.
   4954  0000					      ld	c,a
hero.asm (4955): error: Unknown Mnemonic 'ld'.
   4955  0000					      ld	hl,roto0r
hero.asm (4956): error: Unknown Mnemonic 'ld'.
   4956  0000					      ld	de,&0403
hero.asm (4957): error: Unknown Mnemonic 'push'.
   4957  0000					      push	bc
hero.asm (4958): error: Unknown Mnemonic 'call'.
   4958  0000					      call	drawsprite_or
hero.asm (4959): error: Unknown Mnemonic 'pop'.
   4959  0000					      pop	bc
hero.asm (4960): error: Unknown Mnemonic 'inc'.
   4960  0000					      inc	c
hero.asm (4961): error: Unknown Mnemonic 'inc'.
   4961  0000					      inc	c
hero.asm (4962): error: Unknown Mnemonic 'inc'.
   4962  0000					      inc	c
hero.asm (4963): error: Unknown Mnemonic 'ld'.
   4963  0000					      ld	hl,horun3r
hero.asm (4964): error: Unknown Mnemonic 'ld'.
   4964  0000					      ld	de,&0415
hero.asm (4965): error: Unknown Mnemonic 'call'.
   4965  0000					      call	drawsprite_or
hero.asm (4966): error: Unknown Mnemonic 'call'.
   4966  0000					      call	herosilence
hero.asm (4967): error: Unknown Mnemonic 'ret'.
   4967  0000					      ret
   4968  0000
hero.asm (4969): error: Unknown Mnemonic 'cp'.
   4969  0000				   horunrt4   cp	4	;hero run state 4
hero.asm (4970): error: Unknown Mnemonic 'jr'.
   4970  0000					      jr	nz,horunrt5
hero.asm (4971): error: Unknown Mnemonic 'ld'.
   4971  0000					      ld	a,(newherox)
hero.asm (4972): error: Unknown Mnemonic 'ld'.
   4972  0000					      ld	b,a
hero.asm (4973): error: Unknown Mnemonic 'ld'.
   4973  0000					      ld	a,(newheroy)
hero.asm (4974): error: Unknown Mnemonic 'ld'.
   4974  0000					      ld	c,a
hero.asm (4975): error: Unknown Mnemonic 'ld'.
   4975  0000					      ld	hl,roto50r
hero.asm (4976): error: Unknown Mnemonic 'ld'.
   4976  0000					      ld	de,&0403
hero.asm (4977): error: Unknown Mnemonic 'push'.
   4977  0000					      push	bc
hero.asm (4978): error: Unknown Mnemonic 'call'.
   4978  0000					      call	drawsprite_or
hero.asm (4979): error: Unknown Mnemonic 'pop'.
   4979  0000					      pop	bc
hero.asm (4980): error: Unknown Mnemonic 'inc'.
   4980  0000					      inc	c
hero.asm (4981): error: Unknown Mnemonic 'inc'.
   4981  0000					      inc	c
hero.asm (4982): error: Unknown Mnemonic 'inc'.
   4982  0000					      inc	c
hero.asm (4983): error: Unknown Mnemonic 'ld'.
   4983  0000					      ld	hl,horun4r
hero.asm (4984): error: Unknown Mnemonic 'ld'.
   4984  0000					      ld	de,&0415
hero.asm (4985): error: Unknown Mnemonic 'call'.
   4985  0000					      call	drawsprite_or
hero.asm (4986): error: Unknown Mnemonic 'call'.
   4986  0000					      call	herosilence
hero.asm (4987): error: Unknown Mnemonic 'ret'.
   4987  0000					      ret
   4988  0000
hero.asm (4989): error: Unknown Mnemonic 'ld'.
   4989  0000				   horunrt5   ld	a,(newherox)	;hero run state 5   
hero.asm (4990): error: Unknown Mnemonic 'ld'.
   4990  0000					      ld	b,a
hero.asm (4991): error: Unknown Mnemonic 'ld'.
   4991  0000					      ld	a,(newheroy)
hero.asm (4992): error: Unknown Mnemonic 'ld'.
   4992  0000					      ld	c,a
hero.asm (4993): error: Unknown Mnemonic 'ld'.
   4993  0000					      ld	hl,roto100r
hero.asm (4994): error: Unknown Mnemonic 'ld'.
   4994  0000					      ld	de,&0403
hero.asm (4995): error: Unknown Mnemonic 'push'.
   4995  0000					      push	bc
hero.asm (4996): error: Unknown Mnemonic 'call'.
   4996  0000					      call	drawsprite_or
hero.asm (4997): error: Unknown Mnemonic 'pop'.
   4997  0000					      pop	bc
hero.asm (4998): error: Unknown Mnemonic 'inc'.
   4998  0000					      inc	c
hero.asm (4999): error: Unknown Mnemonic 'inc'.
   4999  0000					      inc	c
hero.asm (5000): error: Unknown Mnemonic 'inc'.
   5000  0000					      inc	c
hero.asm (5001): error: Unknown Mnemonic 'ld'.
   5001  0000					      ld	hl,horun5r
hero.asm (5002): error: Unknown Mnemonic 'ld'.
   5002  0000					      ld	de,&0415
hero.asm (5003): error: Unknown Mnemonic 'call'.
   5003  0000					      call	drawsprite_or
hero.asm (5004): error: Unknown Mnemonic 'call'.
   5004  0000					      call	herosilence
hero.asm (5005): error: Unknown Mnemonic 'ret'.
   5005  0000					      ret
   5006  0000
hero.asm (5007): error: Unknown Mnemonic 'ld'.
   5007  0000				   horunlft   ld	a,(herolegs)	;hero left --------------------------------
hero.asm (5008): error: Unknown Mnemonic 'cp'.
   5008  0000					      cp	0	;hero stand
hero.asm (5009): error: Unknown Mnemonic 'jr'.
   5009  0000					      jr	nz,horunlt1
hero.asm (5010): error: Unknown Mnemonic 'ld'.
   5010  0000					      ld	a,(newherox)
hero.asm (5011): error: Unknown Mnemonic 'ld'.
   5011  0000					      ld	b,a
hero.asm (5012): error: Unknown Mnemonic 'ld'.
   5012  0000					      ld	a,(newheroy)
hero.asm (5013): error: Unknown Mnemonic 'ld'.
   5013  0000					      ld	c,a
hero.asm (5014): error: Unknown Mnemonic 'ld'.
   5014  0000					      ld	hl,roto50l
hero.asm (5015): error: Unknown Mnemonic 'ld'.
   5015  0000					      ld	de,&0403
hero.asm (5016): error: Unknown Mnemonic 'push'.
   5016  0000					      push	bc
hero.asm (5017): error: Unknown Mnemonic 'call'.
   5017  0000					      call	drawsprite_or
hero.asm (5018): error: Unknown Mnemonic 'pop'.
   5018  0000					      pop	bc
hero.asm (5019): error: Unknown Mnemonic 'inc'.
   5019  0000					      inc	c
hero.asm (5020): error: Unknown Mnemonic 'inc'.
   5020  0000					      inc	c
hero.asm (5021): error: Unknown Mnemonic 'inc'.
   5021  0000					      inc	c
hero.asm (5022): error: Unknown Mnemonic 'ld'.
   5022  0000					      ld	hl,hostndl
hero.asm (5023): error: Unknown Mnemonic 'ld'.
   5023  0000					      ld	de,&0415
hero.asm (5024): error: Unknown Mnemonic 'call'.
   5024  0000					      call	drawsprite_or
hero.asm (5025): error: Unknown Mnemonic 'call'.
   5025  0000					      call	herosilence
hero.asm (5026): error: Unknown Mnemonic 'ret'.
   5026  0000					      ret
   5027  0000
hero.asm (5028): error: Unknown Mnemonic 'sra'.
   5028  0000				   horunlt1   sra	a
hero.asm (5029): error: Unknown Mnemonic 'cp'.
   5029  0000					      cp	1	;hero run state 1
hero.asm (5030): error: Unknown Mnemonic 'jr'.
   5030  0000					      jr	nz,horunlt2
hero.asm (5031): error: Unknown Mnemonic 'ld'.
   5031  0000					      ld	a,(newherox)
hero.asm (5032): error: Unknown Mnemonic 'ld'.
   5032  0000					      ld	b,a
hero.asm (5033): error: Unknown Mnemonic 'ld'.
   5033  0000					      ld	a,(newheroy)
hero.asm (5034): error: Unknown Mnemonic 'ld'.
   5034  0000					      ld	c,a
hero.asm (5035): error: Unknown Mnemonic 'ld'.
   5035  0000					      ld	hl,roto100l
hero.asm (5036): error: Unknown Mnemonic 'ld'.
   5036  0000					      ld	de,&0403
hero.asm (5037): error: Unknown Mnemonic 'push'.
   5037  0000					      push	bc
hero.asm (5038): error: Unknown Mnemonic 'call'.
   5038  0000					      call	drawsprite_or
hero.asm (5039): error: Unknown Mnemonic 'pop'.
   5039  0000					      pop	bc
hero.asm (5040): error: Unknown Mnemonic 'inc'.
   5040  0000					      inc	c
hero.asm (5041): error: Unknown Mnemonic 'inc'.
   5041  0000					      inc	c
hero.asm (5042): error: Unknown Mnemonic 'inc'.
   5042  0000					      inc	c
hero.asm (5043): error: Unknown Mnemonic 'ld'.
   5043  0000					      ld	hl,horun1l
hero.asm (5044): error: Unknown Mnemonic 'ld'.
   5044  0000					      ld	de,&0415
hero.asm (5045): error: Unknown Mnemonic 'call'.
   5045  0000					      call	drawsprite_or
hero.asm (5046): error: Unknown Mnemonic 'call'.
   5046  0000					      call	herosilence
hero.asm (5047): error: Unknown Mnemonic 'ret'.
   5047  0000					      ret
   5048  0000
hero.asm (5049): error: Unknown Mnemonic 'cp'.
   5049  0000				   horunlt2   cp	2	;hero run state 2
hero.asm (5050): error: Unknown Mnemonic 'jr'.
   5050  0000					      jr	nz,horunlt3
hero.asm (5051): error: Unknown Mnemonic 'ld'.
   5051  0000					      ld	a,(newherox)
hero.asm (5052): error: Unknown Mnemonic 'ld'.
   5052  0000					      ld	b,a
hero.asm (5053): error: Unknown Mnemonic 'ld'.
   5053  0000					      ld	a,(newheroy)
hero.asm (5054): error: Unknown Mnemonic 'ld'.
   5054  0000					      ld	c,a
hero.asm (5055): error: Unknown Mnemonic 'ld'.
   5055  0000					      ld	hl,roto50l
hero.asm (5056): error: Unknown Mnemonic 'ld'.
   5056  0000					      ld	de,&0403
hero.asm (5057): error: Unknown Mnemonic 'push'.
   5057  0000					      push	bc
hero.asm (5058): error: Unknown Mnemonic 'call'.
   5058  0000					      call	drawsprite_or
hero.asm (5059): error: Unknown Mnemonic 'pop'.
   5059  0000					      pop	bc
hero.asm (5060): error: Unknown Mnemonic 'inc'.
   5060  0000					      inc	c
hero.asm (5061): error: Unknown Mnemonic 'inc'.
   5061  0000					      inc	c
hero.asm (5062): error: Unknown Mnemonic 'inc'.
   5062  0000					      inc	c
hero.asm (5063): error: Unknown Mnemonic 'ld'.
   5063  0000					      ld	hl,horun2l
hero.asm (5064): error: Unknown Mnemonic 'ld'.
   5064  0000					      ld	de,&0415
hero.asm (5065): error: Unknown Mnemonic 'call'.
   5065  0000					      call	drawsprite_or
hero.asm (5066): error: Unknown Mnemonic 'call'.
   5066  0000					      call	herosilence
hero.asm (5067): error: Unknown Mnemonic 'ret'.
   5067  0000					      ret
   5068  0000
hero.asm (5069): error: Unknown Mnemonic 'cp'.
   5069  0000				   horunlt3   cp	3	;hero run state 3
hero.asm (5070): error: Unknown Mnemonic 'jr'.
   5070  0000					      jr	nz,horunlt4
hero.asm (5071): error: Unknown Mnemonic 'ld'.
   5071  0000					      ld	a,(newherox)
hero.asm (5072): error: Unknown Mnemonic 'ld'.
   5072  0000					      ld	b,a
hero.asm (5073): error: Unknown Mnemonic 'ld'.
   5073  0000					      ld	a,(newheroy)
hero.asm (5074): error: Unknown Mnemonic 'ld'.
   5074  0000					      ld	c,a
hero.asm (5075): error: Unknown Mnemonic 'ld'.
   5075  0000					      ld	hl,roto0l
hero.asm (5076): error: Unknown Mnemonic 'ld'.
   5076  0000					      ld	de,&0403
hero.asm (5077): error: Unknown Mnemonic 'push'.
   5077  0000					      push	bc
hero.asm (5078): error: Unknown Mnemonic 'call'.
   5078  0000					      call	drawsprite_or
hero.asm (5079): error: Unknown Mnemonic 'pop'.
   5079  0000					      pop	bc
hero.asm (5080): error: Unknown Mnemonic 'inc'.
   5080  0000					      inc	c
hero.asm (5081): error: Unknown Mnemonic 'inc'.
   5081  0000					      inc	c
hero.asm (5082): error: Unknown Mnemonic 'inc'.
   5082  0000					      inc	c
hero.asm (5083): error: Unknown Mnemonic 'ld'.
   5083  0000					      ld	hl,horun3l
hero.asm (5084): error: Unknown Mnemonic 'ld'.
   5084  0000					      ld	de,&0415
hero.asm (5085): error: Unknown Mnemonic 'call'.
   5085  0000					      call	drawsprite_or
hero.asm (5086): error: Unknown Mnemonic 'call'.
   5086  0000					      call	herosilence
hero.asm (5087): error: Unknown Mnemonic 'ret'.
   5087  0000					      ret
   5088  0000
hero.asm (5089): error: Unknown Mnemonic 'cp'.
   5089  0000				   horunlt4   cp	4	;hero run state 4
hero.asm (5090): error: Unknown Mnemonic 'jr'.
   5090  0000					      jr	nz,horunlt5
hero.asm (5091): error: Unknown Mnemonic 'ld'.
   5091  0000					      ld	a,(newherox)
hero.asm (5092): error: Unknown Mnemonic 'ld'.
   5092  0000					      ld	b,a
hero.asm (5093): error: Unknown Mnemonic 'ld'.
   5093  0000					      ld	a,(newheroy)
hero.asm (5094): error: Unknown Mnemonic 'ld'.
   5094  0000					      ld	c,a
hero.asm (5095): error: Unknown Mnemonic 'ld'.
   5095  0000					      ld	hl,roto50l
hero.asm (5096): error: Unknown Mnemonic 'ld'.
   5096  0000					      ld	de,&0403
hero.asm (5097): error: Unknown Mnemonic 'push'.
   5097  0000					      push	bc
hero.asm (5098): error: Unknown Mnemonic 'call'.
   5098  0000					      call	drawsprite_or
hero.asm (5099): error: Unknown Mnemonic 'pop'.
   5099  0000					      pop	bc
hero.asm (5100): error: Unknown Mnemonic 'inc'.
   5100  0000					      inc	c
hero.asm (5101): error: Unknown Mnemonic 'inc'.
   5101  0000					      inc	c
hero.asm (5102): error: Unknown Mnemonic 'inc'.
   5102  0000					      inc	c
hero.asm (5103): error: Unknown Mnemonic 'ld'.
   5103  0000					      ld	hl,horun4l
hero.asm (5104): error: Unknown Mnemonic 'ld'.
   5104  0000					      ld	de,&0415
hero.asm (5105): error: Unknown Mnemonic 'call'.
   5105  0000					      call	drawsprite_or
hero.asm (5106): error: Unknown Mnemonic 'call'.
   5106  0000					      call	herosilence
hero.asm (5107): error: Unknown Mnemonic 'ret'.
   5107  0000					      ret
   5108  0000
hero.asm (5109): error: Unknown Mnemonic 'ld'.
   5109  0000				   horunlt5   ld	a,(newherox)	;hero run state 5
hero.asm (5110): error: Unknown Mnemonic 'ld'.
   5110  0000					      ld	b,a
hero.asm (5111): error: Unknown Mnemonic 'ld'.
   5111  0000					      ld	a,(newheroy)
hero.asm (5112): error: Unknown Mnemonic 'ld'.
   5112  0000					      ld	c,a
hero.asm (5113): error: Unknown Mnemonic 'ld'.
   5113  0000					      ld	hl,roto100l
hero.asm (5114): error: Unknown Mnemonic 'ld'.
   5114  0000					      ld	de,&0403
hero.asm (5115): error: Unknown Mnemonic 'push'.
   5115  0000					      push	bc
hero.asm (5116): error: Unknown Mnemonic 'call'.
   5116  0000					      call	drawsprite_or
hero.asm (5117): error: Unknown Mnemonic 'pop'.
   5117  0000					      pop	bc
hero.asm (5118): error: Unknown Mnemonic 'inc'.
   5118  0000					      inc	c
hero.asm (5119): error: Unknown Mnemonic 'inc'.
   5119  0000					      inc	c
hero.asm (5120): error: Unknown Mnemonic 'inc'.
   5120  0000					      inc	c
hero.asm (5121): error: Unknown Mnemonic 'ld'.
   5121  0000					      ld	hl,horun5l
hero.asm (5122): error: Unknown Mnemonic 'ld'.
   5122  0000					      ld	de,&0415
hero.asm (5123): error: Unknown Mnemonic 'call'.
   5123  0000					      call	drawsprite_or
hero.asm (5124): error: Unknown Mnemonic 'call'.
   5124  0000					      call	herosilence
hero.asm (5125): error: Unknown Mnemonic 'ret'.
   5125  0000					      ret
   5126  0000
   5127  0000							;-------------------------------------------------------------------------------
   5128  0000							;make roto sound
   5129  0000							;
   5130  0000				   makerotosound
hero.asm (5131): error: Unknown Mnemonic 'nop'.
   5131  0000					      nop
hero.asm (5132): error: Unknown Mnemonic 'ld'.
   5132  0000					      ld	a,(bombset)
hero.asm (5133): error: Unknown Mnemonic 'or'.
   5133  0000					      or	a
hero.asm (5134): error: Unknown Mnemonic 'ret'.
   5134  0000					      ret	nz
hero.asm (5135): error: Unknown Mnemonic 'ld'.
   5135  0000					      ld	a,(rotosnd)
hero.asm (5136): error: Unknown Mnemonic 'dec'.
   5136  0000					      dec	a
hero.asm (5137): error: Unknown Mnemonic 'and'.
   5137  0000					      and	%11100	;%11000 = schnell, %11100 = langsam
hero.asm (5138): error: Unknown Mnemonic 'ld'.
   5138  0000					      ld	(rotosnd),a
hero.asm (5139): error: Unknown Mnemonic 'ld'.
   5139  0000					      ld	c,noise	;reg 
hero.asm (5140): error: Unknown Mnemonic 'call'.
   5140  0000					      call	wrpsg
hero.asm (5141): error: Unknown Mnemonic 'ld'.
   5141  0000					      ld	c,channelb
hero.asm (5142): error: Unknown Mnemonic 'ld'.
   5142  0000					      ld	a,soundfull
hero.asm (5143): error: Unknown Mnemonic 'call'.
   5143  0000					      call	wrpsg
hero.asm (5144): error: Unknown Mnemonic 'ret'.
   5144  0000					      ret
   5145  0000
   5146  0000							;-------------------------------------------------------------------------------
   5147  0000							;herosilence
   5148  0000							;
   5149  0000				   herosilence
hero.asm (5150): error: Unknown Mnemonic 'ld'.
   5150  0000					      ld	a,(bombset)
hero.asm (5151): error: Unknown Mnemonic 'cp'.
   5151  0000					      cp	0
hero.asm (5152): error: Unknown Mnemonic 'ret'.
   5152  0000					      ret	nz
hero.asm (5153): error: Unknown Mnemonic 'ld'.
   5153  0000					      ld	c,channelb
hero.asm (5154): error: Unknown Mnemonic 'ld'.
   5154  0000					      ld	a,soundpst
hero.asm (5155): error: Unknown Mnemonic 'call'.
   5155  0000					      call	wrpsg
hero.asm (5156): error: Unknown Mnemonic 'ret'.
   5156  0000					      ret
   5157  0000
   5158  0000							;-------------------------------------------------------------------------------
   5159  0000							;setupactivision
   5160  0000							;place the activision logo, the game starts!!!
   5161  0000							;
   5162  0000				   setupactivision
hero.asm (5163): error: Unknown Mnemonic 'ld'.
   5163  0000					      ld	b,17
hero.asm (5164): error: Unknown Mnemonic 'ld'.
   5164  0000					      ld	c,179+topoffset
hero.asm (5165): error: Unknown Mnemonic 'ld'.
   5165  0000					      ld	e,&2c
hero.asm (5166): error: Unknown Mnemonic 'ld'.
   5166  0000					      ld	d,9
hero.asm (5167): error: Unknown Mnemonic 'ld'.
   5167  0000					      ld	a,%00001100
hero.asm (5168): error: Unknown Mnemonic 'call'.
   5168  0000					      call	fillblock
hero.asm (5169): error: Unknown Mnemonic 'ld'.
   5169  0000					      ld	hl,actvis
hero.asm (5170): error: Unknown Mnemonic 'ld'.
   5170  0000					      ld	b,25
hero.asm (5171): error: Unknown Mnemonic 'ld'.
   5171  0000					      ld	c,179+topoffset
hero.asm (5172): error: Unknown Mnemonic 'ld'.
   5172  0000					      ld	de,&1d0a
hero.asm (5173): error: Unknown Mnemonic 'call'.
   5173  0000					      call	drawsprite
hero.asm (5174): error: Unknown Mnemonic 'ret'.
   5174  0000					      ret
   5175  0000
   5176  0000							;-------------------------------------------------------------------------------
   5177  0000							;writing animation
   5178  0000							;
   5179  0000		       00 78	   dlylong    equ	120
   5180  0000		       00 3c	   dlyshort   equ	dlylong/2
   5181  0000		       00 06	   dlyscroll  equ	dlylong/20
   5182  0000
   5183  0000				   writinganimation
hero.asm (5184): error: Unknown Mnemonic 'call'.
   5184  0000					      call	waitvsync
hero.asm (5185): error: Unknown Mnemonic 'xor'.
   5185  0000					      xor	a
hero.asm (5186): error: Unknown Mnemonic 'ld'.
   5186  0000					      ld	(dispscor),a
hero.asm (5187): error: Unknown Mnemonic 'ld'.
   5187  0000					      ld	(scrnswap),a
   5188  0000
hero.asm (5189): error: Unknown Mnemonic 'ld'.
   5189  0000				   wranmlop   ld	a,(scrnswap)
hero.asm (5190): error: Unknown Mnemonic 'cp'.
   5190  0000					      cp	3
hero.asm (5191): error: Unknown Mnemonic 'jr'.
   5191  0000					      jr	nz,noscswap
hero.asm (5192): error: Unknown Mnemonic 'xor'.
   5192  0000					      xor	a
hero.asm (5193): error: Unknown Mnemonic 'ld'.
   5193  0000					      ld	(scrnswap),a
hero.asm (5194): error: Unknown Mnemonic 'call'.
   5194  0000					      call	swapscroutput
hero.asm (5195): error: Unknown Mnemonic 'call'.
   5195  0000					      call	swapscreen
hero.asm (5196): error: Unknown Mnemonic 'jr'.
   5196  0000					      jr	wranmgo
hero.asm (5197): error: Unknown Mnemonic 'inc'.
   5197  0000				   noscswap   inc	a
hero.asm (5198): error: Unknown Mnemonic 'ld'.
   5198  0000					      ld	(scrnswap),a
   5199  0000
hero.asm (5200): error: Unknown Mnemonic 'ld'.
   5200  0000				   wranmgo    ld	a,(lifes)
hero.asm (5201): error: Unknown Mnemonic 'or'.
   5201  0000					      or	a
hero.asm (5202): error: Unknown Mnemonic 'jr'.
   5202  0000					      jr	nz,wranmgo2
hero.asm (5203): error: Unknown Mnemonic 'ld'.
   5203  0000					      ld	a,(scrswp1+1)
hero.asm (5204): error: Unknown Mnemonic 'ld'.
   5204  0000					      ld	b,a
hero.asm (5205): error: Unknown Mnemonic 'ld'.
   5205  0000					      ld	a,(titlepage)
hero.asm (5206): error: Unknown Mnemonic 'cp'.
   5206  0000					      cp	b
hero.asm (5207): error: Unknown Mnemonic 'jr'.
   5207  0000					      jr	z,wranmgo2
hero.asm (5208): error: Unknown Mnemonic 'ld'.
   5208  0000					      ld	a,(dispscor)
hero.asm (5209): error: Unknown Mnemonic 'inc'.
   5209  0000					      inc	a
hero.asm (5210): error: Unknown Mnemonic 'and'.
   5210  0000					      and	1
hero.asm (5211): error: Unknown Mnemonic 'ld'.
   5211  0000					      ld	(dispscor),a
hero.asm (5212): error: Unknown Mnemonic 'or'.
   5212  0000					      or	a
hero.asm (5213): error: Unknown Mnemonic 'jr'.
   5213  0000					      jr	z,dsplevel
hero.asm (5214): error: Unknown Mnemonic 'call'.
   5214  0000					      call	clearlevel
hero.asm (5215): error: Unknown Mnemonic 'call'.
   5215  0000					      call	drawscore
hero.asm (5216): error: Unknown Mnemonic 'jr'.
   5216  0000					      jr	wranmgo2
hero.asm (5217): error: Unknown Mnemonic 'call'.
   5217  0000				   dsplevel   call	showlevel
   5218  0000
hero.asm (5219): error: Unknown Mnemonic 'ld'.
   5219  0000				   wranmgo2   ld	a,(writdisp)
hero.asm (5220): error: Unknown Mnemonic 'or'.
   5220  0000					      or	a
hero.asm (5221): error: Unknown Mnemonic 'jr'.
   5221  0000					      jr	nz,preanim
hero.asm (5222): error: Unknown Mnemonic 'ld'.
   5222  0000					      ld	a,10
hero.asm (5223): error: Unknown Mnemonic 'ld'.
   5223  0000					      ld	(writdisp),a
   5224  0000
hero.asm (5225): error: Unknown Mnemonic 'ld'.
   5225  0000					      ld	b,25
hero.asm (5226): error: Unknown Mnemonic 'ld'.
   5226  0000					      ld	c,179+topoffset
hero.asm (5227): error: Unknown Mnemonic 'ld'.
   5227  0000					      ld	de,&0b1d
hero.asm (5228): error: Unknown Mnemonic 'ld'.
   5228  0000					      ld	a,%00001100
hero.asm (5229): error: Unknown Mnemonic 'call'.
   5229  0000					      call	fillblock
   5230  0000
hero.asm (5231): error: Unknown Mnemonic 'ld'.
   5231  0000					      ld	b,17
hero.asm (5232): error: Unknown Mnemonic 'ld'.
   5232  0000					      ld	c,180+topoffset
hero.asm (5233): error: Unknown Mnemonic 'ld'.
   5233  0000					      ld	de,&2c07
hero.asm (5234): error: Unknown Mnemonic 'ld'.
   5234  0000					      ld	hl,wincpc
hero.asm (5235): error: Unknown Mnemonic 'call'.
   5235  0000					      call	drawsprite
hero.asm (5236): error: Unknown Mnemonic 'ld'.
   5236  0000					      ld	b,dlylong*2
hero.asm (5237): error: Unknown Mnemonic 'call'.
   5237  0000					      call	scrolldelay
hero.asm (5238): error: Unknown Mnemonic 'ret'.
   5238  0000					      ret	c
hero.asm (5239): error: Unknown Mnemonic 'ld'.
   5239  0000					      ld	b,dlylong*2
hero.asm (5240): error: Unknown Mnemonic 'call'.
   5240  0000					      call	scrolldelay
hero.asm (5241): error: Unknown Mnemonic 'ret'.
   5241  0000					      ret	c
hero.asm (5242): error: Unknown Mnemonic 'ld'.
   5242  0000					      ld	b,17
hero.asm (5243): error: Unknown Mnemonic 'ld'.
   5243  0000					      ld	c,180+topoffset
hero.asm (5244): error: Unknown Mnemonic 'ld'.
   5244  0000					      ld	de,&082c
hero.asm (5245): error: Unknown Mnemonic 'ld'.
   5245  0000					      ld	a,%00001100
hero.asm (5246): error: Unknown Mnemonic 'call'.
   5246  0000					      call	fillblock
hero.asm (5247): error: Unknown Mnemonic 'jr'.
   5247  0000					      jr	wranim
   5248  0000
hero.asm (5249): error: Unknown Mnemonic 'dec'.
   5249  0000				   preanim    dec	a
hero.asm (5250): error: Unknown Mnemonic 'ld'.
   5250  0000					      ld	(writdisp),a
   5251  0000
hero.asm (5252): error: Unknown Mnemonic 'ld'.
   5252  0000				   wranim     ld	b,16
hero.asm (5253): error: Unknown Mnemonic 'ld'.
   5253  0000					      ld	c,179+topoffset
hero.asm (5254): error: Unknown Mnemonic 'ld'.
   5254  0000					      ld	de,&300a	;&250a
hero.asm (5255): error: Unknown Mnemonic 'ld'.
   5255  0000					      ld	hl,cpcport
hero.asm (5256): error: Unknown Mnemonic 'call'.
   5256  0000					      call	drawsprite
hero.asm (5257): error: Unknown Mnemonic 'ld'.
   5257  0000					      ld	b,dlylong
hero.asm (5258): error: Unknown Mnemonic 'call'.
   5258  0000					      call	scrolldelay
hero.asm (5259): error: Unknown Mnemonic 'ret'.
   5259  0000					      ret	c
   5260  0000
hero.asm (5261): error: Unknown Mnemonic 'ld'.
   5261  0000					      ld	b,16
hero.asm (5262): error: Unknown Mnemonic 'ld'.
   5262  0000					      ld	c,179+topoffset
hero.asm (5263): error: Unknown Mnemonic 'ld'.
   5263  0000					      ld	e,&30	;&25
hero.asm (5264): error: Unknown Mnemonic 'ld'.
   5264  0000					      ld	d,8
hero.asm (5265): error: Unknown Mnemonic 'ld'.
   5265  0000					      ld	a,%00001100
hero.asm (5266): error: Unknown Mnemonic 'call'.
   5266  0000					      call	fillblock
   5267  0000
hero.asm (5268): error: Unknown Mnemonic 'ld'.
   5268  0000					      ld	hl,cprght
   5269  0000
hero.asm (5270): error: Unknown Mnemonic 'xor'.
   5270  0000					      xor	a
hero.asm (5271): error: Unknown Mnemonic 'push'.
   5271  0000					      push	af
hero.asm (5272): error: Unknown Mnemonic 'jr'.
   5272  0000					      jr	animdir
   5273  0000
hero.asm (5274): error: Unknown Mnemonic 'push'.
   5274  0000				   anmsync    push	af
hero.asm (5275): error: Unknown Mnemonic 'ld'.
   5275  0000					      ld	b,dlyscroll
hero.asm (5276): error: Unknown Mnemonic 'call'.
   5276  0000					      call	scrolldelay
hero.asm (5277): error: Unknown Mnemonic 'jr'.
   5277  0000					      jr	c,animret
   5278  0000
hero.asm (5279): error: Unknown Mnemonic 'ld'.
   5279  0000				   animdir    ld	b,25
hero.asm (5280): error: Unknown Mnemonic 'ld'.
   5280  0000					      ld	c,179+topoffset
hero.asm (5281): error: Unknown Mnemonic 'ld'.
   5281  0000					      ld	de,&1d0a
hero.asm (5282): error: Unknown Mnemonic 'push'.
   5282  0000					      push	hl
hero.asm (5283): error: Unknown Mnemonic 'call'.
   5283  0000					      call	drawsprite
hero.asm (5284): error: Unknown Mnemonic 'pop'.
   5284  0000					      pop	hl
hero.asm (5285): error: Unknown Mnemonic 'pop'.
   5285  0000					      pop	af
hero.asm (5286): error: Unknown Mnemonic 'ld'.
   5286  0000					      ld	de,&1d
hero.asm (5287): error: Unknown Mnemonic 'add'.
   5287  0000					      add	hl,de
hero.asm (5288): error: Unknown Mnemonic 'inc'.
   5288  0000					      inc	a
hero.asm (5289): error: Unknown Mnemonic 'cp'.
   5289  0000					      cp	1
hero.asm (5290): error: Unknown Mnemonic 'jr'.
   5290  0000					      jr	nz,anmnxtst
hero.asm (5291): error: Unknown Mnemonic 'push'.
   5291  0000					      push	af
hero.asm (5292): error: Unknown Mnemonic 'ld'.
   5292  0000					      ld	b,dlylong
hero.asm (5293): error: Unknown Mnemonic 'call'.
   5293  0000					      call	scrolldelay
hero.asm (5294): error: Unknown Mnemonic 'jr'.
   5294  0000					      jr	c,animret
hero.asm (5295): error: Unknown Mnemonic 'pop'.
   5295  0000					      pop	af
hero.asm (5296): error: Unknown Mnemonic 'cp'.
   5296  0000				   anmnxtst   cp	8
hero.asm (5297): error: Unknown Mnemonic 'jr'.
   5297  0000					      jr	nz,anmsync
hero.asm (5298): error: Unknown Mnemonic 'ld'.
   5298  0000					      ld	b,dlyshort
hero.asm (5299): error: Unknown Mnemonic 'call'.
   5299  0000					      call	scrolldelay
   5300  0000
hero.asm (5301): error: Unknown Mnemonic 'jp'.
   5301  0000					      jp	wranmlop
hero.asm (5302): error: Unknown Mnemonic 'pop'.
   5302  0000				   animret    pop	af
hero.asm (5303): error: Unknown Mnemonic 'ret'.
   5303  0000					      ret
   5304  0000
hero.asm (5305): error: Unknown Mnemonic 'db'.
   5305  0000				   writdisp   db	0
hero.asm (5306): error: Unknown Mnemonic 'db'.
   5306  0000				   scrnswap   db	0
hero.asm (5307): error: Unknown Mnemonic 'db'.
   5307  0000				   dispscor   db	0
   5308  0000
   5309  0000							;-------------------------------------------------------------------------------
   5310  0000							;scrolldelay
   5311  0000							;b=delay in vsyncs div 4
   5312  0000							;				 
   5313  0000				   scrolldelay
hero.asm (5314): error: Unknown Mnemonic 'scf'.
   5314  0000					      scf
hero.asm (5315): error: Unknown Mnemonic 'ccf'.
   5315  0000					      ccf
hero.asm (5316): error: Unknown Mnemonic 'push'.
   5316  0000					      push	af
hero.asm (5317): error: Unknown Mnemonic 'push'.
   5317  0000				   synclop2   push	bc
hero.asm (5318): error: Unknown Mnemonic 'ld'.
   5318  0000					      ld	b,&F5
hero.asm (5319): error: Unknown Mnemonic 'call'.
   5319  0000				   synclop3   call	readjoystick
hero.asm (5320): error: Unknown Mnemonic 'ld'.
   5320  0000					      ld	a,(joybyte)
hero.asm (5321): error: Unknown Mnemonic 'bit'.
   5321  0000					      bit	joyfire,a
hero.asm (5322): error: Unknown Mnemonic 'jr'.
   5322  0000					      jr	nz,sdimd
hero.asm (5323): error: Unknown Mnemonic 'in'.
   5323  0000					      in	a,(c)
hero.asm (5324): error: Unknown Mnemonic 'rra'.
   5324  0000					      rra
hero.asm (5325): error: Unknown Mnemonic 'jr'.
   5325  0000					      jr	nc,synclop3
hero.asm (5326): error: Unknown Mnemonic 'call'.
   5326  0000					      call	flashwalls
hero.asm (5327): error: Unknown Mnemonic 'ei:halt:halt:di'.
   5327  0000					      ei:halt:halt:di
hero.asm (5328): error: Unknown Mnemonic 'pop'.
   5328  0000					      pop	bc
hero.asm (5329): error: Unknown Mnemonic 'djnz'.
   5329  0000					      djnz	synclop2
hero.asm (5330): error: Unknown Mnemonic 'pop'.
   5330  0000					      pop	af
hero.asm (5331): error: Unknown Mnemonic 'ret'.
   5331  0000					      ret
hero.asm (5332): error: Unknown Mnemonic 'pop'.
   5332  0000				   sdimd      pop	bc
hero.asm (5333): error: Unknown Mnemonic 'pop'.
   5333  0000					      pop	af
hero.asm (5334): error: Unknown Mnemonic 'scf'.
   5334  0000					      scf
hero.asm (5335): error: Unknown Mnemonic 'ret'.
   5335  0000					      ret
   5336  0000
   5337  0000							;-------------------------------------------------------------------------------
   5338  0000							;read joystick
   5339  0000							;
   5340  0000				   readjoystick
hero.asm (5341): error: Unknown Mnemonic 'push'.
   5341  0000					      push	bc
hero.asm (5342): error: Unknown Mnemonic 'push'.
   5342  0000					      push	de
hero.asm (5343): error: Unknown Mnemonic 'push'.
   5343  0000					      push	af
hero.asm (5344): error: Unknown Mnemonic 'push'.
   5344  0000					      push	hl
   5345  0000
hero.asm (5346): error: Unknown Mnemonic 'ld'.
   5346  0000					      ld	hl,joybyte
   5347  0000
hero.asm (5348): error: Unknown Mnemonic 'ld'.
   5348  0000					      ld	bc,&f400+14
hero.asm (5349): error: Unknown Mnemonic 'out'.
   5349  0000					      out	(c),c
   5350  0000
hero.asm (5351): error: Unknown Mnemonic 'ld'.
   5351  0000					      ld	bc,&f600 or %11000000
hero.asm (5352): error: Unknown Mnemonic 'out'.
   5352  0000					      out	(c),c
   5353  0000
hero.asm (5354): error: Unknown Mnemonic 'ld'.
   5354  0000					      ld	c,0
hero.asm (5355): error: Unknown Mnemonic 'out'.
   5355  0000					      out	(c),c
   5356  0000
hero.asm (5357): error: Unknown Mnemonic 'ld'.
   5357  0000					      ld	bc,&f700 or %10010010
hero.asm (5358): error: Unknown Mnemonic 'out'.
   5358  0000					      out	(c),c
   5359  0000
hero.asm (5360): error: Unknown Mnemonic 'ld'.
   5360  0000					      ld	b,&F6
hero.asm (5361): error: Unknown Mnemonic 'ld'.
   5361  0000					      ld	a,%01001001	;read line 9
hero.asm (5362): error: Unknown Mnemonic 'out'.
   5362  0000					      out	(c),a
hero.asm (5363): error: Unknown Mnemonic 'ld'.
   5363  0000					      ld	b,&f4
hero.asm (5364): error: Unknown Mnemonic 'in'.
   5364  0000					      in	a,(c)
hero.asm (5365): error: Unknown Mnemonic 'cpl'.
   5365  0000					      cpl
hero.asm (5366): error: Unknown Mnemonic 'ld'.
   5366  0000					      ld	(hl),a
   5367  0000
hero.asm (5368): error: Unknown Mnemonic 'ld'.
   5368  0000					      ld	b,&F6
hero.asm (5369): error: Unknown Mnemonic 'ld'.
   5369  0000					      ld	a,%01000000	;read line 0
hero.asm (5370): error: Unknown Mnemonic 'out'.
   5370  0000					      out	(c),a
hero.asm (5371): error: Unknown Mnemonic 'ld'.
   5371  0000					      ld	b,&f4
hero.asm (5372): error: Unknown Mnemonic 'in'.
   5372  0000					      in	a,(c)
hero.asm (5373): error: Unknown Mnemonic 'bit'.
   5373  0000					      bit	2,a
hero.asm (5374): error: Unknown Mnemonic 'jr'.
   5374  0000					      jr	nz,rjoy1
   5375  0000					      set	1,(hl)
hero.asm (5376): error: Unknown Mnemonic 'bit'.
   5376  0000				   rjoy1      bit	1,a
hero.asm (5377): error: Unknown Mnemonic 'jr'.
   5377  0000					      jr	nz,rjoy2
   5378  0000					      set	3,(hl)
hero.asm (5379): error: Unknown Mnemonic 'bit'.
   5379  0000				   rjoy2      bit	0,a
hero.asm (5380): error: Unknown Mnemonic 'jr'.
   5380  0000					      jr	nz,rjoy3
   5381  0000					      set	0,(hl)
   5382  0000
hero.asm (5383): error: Unknown Mnemonic 'ld'.
   5383  0000				   rjoy3      ld	b,&F6
hero.asm (5384): error: Unknown Mnemonic 'ld'.
   5384  0000					      ld	a,%01000001	;read line 1
hero.asm (5385): error: Unknown Mnemonic 'out'.
   5385  0000					      out	(c),a
hero.asm (5386): error: Unknown Mnemonic 'ld'.
   5386  0000					      ld	b,&f4
hero.asm (5387): error: Unknown Mnemonic 'in'.
   5387  0000					      in	a,(c)
hero.asm (5388): error: Unknown Mnemonic 'bit'.
   5388  0000					      bit	1,a
hero.asm (5389): error: Unknown Mnemonic 'jr'.
   5389  0000					      jr	nz,rjoy4
   5390  0000					      set	4,(hl)
hero.asm (5391): error: Unknown Mnemonic 'bit'.
   5391  0000				   rjoy4      bit	0,a
hero.asm (5392): error: Unknown Mnemonic 'jr'.
   5392  0000					      jr	nz,rjoy5
   5393  0000					      set	2,(hl)
   5394  0000
hero.asm (5395): error: Unknown Mnemonic 'ld'.
   5395  0000				   rjoy5      ld	b,&F6
hero.asm (5396): error: Unknown Mnemonic 'ld'.
   5396  0000					      ld	a,%01000101	;read line 5
hero.asm (5397): error: Unknown Mnemonic 'out'.
   5397  0000					      out	(c),a
hero.asm (5398): error: Unknown Mnemonic 'ld'.
   5398  0000					      ld	b,&f4
hero.asm (5399): error: Unknown Mnemonic 'in'.
   5399  0000					      in	a,(c)
hero.asm (5400): error: Unknown Mnemonic 'bit'.
   5400  0000					      bit	7,a
hero.asm (5401): error: Unknown Mnemonic 'jr'.
   5401  0000					      jr	nz,resc
   5402  0000					      set	4,(hl)
   5403  0000
hero.asm (5404): error: Unknown Mnemonic 'ld'.
   5404  0000				   resc       ld	b,&F6
hero.asm (5405): error: Unknown Mnemonic 'ld'.
   5405  0000					      ld	a,%01001000	;read line 8 -> ESC
hero.asm (5406): error: Unknown Mnemonic 'out'.
   5406  0000					      out	(c),a
hero.asm (5407): error: Unknown Mnemonic 'ld'.
   5407  0000					      ld	b,&f4
hero.asm (5408): error: Unknown Mnemonic 'in'.
   5408  0000					      in	a,(c)
hero.asm (5409): error: Unknown Mnemonic 'cpl'.
   5409  0000					      cpl
hero.asm (5410): error: Unknown Mnemonic 'ld'.
   5410  0000					      ld	(escbyte),a
   5411  0000
hero.asm (5412): error: Unknown Mnemonic 'ld'.
   5412  0000					      ld	bc,&f700 or %10000010
hero.asm (5413): error: Unknown Mnemonic 'out'.
   5413  0000					      out	(c),c
hero.asm (5414): error: Unknown Mnemonic 'ld'.
   5414  0000					      ld	bc,&6f00
hero.asm (5415): error: Unknown Mnemonic 'out'.
   5415  0000					      out	(c),c
   5416  0000
hero.asm (5417): error: Unknown Mnemonic 'pop'.
   5417  0000					      pop	hl
hero.asm (5418): error: Unknown Mnemonic 'pop'.
   5418  0000					      pop	af
hero.asm (5419): error: Unknown Mnemonic 'pop'.
   5419  0000					      pop	de
hero.asm (5420): error: Unknown Mnemonic 'pop'.
   5420  0000					      pop	bc
hero.asm (5421): error: Unknown Mnemonic 'ret'.
   5421  0000					      ret
   5422  0000
hero.asm (5423): error: Unknown Mnemonic 'db'.
   5423  0000				   joybyte    db	0
hero.asm (5424): error: Unknown Mnemonic 'db'.
   5424  0000				   escbyte    db	0
   5425  0000
   5426  0000							;-------------------------------------------------------------------------------
   5427  0000							;setup power pane
   5428  0000							;
   5429  0000				   setuppowerpane
hero.asm (5430): error: Unknown Mnemonic 'ld'.
   5430  0000					      ld	b,0	;upper border
hero.asm (5431): error: Unknown Mnemonic 'ld'.
   5431  0000					      ld	c,0+topoffset
hero.asm (5432): error: Unknown Mnemonic 'ld'.
   5432  0000					      ld	e,80
hero.asm (5433): error: Unknown Mnemonic 'ld'.
   5433  0000					      ld	d,14
hero.asm (5434): error: Unknown Mnemonic 'ld'.
   5434  0000					      ld	a,%00001100
hero.asm (5435): error: Unknown Mnemonic 'call'.
   5435  0000					      call	fillblock
   5436  0000
hero.asm (5437): error: Unknown Mnemonic 'ld'.
   5437  0000					      ld	b,0	;1 line black, beneath game screen
hero.asm (5438): error: Unknown Mnemonic 'ld'.
   5438  0000					      ld	c,131+topoffset
hero.asm (5439): error: Unknown Mnemonic 'ld'.
   5439  0000					      ld	e,80
hero.asm (5440): error: Unknown Mnemonic 'ld'.
   5440  0000					      ld	d,1
hero.asm (5441): error: Unknown Mnemonic 'ld'.
   5441  0000					      ld	a,%00001100
hero.asm (5442): error: Unknown Mnemonic 'call'.
   5442  0000					      call	fillblock
   5443  0000
hero.asm (5444): error: Unknown Mnemonic 'ld'.
   5444  0000					      ld	b,0	;powerpane grey
hero.asm (5445): error: Unknown Mnemonic 'ld'.
   5445  0000					      ld	c,132+topoffset
hero.asm (5446): error: Unknown Mnemonic 'ld'.
   5446  0000					      ld	e,80
hero.asm (5447): error: Unknown Mnemonic 'ld'.
   5447  0000					      ld	d,47
hero.asm (5448): error: Unknown Mnemonic 'ld'.
   5448  0000					      ld	a,%00000011
hero.asm (5449): error: Unknown Mnemonic 'call'.
   5449  0000					      call	fillblock
   5450  0000
hero.asm (5451): error: Unknown Mnemonic 'ld'.
   5451  0000					      ld	b,13	;draw "power" sprite
hero.asm (5452): error: Unknown Mnemonic 'ld'.
   5452  0000					      ld	c,134+topoffset
hero.asm (5453): error: Unknown Mnemonic 'ld'.
   5453  0000					      ld	de,&0b05
hero.asm (5454): error: Unknown Mnemonic 'ld'.
   5454  0000					      ld	hl,powerpan
hero.asm (5455): error: Unknown Mnemonic 'call'.
   5455  0000					      call	drawsprite
   5456  0000
hero.asm (5457): error: Unknown Mnemonic 'ld'.
   5457  0000					      ld	b,0	;lower scroll border
hero.asm (5458): error: Unknown Mnemonic 'ld'.
   5458  0000					      ld	c,179+topoffset
hero.asm (5459): error: Unknown Mnemonic 'ld'.
   5459  0000					      ld	e,80
hero.asm (5460): error: Unknown Mnemonic 'ld'.
   5460  0000					      ld	d,12
hero.asm (5461): error: Unknown Mnemonic 'ld'.
   5461  0000					      ld	a,%00001100
hero.asm (5462): error: Unknown Mnemonic 'call'.
   5462  0000					      call	fillblock
   5463  0000
hero.asm (5464): error: Unknown Mnemonic 'ret'.
   5464  0000					      ret
   5465  0000
   5466  0000							;-------------------------------------------------------------------------------
   5467  0000							;draw score
   5468  0000							;
   5469  0000				   drawscore
hero.asm (5470): error: Unknown Mnemonic 'ld'.
   5470  0000					      ld	ix,score	;set pointer
hero.asm (5471): error: Unknown Mnemonic 'ld'.
   5471  0000					      ld	b,6	;six digits
hero.asm (5472): error: Unknown Mnemonic 'ld'.
   5472  0000					      ld	(ix-1),0	;indicator no blanking
   5473  0000
hero.asm (5474): error: Unknown Mnemonic 'ld'.
   5474  0000				   screp      ld	yl,b	;save loop counter
   5475  0000
hero.asm (5476): error: Unknown Mnemonic 'ld'.
   5476  0000					      ld	a,(ix+0)	;fill block or...
hero.asm (5477): error: Unknown Mnemonic 'or'.
   5477  0000					      or	a	;...draw score digit?
hero.asm (5478): error: Unknown Mnemonic 'jr'.
   5478  0000					      jr	nz,scdsp1
   5479  0000
hero.asm (5480): error: Unknown Mnemonic 'ld'.
   5480  0000					      ld	a,(scdgonly)	;draw zero digits...?
hero.asm (5481): error: Unknown Mnemonic 'or'.
   5481  0000					      or	a	;
hero.asm (5482): error: Unknown Mnemonic 'jr'.
   5482  0000					      jr	nz,scdsp	;
   5483  0000
hero.asm (5484): error: Unknown Mnemonic 'ld'.
   5484  0000					      ld	a,b	;last digit...?
hero.asm (5485): error: Unknown Mnemonic 'cp'.
   5485  0000					      cp	1	;
hero.asm (5486): error: Unknown Mnemonic 'jr'.
   5486  0000					      jr	z,scdsp	;...draw always
   5487  0000
hero.asm (5488): error: Unknown Mnemonic 'ld'.
   5488  0000					      ld	a,(ix+6)
hero.asm (5489): error: Unknown Mnemonic 'ld'.
   5489  0000					      ld	b,a	;x position
hero.asm (5490): error: Unknown Mnemonic 'ld'.
   5490  0000					      ld	c,169+topoffset	;y position
hero.asm (5491): error: Unknown Mnemonic 'ld'.
   5491  0000					      ld	de,&0703	;height, width
hero.asm (5492): error: Unknown Mnemonic 'ld'.
   5492  0000					      ld	a,%00000011	;both pixels grey
hero.asm (5493): error: Unknown Mnemonic 'call'.
   5493  0000					      call	fillblock
hero.asm (5494): error: Unknown Mnemonic 'jr'.
   5494  0000					      jr	scnxt
   5495  0000
hero.asm (5496): error: Unknown Mnemonic 'ld'.
   5496  0000				   scdsp      ld	hl,numb0	;jump block for digit 0
hero.asm (5497): error: Unknown Mnemonic 'jr'.
   5497  0000					      jr	scdsp2
   5498  0000
hero.asm (5499): error: Unknown Mnemonic 'ld'.
   5499  0000				   scdsp1     ld	hl,numbadr	;calculate digitaddress
hero.asm (5500): error: Unknown Mnemonic 'rl'.
   5500  0000					      rl	a	;a=a*2, because address is word
hero.asm (5501): error: Unknown Mnemonic 'ld'.
   5501  0000					      ld	b,0	;clear b to add hl,bc
hero.asm (5502): error: Unknown Mnemonic 'ld'.
   5502  0000					      ld	c,a	;set offset to c
hero.asm (5503): error: Unknown Mnemonic 'add'.
   5503  0000					      add	hl,bc	;calculate address in table
hero.asm (5504): error: Unknown Mnemonic 'ld'.
   5504  0000					      ld	e,(hl)	;copy adress...
hero.asm (5505): error: Unknown Mnemonic 'inc'.
   5505  0000					      inc	hl	;...in table...
hero.asm (5506): error: Unknown Mnemonic 'ld'.
   5506  0000					      ld	d,(hl)	;...to de
hero.asm (5507): error: Unknown Mnemonic 'ex'.
   5507  0000					      ex	de,hl	;swap de hl to receive address in hl
   5508  0000
hero.asm (5509): error: Unknown Mnemonic 'ld'.
   5509  0000				   scdsp2     ld	a,(ix+6)
hero.asm (5510): error: Unknown Mnemonic 'ld'.
   5510  0000					      ld	b,a	;x position
hero.asm (5511): error: Unknown Mnemonic 'ld'.
   5511  0000					      ld	c,168+topoffset	;y position
hero.asm (5512): error: Unknown Mnemonic 'ld'.
   5512  0000					      ld	de,&0307	;width, height
hero.asm (5513): error: Unknown Mnemonic 'call'.
   5513  0000					      call	drawsprite
hero.asm (5514): error: Unknown Mnemonic 'ld'.
   5514  0000					      ld	hl,scdgonly	;
hero.asm (5515): error: Unknown Mnemonic 'ld'.
   5515  0000					      ld	(hl),1	;no blanking!!!   
   5516  0000
hero.asm (5517): error: Unknown Mnemonic 'ld'.
   5517  0000				   scnxt      ld	b,yl	;restore loop counter
hero.asm (5518): error: Unknown Mnemonic 'inc'.
   5518  0000					      inc	ix	;increment pointer
hero.asm (5519): error: Unknown Mnemonic 'djnz'.
   5519  0000					      djnz	screp	;loop all 6 digits
hero.asm (5520): error: Unknown Mnemonic 'ret'.
   5520  0000					      ret
   5521  0000
hero.asm (5522): error: Unknown Mnemonic 'db'.
   5522  0000				   scdgonly   db	0	; DO NOT CHANGE THIS BLOCK!!!
hero.asm (5523): error: Unknown Mnemonic 'db'.
   5523  0000				   score      db	0,0,0,0,0,0
hero.asm (5524): error: Unknown Mnemonic 'db'.
   5524  0000				   scoffs     db	pos1,pos2,pos3,pos4,pos5,pos6
hero.asm (5525): error: Unknown Mnemonic 'dw'.
   5525  0000				   numbadr    dw	numb0,numb1,numb2,numb3,numb4,numb5,numb6,numb7,numb8,numb9
   5526  0000
   5527  0000							;-------------------------------------------------------------------------------
   5528  0000							;draw level
   5529  0000							;same as draw score, but own routine
   5530  0000							;
   5531  0000				   showlevel
hero.asm (5532): error: Unknown Mnemonic 'ld'.
   5532  0000					      ld	a,(rungame5)
hero.asm (5533): error: Unknown Mnemonic 'or'.
   5533  0000					      or	a
hero.asm (5534): error: Unknown Mnemonic 'ret'.
   5534  0000					      ret	nz
hero.asm (5535): error: Unknown Mnemonic 'call'.
   5535  0000					      call	clearlevel
hero.asm (5536): error: Unknown Mnemonic 'ld'.
   5536  0000					      ld	b,pos1-2
hero.asm (5537): error: Unknown Mnemonic 'ld'.
   5537  0000					      ld	c,168+topoffset
hero.asm (5538): error: Unknown Mnemonic 'ld'.
   5538  0000					      ld	de,&1307
hero.asm (5539): error: Unknown Mnemonic 'ld'.
   5539  0000					      ld	hl,levelpan
hero.asm (5540): error: Unknown Mnemonic 'call'.
   5540  0000					      call	drawsprite
   5541  0000
hero.asm (5542): error: Unknown Mnemonic 'ld'.
   5542  0000					      ld	a,(prolevel)
hero.asm (5543): error: Unknown Mnemonic 'or'.
   5543  0000					      or	a
hero.asm (5544): error: Unknown Mnemonic 'jr'.
   5544  0000					      jr	z,shwlevnr
hero.asm (5545): error: Unknown Mnemonic 'ld'.
   5545  0000					      ld	b,pos1-2+&15
hero.asm (5546): error: Unknown Mnemonic 'ld'.
   5546  0000					      ld	c,168+topoffset
hero.asm (5547): error: Unknown Mnemonic 'ld'.
   5547  0000					      ld	de,&0a07
hero.asm (5548): error: Unknown Mnemonic 'ld'.
   5548  0000					      ld	hl,levpro
hero.asm (5549): error: Unknown Mnemonic 'call'.
   5549  0000					      call	drawsprite
hero.asm (5550): error: Unknown Mnemonic 'ret'.
   5550  0000					      ret
   5551  0000
hero.asm (5552): error: Unknown Mnemonic 'ld'.
   5552  0000				   shwlevnr   ld	ix,level	;set pointer
hero.asm (5553): error: Unknown Mnemonic 'ld'.
   5553  0000					      ld	b,2	;two digits
hero.asm (5554): error: Unknown Mnemonic 'ld'.
   5554  0000					      ld	(ix-1),0	;indicator no blanking
   5555  0000
hero.asm (5556): error: Unknown Mnemonic 'ld'.
   5556  0000				   lvrep      ld	yl,b	;save loop counter
   5557  0000
hero.asm (5558): error: Unknown Mnemonic 'ld'.
   5558  0000					      ld	a,(ix+0)	;fill block or...
hero.asm (5559): error: Unknown Mnemonic 'or'.
   5559  0000					      or	a	;...draw level digit?
hero.asm (5560): error: Unknown Mnemonic 'jr'.
   5560  0000					      jr	nz,lvdsp1
   5561  0000
hero.asm (5562): error: Unknown Mnemonic 'ld'.
   5562  0000					      ld	a,(lvdgonly)	;draw zero digits...?
hero.asm (5563): error: Unknown Mnemonic 'or'.
   5563  0000					      or	a	;
hero.asm (5564): error: Unknown Mnemonic 'jr'.
   5564  0000					      jr	nz,lvdsp	;
   5565  0000
hero.asm (5566): error: Unknown Mnemonic 'ld'.
   5566  0000					      ld	a,b	;last digit...?
hero.asm (5567): error: Unknown Mnemonic 'cp'.
   5567  0000					      cp	1	;
hero.asm (5568): error: Unknown Mnemonic 'jr'.
   5568  0000					      jr	z,lvdsp	;...draw always
   5569  0000
hero.asm (5570): error: Unknown Mnemonic 'ld'.
   5570  0000					      ld	a,(ix+2)
hero.asm (5571): error: Unknown Mnemonic 'ld'.
   5571  0000					      ld	b,a	;x position
hero.asm (5572): error: Unknown Mnemonic 'ld'.
   5572  0000					      ld	c,169+topoffset	;y position
hero.asm (5573): error: Unknown Mnemonic 'ld'.
   5573  0000					      ld	de,&0703	;height, width
hero.asm (5574): error: Unknown Mnemonic 'ld'.
   5574  0000					      ld	a,%00000011	;both pixels grey
hero.asm (5575): error: Unknown Mnemonic 'call'.
   5575  0000					      call	fillblock
hero.asm (5576): error: Unknown Mnemonic 'jr'.
   5576  0000					      jr	lvnxt
   5577  0000
hero.asm (5578): error: Unknown Mnemonic 'ld'.
   5578  0000				   lvdsp      ld	hl,numb0	;jump block for digit 0
hero.asm (5579): error: Unknown Mnemonic 'jr'.
   5579  0000					      jr	lvdsp2
   5580  0000
hero.asm (5581): error: Unknown Mnemonic 'ld'.
   5581  0000				   lvdsp1     ld	hl,numadrlv	;calculate digitaddress
hero.asm (5582): error: Unknown Mnemonic 'rl'.
   5582  0000					      rl	a	;a=a*2, because address is word
hero.asm (5583): error: Unknown Mnemonic 'ld'.
   5583  0000					      ld	b,0	;clear b to add hl,bc
hero.asm (5584): error: Unknown Mnemonic 'ld'.
   5584  0000					      ld	c,a	;set offset to c
hero.asm (5585): error: Unknown Mnemonic 'add'.
   5585  0000					      add	hl,bc	;calculate address in table
hero.asm (5586): error: Unknown Mnemonic 'ld'.
   5586  0000					      ld	e,(hl)	;copy adress...
hero.asm (5587): error: Unknown Mnemonic 'inc'.
   5587  0000					      inc	hl	;...in table...
hero.asm (5588): error: Unknown Mnemonic 'ld'.
   5588  0000					      ld	d,(hl)	;...to de
hero.asm (5589): error: Unknown Mnemonic 'ex'.
   5589  0000					      ex	de,hl	;swap de hl to receive address in hl
   5590  0000
hero.asm (5591): error: Unknown Mnemonic 'ld'.
   5591  0000				   lvdsp2     ld	a,(ix+2)
hero.asm (5592): error: Unknown Mnemonic 'ld'.
   5592  0000					      ld	b,a	;x position
hero.asm (5593): error: Unknown Mnemonic 'ld'.
   5593  0000					      ld	c,168+topoffset	;y position
hero.asm (5594): error: Unknown Mnemonic 'ld'.
   5594  0000					      ld	de,&0307	;width, height
hero.asm (5595): error: Unknown Mnemonic 'call'.
   5595  0000					      call	drawsprite
hero.asm (5596): error: Unknown Mnemonic 'ld'.
   5596  0000					      ld	hl,lvdgonly	;
hero.asm (5597): error: Unknown Mnemonic 'ld'.
   5597  0000					      ld	(hl),1	;no blanking!!!   
   5598  0000
hero.asm (5599): error: Unknown Mnemonic 'ld'.
   5599  0000				   lvnxt      ld	b,yl	;restore loop counter
hero.asm (5600): error: Unknown Mnemonic 'inc'.
   5600  0000					      inc	ix	;increment pointer
hero.asm (5601): error: Unknown Mnemonic 'djnz'.
   5601  0000					      djnz	lvrep	;loop all 2 digits
hero.asm (5602): error: Unknown Mnemonic 'ret'.
   5602  0000					      ret
   5603  0000
hero.asm (5604): error: Unknown Mnemonic 'db'.
   5604  0000				   lvdgonly   db	0	; DO NOT CHANGE THIS BLOCK!!!
hero.asm (5605): error: Unknown Mnemonic 'db'.
   5605  0000				   level      db	0,1
hero.asm (5606): error: Unknown Mnemonic 'db'.
   5606  0000				   lvoffs     db	pos5+3,pos6+3
hero.asm (5607): error: Unknown Mnemonic 'dw'.
   5607  0000				   numadrlv   dw	numb0,numb1,numb2,numb3,numb4,numb5,numb6,numb7,numb8,numb9
hero.asm (5608): error: Unknown Mnemonic 'db'.
   5608  0000				   levnumbr   db	0
   5609  0000
   5610  0000							;-------------------------------------------------------------------------------
   5611  0000							;clear level writing
   5612  0000							;
   5613  0000				   clearlevel
hero.asm (5614): error: Unknown Mnemonic 'ld'.
   5614  0000					      ld	b,pos1-2
hero.asm (5615): error: Unknown Mnemonic 'ld'.
   5615  0000					      ld	c,168+topoffset
hero.asm (5616): error: Unknown Mnemonic 'ld'.
   5616  0000					      ld	de,&0820
hero.asm (5617): error: Unknown Mnemonic 'ld'.
   5617  0000					      ld	a,%00000011
hero.asm (5618): error: Unknown Mnemonic 'call'.
   5618  0000					      call	fillblock
hero.asm (5619): error: Unknown Mnemonic 'ret'.
   5619  0000					      ret
   5620  0000
   5621  0000							;-------------------------------------------------------------------------------
   5622  0000							;draw bombs
   5623  0000							;
   5624  0000				   drawbombs
hero.asm (5625): error: Unknown Mnemonic 'ld'.
   5625  0000					      ld	ix,booffs+5
hero.asm (5626): error: Unknown Mnemonic 'ld'.
   5626  0000					      ld	a,(bombs)
hero.asm (5627): error: Unknown Mnemonic 'or'.
   5627  0000					      or	a	;jump if...						 
hero.asm (5628): error: Unknown Mnemonic 'jr'.
   5628  0000					      jr	z,nobombs	;...no bombs						  
hero.asm (5629): error: Unknown Mnemonic 'ld'.
   5629  0000					      ld	b,a	;setup counter
   5630  0000
hero.asm (5631): error: Unknown Mnemonic 'ld'.
   5631  0000				   dbrep      ld	yl,b
hero.asm (5632): error: Unknown Mnemonic 'ld'.
   5632  0000					      ld	a,(ix+0)
hero.asm (5633): error: Unknown Mnemonic 'ld'.
   5633  0000					      ld	b,a
hero.asm (5634): error: Unknown Mnemonic 'ld'.
   5634  0000					      ld	c,155+topoffset
hero.asm (5635): error: Unknown Mnemonic 'ld'.
   5635  0000					      ld	de,&020b
hero.asm (5636): error: Unknown Mnemonic 'ld'.
   5636  0000					      ld	hl,powbomb
hero.asm (5637): error: Unknown Mnemonic 'call'.
   5637  0000					      call	drawsprite
hero.asm (5638): error: Unknown Mnemonic 'ld'.
   5638  0000					      ld	b,yl
hero.asm (5639): error: Unknown Mnemonic 'dec'.
   5639  0000					      dec	ix
hero.asm (5640): error: Unknown Mnemonic 'djnz'.
   5640  0000					      djnz	dbrep
   5641  0000
hero.asm (5642): error: Unknown Mnemonic 'ld'.
   5642  0000				   nobombs    ld	a,(bombs)
hero.asm (5643): error: Unknown Mnemonic 'ld'.
   5643  0000					      ld	b,a
hero.asm (5644): error: Unknown Mnemonic 'ld'.
   5644  0000					      ld	a,6
hero.asm (5645): error: Unknown Mnemonic 'sub'.
   5645  0000					      sub	b
hero.asm (5646): error: Unknown Mnemonic 'ret'.
   5646  0000					      ret	z
hero.asm (5647): error: Unknown Mnemonic 'ld'.
   5647  0000					      ld	b,a
   5648  0000
hero.asm (5649): error: Unknown Mnemonic 'ld'.
   5649  0000				   dbrep2     ld	yl,b
hero.asm (5650): error: Unknown Mnemonic 'ld'.
   5650  0000					      ld	a,(ix+0)
hero.asm (5651): error: Unknown Mnemonic 'ld'.
   5651  0000					      ld	b,a
hero.asm (5652): error: Unknown Mnemonic 'ld'.
   5652  0000					      ld	c,156+topoffset
hero.asm (5653): error: Unknown Mnemonic 'ld'.
   5653  0000					      ld	de,&0b02
hero.asm (5654): error: Unknown Mnemonic 'ld'.
   5654  0000					      ld	a,%00000011
hero.asm (5655): error: Unknown Mnemonic 'call'.
   5655  0000					      call	fillblock
hero.asm (5656): error: Unknown Mnemonic 'ld'.
   5656  0000					      ld	b,yl
hero.asm (5657): error: Unknown Mnemonic 'dec'.
   5657  0000					      dec	ix
hero.asm (5658): error: Unknown Mnemonic 'djnz'.
   5658  0000					      djnz	dbrep2
   5659  0000
hero.asm (5660): error: Unknown Mnemonic 'ret'.
   5660  0000					      ret
   5661  0000
hero.asm (5662): error: Unknown Mnemonic 'db'.
   5662  0000				   bombs      db	0
hero.asm (5663): error: Unknown Mnemonic 'db'.
   5663  0000				   booffs     db	pos1+1,pos2+1,pos3+1,pos4+1,pos5+1,pos6+1
   5664  0000
   5665  0000							;-------------------------------------------------------------------------------
   5666  0000							;draw lifes
   5667  0000							;
   5668  0000				   drawlifes
hero.asm (5669): error: Unknown Mnemonic 'ld'.
   5669  0000					      ld	ix,lifoffs+5
hero.asm (5670): error: Unknown Mnemonic 'ld'.
   5670  0000					      ld	a,(lifes)
hero.asm (5671): error: Unknown Mnemonic 'or'.
   5671  0000					      or	a	;jump if...						 
hero.asm (5672): error: Unknown Mnemonic 'jr'.
   5672  0000					      jr	z,nolifes	;...no lifes					      
hero.asm (5673): error: Unknown Mnemonic 'ld'.
   5673  0000					      ld	b,a	;setup counter
   5674  0000
hero.asm (5675): error: Unknown Mnemonic 'ld'.
   5675  0000				   dlrep      ld	yl,b
hero.asm (5676): error: Unknown Mnemonic 'ld'.
   5676  0000					      ld	a,(ix+0)
hero.asm (5677): error: Unknown Mnemonic 'ld'.
   5677  0000					      ld	b,a
hero.asm (5678): error: Unknown Mnemonic 'ld'.
   5678  0000					      ld	c,141+topoffset
hero.asm (5679): error: Unknown Mnemonic 'ld'.
   5679  0000					      ld	de,&030c
hero.asm (5680): error: Unknown Mnemonic 'ld'.
   5680  0000					      ld	hl,powlife
hero.asm (5681): error: Unknown Mnemonic 'call'.
   5681  0000					      call	drawsprite
hero.asm (5682): error: Unknown Mnemonic 'ld'.
   5682  0000					      ld	b,yl
hero.asm (5683): error: Unknown Mnemonic 'dec'.
   5683  0000					      dec	ix
hero.asm (5684): error: Unknown Mnemonic 'djnz'.
   5684  0000					      djnz	dlrep
   5685  0000
hero.asm (5686): error: Unknown Mnemonic 'ld'.
   5686  0000				   nolifes    ld	a,(lifes)
hero.asm (5687): error: Unknown Mnemonic 'ld'.
   5687  0000					      ld	b,a
hero.asm (5688): error: Unknown Mnemonic 'ld'.
   5688  0000					      ld	a,6
hero.asm (5689): error: Unknown Mnemonic 'sub'.
   5689  0000					      sub	b
hero.asm (5690): error: Unknown Mnemonic 'ret'.
   5690  0000					      ret	z
hero.asm (5691): error: Unknown Mnemonic 'ld'.
   5691  0000					      ld	b,a
   5692  0000
hero.asm (5693): error: Unknown Mnemonic 'ld'.
   5693  0000				   dlrep2     ld	yl,b
hero.asm (5694): error: Unknown Mnemonic 'ld'.
   5694  0000					      ld	a,(ix+0)
hero.asm (5695): error: Unknown Mnemonic 'ld'.
   5695  0000					      ld	b,a
hero.asm (5696): error: Unknown Mnemonic 'ld'.
   5696  0000					      ld	c,142+topoffset
hero.asm (5697): error: Unknown Mnemonic 'ld'.
   5697  0000					      ld	de,&0c03
hero.asm (5698): error: Unknown Mnemonic 'ld'.
   5698  0000					      ld	a,%00000011
hero.asm (5699): error: Unknown Mnemonic 'call'.
   5699  0000					      call	fillblock
hero.asm (5700): error: Unknown Mnemonic 'ld'.
   5700  0000					      ld	b,yl
hero.asm (5701): error: Unknown Mnemonic 'dec'.
   5701  0000					      dec	ix
hero.asm (5702): error: Unknown Mnemonic 'djnz'.
   5702  0000					      djnz	dlrep2
   5703  0000
hero.asm (5704): error: Unknown Mnemonic 'ret'.
   5704  0000					      ret
   5705  0000
hero.asm (5706): error: Unknown Mnemonic 'db'.
   5706  0000				   lifes      db	0
hero.asm (5707): error: Unknown Mnemonic 'db'.
   5707  0000				   lifoffs    db	pos1,pos2,pos3,pos4,pos5,pos6
   5708  0000
   5709  0000							;-------------------------------------------------------------------------------
   5710  0000							;draw energy
   5711  0000				   drawenergy
hero.asm (5712): error: Unknown Mnemonic 'ld'.
   5712  0000					      ld	a,(energy)
hero.asm (5713): error: Unknown Mnemonic 'or'.
   5713  0000					      or	a
hero.asm (5714): error: Unknown Mnemonic 'jr'.
   5714  0000					      jr	z,defillup
hero.asm (5715): error: Unknown Mnemonic 'ld'.
   5715  0000					      ld	e,a
hero.asm (5716): error: Unknown Mnemonic 'ld'.
   5716  0000					      ld	b,25
hero.asm (5717): error: Unknown Mnemonic 'ld'.
   5717  0000					      ld	c,135+topoffset
hero.asm (5718): error: Unknown Mnemonic 'ld'.
   5718  0000					      ld	d,5
hero.asm (5719): error: Unknown Mnemonic 'ld'.
   5719  0000					      ld	a,%11000000	;pissgelb						  
hero.asm (5720): error: Unknown Mnemonic 'call'.
   5720  0000					      call	fillblock
   5721  0000
hero.asm (5722): error: Unknown Mnemonic 'ld'.
   5722  0000				   defillup   ld	a,(energy)
hero.asm (5723): error: Unknown Mnemonic 'ld'.
   5723  0000					      ld	b,a
hero.asm (5724): error: Unknown Mnemonic 'ld'.
   5724  0000					      ld	c,a
hero.asm (5725): error: Unknown Mnemonic 'ld'.
   5725  0000					      ld	a,40
hero.asm (5726): error: Unknown Mnemonic 'sub'.
   5726  0000					      sub	c
hero.asm (5727): error: Unknown Mnemonic 'ret'.
   5727  0000					      ret	z
hero.asm (5728): error: Unknown Mnemonic 'ld'.
   5728  0000					      ld	e,a
   5729  0000
hero.asm (5730): error: Unknown Mnemonic 'ld'.
   5730  0000					      ld	a,b
hero.asm (5731): error: Unknown Mnemonic 'ld'.
   5731  0000					      ld	b,25
hero.asm (5732): error: Unknown Mnemonic 'add'.
   5732  0000					      add	b
hero.asm (5733): error: Unknown Mnemonic 'ld'.
   5733  0000					      ld	b,a
   5734  0000
hero.asm (5735): error: Unknown Mnemonic 'ld'.
   5735  0000					      ld	c,135+topoffset
hero.asm (5736): error: Unknown Mnemonic 'ld'.
   5736  0000					      ld	d,5
hero.asm (5737): error: Unknown Mnemonic 'ld'.
   5737  0000					      ld	a,%11001111	;magenta
hero.asm (5738): error: Unknown Mnemonic 'call'.
   5738  0000					      call	fillblock
   5739  0000
hero.asm (5740): error: Unknown Mnemonic 'ret'.
   5740  0000					      ret
   5741  0000
hero.asm (5742): error: Unknown Mnemonic 'db'.
   5742  0000				   energy     db	0	;full=40
   5743  0000
   5744  0000							;-------------------------------------------------------------------------------
   5745  0000							;reset game
   5746  0000							;
   5747  0000				   resetgame
   5748  0000							;clear values				   
hero.asm (5749): error: Unknown Mnemonic 'xor'.
   5749  0000					      xor	a	;set score to 0						
hero.asm (5750): error: Unknown Mnemonic 'ld'.
   5750  0000					      ld	(score),a
hero.asm (5751): error: Unknown Mnemonic 'ld'.
   5751  0000					      ld	(score+1),a
hero.asm (5752): error: Unknown Mnemonic 'ld'.
   5752  0000					      ld	(score+2),a
hero.asm (5753): error: Unknown Mnemonic 'ld'.
   5753  0000					      ld	(score+3),a
hero.asm (5754): error: Unknown Mnemonic 'ld'.
   5754  0000					      ld	(score+4),a
hero.asm (5755): error: Unknown Mnemonic 'ld'.
   5755  0000					      ld	(score+5),a
   5756  0000
hero.asm (5757): error: Unknown Mnemonic 'ld'.
   5757  0000					      ld	(addlifec),a	;reset add life counter 
hero.asm (5758): error: Unknown Mnemonic 'ld'.
   5758  0000					      ld	(old5val),a	;reset 10000 counter
hero.asm (5759): error: Unknown Mnemonic 'ld'.
   5759  0000					      ld	(heroonraft),a	;clear flag
   5760  0000
hero.asm (5761): error: Unknown Mnemonic 'ld'.
   5761  0000					      ld	(wimp),a	;give up?
hero.asm (5762): error: Unknown Mnemonic 'ld'.
   5762  0000					      ld	(energy),a	;set energy to 0
hero.asm (5763): error: Unknown Mnemonic 'ld'.
   5763  0000					      ld	(levelcoltabptr),a	;clear level colour table pointer
   5764  0000
hero.asm (5765): error: Unknown Mnemonic 'add'.
   5765  0000					      add	3	;set lifes to 3
hero.asm (5766): error: Unknown Mnemonic 'ld'.
   5766  0000					      ld	(lifes),a
   5767  0000
hero.asm (5768): error: Unknown Mnemonic 'add'.
   5768  0000					      add	3	;set bombs to 6
hero.asm (5769): error: Unknown Mnemonic 'ld'.
   5769  0000					      ld	(bombs),a
   5770  0000
hero.asm (5771): error: Unknown Mnemonic 'xor'.
   5771  0000					      xor	a	;set level
hero.asm (5772): error: Unknown Mnemonic 'ld'.
   5772  0000					      ld	(level),a
hero.asm (5773): error: Unknown Mnemonic 'ld'.
   5773  0000					      ld	a,1
hero.asm (5774): error: Unknown Mnemonic 'ld'.
   5774  0000					      ld	(level+1),a
hero.asm (5775): error: Unknown Mnemonic 'ld'.
   5775  0000					      ld	hl,level1
hero.asm (5776): error: Unknown Mnemonic 'ld'.
   5776  0000					      ld	(pnextlev),hl
hero.asm (5777): error: Unknown Mnemonic 'ld'.
   5777  0000					      ld	a,1
hero.asm (5778): error: Unknown Mnemonic 'ld'.
   5778  0000					      ld	(levnumbr),a
hero.asm (5779): error: Unknown Mnemonic 'ret'.
   5779  0000					      ret
   5780  0000
   5781  0000							;-------------------------------------------------------------------------------
   5782  0000							;blackout
   5783  0000							;blacks all colours		 
   5784  0000				   blackout
hero.asm (5785): error: Unknown Mnemonic 'ld'.
   5785  0000					      ld	bc,&7f00 or %00010000	;black border
hero.asm (5786): error: Unknown Mnemonic 'out'.
   5786  0000					      out	(c),c
hero.asm (5787): error: Unknown Mnemonic 'ld'.
   5787  0000					      ld	bc,&7f00 or %01010100
hero.asm (5788): error: Unknown Mnemonic 'out'.
   5788  0000					      out	(c),c
   5789  0000
hero.asm (5790): error: Unknown Mnemonic 'ld'.
   5790  0000					      ld	b,16	;all colours to black
hero.asm (5791): error: Unknown Mnemonic 'push'.
   5791  0000				   boloop     push	bc
hero.asm (5792): error: Unknown Mnemonic 'ld'.
   5792  0000					      ld	a,b
hero.asm (5793): error: Unknown Mnemonic 'dec'.
   5793  0000					      dec	a
hero.asm (5794): error: Unknown Mnemonic 'ld'.
   5794  0000					      ld	bc,&7f00
hero.asm (5795): error: Unknown Mnemonic 'out'.
   5795  0000					      out	(c),a
   5796  0000
hero.asm (5797): error: Unknown Mnemonic 'ld'.
   5797  0000					      ld	a,%01010100
hero.asm (5798): error: Unknown Mnemonic 'out'.
   5798  0000					      out	(c),a
hero.asm (5799): error: Unknown Mnemonic 'pop'.
   5799  0000					      pop	bc
hero.asm (5800): error: Unknown Mnemonic 'djnz'.
   5800  0000					      djnz	boloop
   5801  0000
hero.asm (5802): error: Unknown Mnemonic 'ret'.
   5802  0000					      ret
   5803  0000
   5804  0000							;-------------------------------------------------------------------------------
   5805  0000							;unblackout
   5806  0000							;set colour, defined in coltab    
   5807  0000				   unblackout
hero.asm (5808): error: Unknown Mnemonic 'ld'.
   5808  0000					      ld	a,0	;start
hero.asm (5809): error: Unknown Mnemonic 'ld'.
   5809  0000					      ld	d,15	;ende
hero.asm (5810): error: Unknown Mnemonic 'ld'.
   5810  0000					      ld	hl,coltab
hero.asm (5811): error: Unknown Mnemonic 'call'.
   5811  0000					      call	setupcolours
hero.asm (5812): error: Unknown Mnemonic 'ret'.
   5812  0000					      ret
   5813  0000
   5814  0000							;-------------------------------------------------------------------------------
   5815  0000							;setup colours
   5816  0000							;hl=address of colourtable, a=start index, d=end index
   5817  0000				   setupcolours
hero.asm (5818): error: Unknown Mnemonic 'push'.
   5818  0000					      push	af
hero.asm (5819): error: Unknown Mnemonic 'push'.
   5819  0000					      push	bc
hero.asm (5820): error: Unknown Mnemonic 'inc'.
   5820  0000					      inc	d
hero.asm (5821): error: Unknown Mnemonic 'ld'.
   5821  0000				   scrset     ld	e,(hl)
hero.asm (5822): error: Unknown Mnemonic 'inc'.
   5822  0000					      inc	hl
   5823  0000
hero.asm (5824): error: Unknown Mnemonic 'push'.
   5824  0000					      push	af
hero.asm (5825): error: Unknown Mnemonic 'ld'.
   5825  0000					      ld	bc,&7f00
hero.asm (5826): error: Unknown Mnemonic 'out'.
   5826  0000					      out	(c),a
   5827  0000
hero.asm (5828): error: Unknown Mnemonic 'ld'.
   5828  0000					      ld	a,%01000000
hero.asm (5829): error: Unknown Mnemonic 'or'.
   5829  0000					      or	e
hero.asm (5830): error: Unknown Mnemonic 'out'.
   5830  0000					      out	(c),a
   5831  0000
hero.asm (5832): error: Unknown Mnemonic 'pop'.
   5832  0000					      pop	af
   5833  0000
hero.asm (5834): error: Unknown Mnemonic 'inc'.
   5834  0000					      inc	a
hero.asm (5835): error: Unknown Mnemonic 'cp'.
   5835  0000					      cp	d
hero.asm (5836): error: Unknown Mnemonic 'jr'.
   5836  0000					      jr	nz,scrset
hero.asm (5837): error: Unknown Mnemonic 'pop'.
   5837  0000					      pop	bc
hero.asm (5838): error: Unknown Mnemonic 'pop'.
   5838  0000					      pop	af
hero.asm (5839): error: Unknown Mnemonic 'ret'.
   5839  0000					      ret
   5840  0000
   5841  0000							;-------------------------------------------------------------------------------
   5842  0000							;wrpsg
   5843  0000							;c = register number
   5844  0000							;a = register data		   
   5845  0000				   wrpsg
hero.asm (5846): error: Unknown Mnemonic 'ld'.
   5846  0000					      ld	b,&f4
hero.asm (5847): error: Unknown Mnemonic 'out'.
   5847  0000					      out	(c),c
   5848  0000
hero.asm (5849): error: Unknown Mnemonic 'ld'.
   5849  0000					      ld	bc,&f6c0
hero.asm (5850): error: Unknown Mnemonic 'out'.
   5850  0000					      out	(c),c
   5851  0000
hero.asm (5852): error: Unknown Mnemonic 'ld'.
   5852  0000					      ld	bc,&f600
hero.asm (5853): error: Unknown Mnemonic 'out'.
   5853  0000					      out	(c),c
   5854  0000
hero.asm (5855): error: Unknown Mnemonic 'ld'.
   5855  0000					      ld	b,&f4
hero.asm (5856): error: Unknown Mnemonic 'out'.
   5856  0000					      out	(c),a
   5857  0000
hero.asm (5858): error: Unknown Mnemonic 'ld'.
   5858  0000					      ld	bc,&f680
hero.asm (5859): error: Unknown Mnemonic 'out'.
   5859  0000					      out	(c),c
   5860  0000
hero.asm (5861): error: Unknown Mnemonic 'ld'.
   5861  0000					      ld	bc,&f600
hero.asm (5862): error: Unknown Mnemonic 'out'.
   5862  0000					      out	(c),c
hero.asm (5863): error: Unknown Mnemonic 'ret'.
   5863  0000					      ret
   5864  0000
   5865  0000							;-------------------------------------------------------------------------------
   5866  0000							;fill block 
   5867  0000							;b=x, c=start raster, d=block height, a=fillpattern, e=fill width	   
   5868  0000				   fillblock
hero.asm (5869): error: Unknown Mnemonic 'dec'.
   5869  0000					      dec	c	;add height to top to receive end raster
hero.asm (5870): error: Unknown Mnemonic 'push'.
   5870  0000					      push	af
hero.asm (5871): error: Unknown Mnemonic 'ld'.
   5871  0000					      ld	a,c
hero.asm (5872): error: Unknown Mnemonic 'add'.
   5872  0000					      add	d
hero.asm (5873): error: Unknown Mnemonic 'ld'.
   5873  0000					      ld	d,a
hero.asm (5874): error: Unknown Mnemonic 'pop'.
   5874  0000					      pop	af
   5875  0000
hero.asm (5876): error: Unknown Mnemonic 'ld'.
   5876  0000					      ld	hl,fbpatch+1	;patch...																	    
hero.asm (5877): error: Unknown Mnemonic 'ld'.
   5877  0000					      ld	(hl),e	;...fill width
hero.asm (5878): error: Unknown Mnemonic 'ld'.
   5878  0000					      ld	hl,pwrlp+1	;patch...
hero.asm (5879): error: Unknown Mnemonic 'ld'.
   5879  0000					      ld	(hl),b	;...x pos
hero.asm (5880): error: Unknown Mnemonic 'ld'.
   5880  0000					      ld	hl,fbptrn+1	;patch...
hero.asm (5881): error: Unknown Mnemonic 'ld'.
   5881  0000					      ld	(hl),a	;...fill pattern
hero.asm (5882): error: Unknown Mnemonic 'ld'.
   5882  0000				   pwrlp      ld	b,0
hero.asm (5883): error: Unknown Mnemonic 'push'.
   5883  0000					      push	de
hero.asm (5884): error: Unknown Mnemonic 'ld'.
   5884  0000					      ld	a,c
hero.asm (5885): error: Unknown Mnemonic 'sla'.
   5885  0000					      sla	a
hero.asm (5886): error: Unknown Mnemonic 'ld'.
   5886  0000					      ld	e,a
hero.asm (5887): error: Unknown Mnemonic 'ld'.
   5887  0000					      ld	a,0
hero.asm (5888): error: Unknown Mnemonic 'adc'.
   5888  0000					      adc	0
hero.asm (5889): error: Unknown Mnemonic 'ld'.
   5889  0000					      ld	d,a
hero.asm (5890): error: Unknown Mnemonic 'ld'.
   5890  0000					      ld	hl,ytab
hero.asm (5891): error: Unknown Mnemonic 'add'.
   5891  0000					      add	hl,de
hero.asm (5892): error: Unknown Mnemonic 'ld'.
   5892  0000					      ld	a,(hl)
hero.asm (5893): error: Unknown Mnemonic 'add'.
   5893  0000					      add	b
hero.asm (5894): error: Unknown Mnemonic 'ld'.
   5894  0000					      ld	e,a
hero.asm (5895): error: Unknown Mnemonic 'inc'.
   5895  0000					      inc	hl
hero.asm (5896): error: Unknown Mnemonic 'ld'.
   5896  0000					      ld	d,(hl)
hero.asm (5897): error: Unknown Mnemonic 'ld'.
   5897  0000					      ld	a,0
hero.asm (5898): error: Unknown Mnemonic 'adc'.
   5898  0000					      adc	d
hero.asm (5899): error: Unknown Mnemonic 'ld'.
   5899  0000					      ld	d,a
hero.asm (5900): error: Unknown Mnemonic 'ex'.
   5900  0000					      ex	de,hl
hero.asm (5901): error: Unknown Mnemonic 'ld'.
   5901  0000					      ld	a,h
hero.asm (5902): error: Unknown Mnemonic 'and'.
   5902  0000					      and	&3f
hero.asm (5903): error: Unknown Mnemonic 'or'.
   5903  0000				   scrswp4    or	&c0
hero.asm (5904): error: Unknown Mnemonic 'ld'.
   5904  0000					      ld	h,a
hero.asm (5905): error: Unknown Mnemonic 'pop'.
   5905  0000					      pop	de
hero.asm (5906): error: Unknown Mnemonic 'ld'.
   5906  0000				   fbpatch    ld	b,80
hero.asm (5907): error: Unknown Mnemonic 'ld'.
   5907  0000				   fbptrn     ld	a,%00000011
hero.asm (5908): error: Unknown Mnemonic 'ld'.
   5908  0000				   pwrlst     ld	(hl),a
hero.asm (5909): error: Unknown Mnemonic 'inc'.
   5909  0000					      inc	hl
hero.asm (5910): error: Unknown Mnemonic 'djnz'.
   5910  0000					      djnz	pwrlst
hero.asm (5911): error: Unknown Mnemonic 'inc'.
   5911  0000					      inc	c
hero.asm (5912): error: Unknown Mnemonic 'ld'.
   5912  0000					      ld	a,c
hero.asm (5913): error: Unknown Mnemonic 'cp'.
   5913  0000					      cp	d
hero.asm (5914): error: Unknown Mnemonic 'jr'.
   5914  0000					      jr	nz,pwrlp
hero.asm (5915): error: Unknown Mnemonic 'ret'.
   5915  0000					      ret
   5916  0000
   5917  0000							;-------------------------------------------------------------------------------
   5918  0000							;savebackground
   5919  0000							;in:  B=x, C=y, D=bg width, E=bg height, HL=pointer to memorybuffer
   5920  0000				   savebackground
hero.asm (5921): error: Unknown Mnemonic 'ld'.
   5921  0000					      ld	(savhght),de
hero.asm (5922): error: Unknown Mnemonic 'ld'.
   5922  0000					      ld	(savsppos),hl
   5923  0000
hero.asm (5924): error: Unknown Mnemonic 'push'.
   5924  0000				   sbagain    push	bc
hero.asm (5925): error: Unknown Mnemonic 'ld'.
   5925  0000					      ld	a,c
hero.asm (5926): error: Unknown Mnemonic 'sla'.
   5926  0000					      sla	a
hero.asm (5927): error: Unknown Mnemonic 'ld'.
   5927  0000					      ld	e,a
hero.asm (5928): error: Unknown Mnemonic 'ld'.
   5928  0000					      ld	a,0
hero.asm (5929): error: Unknown Mnemonic 'adc'.
   5929  0000					      adc	0
hero.asm (5930): error: Unknown Mnemonic 'ld'.
   5930  0000					      ld	d,a
hero.asm (5931): error: Unknown Mnemonic 'ld'.
   5931  0000					      ld	hl,ytab
hero.asm (5932): error: Unknown Mnemonic 'add'.
   5932  0000					      add	hl,de
hero.asm (5933): error: Unknown Mnemonic 'ld'.
   5933  0000					      ld	a,(hl)
hero.asm (5934): error: Unknown Mnemonic 'add'.
   5934  0000					      add	b
hero.asm (5935): error: Unknown Mnemonic 'ld'.
   5935  0000					      ld	e,a
hero.asm (5936): error: Unknown Mnemonic 'inc'.
   5936  0000					      inc	hl
hero.asm (5937): error: Unknown Mnemonic 'ld'.
   5937  0000					      ld	d,(hl)
hero.asm (5938): error: Unknown Mnemonic 'ld'.
   5938  0000					      ld	a,0
hero.asm (5939): error: Unknown Mnemonic 'adc'.
   5939  0000					      adc	d
hero.asm (5940): error: Unknown Mnemonic 'ld'.
   5940  0000					      ld	d,a
hero.asm (5941): error: Unknown Mnemonic 'ex'.
   5941  0000					      ex	de,hl
hero.asm (5942): error: Unknown Mnemonic 'ld'.
   5942  0000					      ld	a,h
hero.asm (5943): error: Unknown Mnemonic 'and'.
   5943  0000					      and	&3f
hero.asm (5944): error: Unknown Mnemonic 'or'.
   5944  0000				   scrswp5    or	&c0
hero.asm (5945): error: Unknown Mnemonic 'ld'.
   5945  0000					      ld	h,a
   5946  0000
hero.asm (5947): error: Unknown Mnemonic 'ld'.
   5947  0000					      ld	de,(savsppos)
hero.asm (5948): error: Unknown Mnemonic 'ld'.
   5948  0000					      ld	bc,(savwdth)
hero.asm (5949): error: Unknown Mnemonic 'ld'.
   5949  0000					      ld	b,0
hero.asm (5950): error: Unknown Mnemonic 'ldir'.
   5950  0000					      ldir
   5951  0000
hero.asm (5952): error: Unknown Mnemonic 'ld'.
   5952  0000					      ld	(savsppos),de
hero.asm (5953): error: Unknown Mnemonic 'ld'.
   5953  0000					      ld	bc,(savhght)
hero.asm (5954): error: Unknown Mnemonic 'dec'.
   5954  0000					      dec	c
hero.asm (5955): error: Unknown Mnemonic 'jr'.
   5955  0000					      jr	z,sbexit
hero.asm (5956): error: Unknown Mnemonic 'ld'.
   5956  0000					      ld	(savhght),bc
hero.asm (5957): error: Unknown Mnemonic 'pop'.
   5957  0000					      pop	bc
hero.asm (5958): error: Unknown Mnemonic 'inc'.
   5958  0000					      inc	c
   5959  0000
hero.asm (5960): error: Unknown Mnemonic 'jr'.
   5960  0000					      jr	sbagain
   5961  0000
hero.asm (5962): error: Unknown Mnemonic 'pop'.
   5962  0000				   sbexit     pop	bc
hero.asm (5963): error: Unknown Mnemonic 'ret'.
   5963  0000					      ret
   5964  0000
   5965  0000							;-------------------------------------------------------------------------------
   5966  0000							;draw sprite (in mode 0)
   5967  0000							;in:  B=x, C=y, D=sprite width, E=sprite height, HL=sprite in memory
   5968  0000				   drawsprite
hero.asm (5969): error: Unknown Mnemonic 'ld'.
   5969  0000					      ld	(savhght),de
hero.asm (5970): error: Unknown Mnemonic 'ld'.
   5970  0000					      ld	(savsppos),hl
   5971  0000
hero.asm (5972): error: Unknown Mnemonic 'push'.
   5972  0000				   dsagain    push	bc
hero.asm (5973): error: Unknown Mnemonic 'ld'.
   5973  0000					      ld	a,c
hero.asm (5974): error: Unknown Mnemonic 'sla'.
   5974  0000					      sla	a
hero.asm (5975): error: Unknown Mnemonic 'ld'.
   5975  0000					      ld	e,a
hero.asm (5976): error: Unknown Mnemonic 'ld'.
   5976  0000					      ld	a,0
hero.asm (5977): error: Unknown Mnemonic 'adc'.
   5977  0000					      adc	0
hero.asm (5978): error: Unknown Mnemonic 'ld'.
   5978  0000					      ld	d,a
hero.asm (5979): error: Unknown Mnemonic 'ld'.
   5979  0000					      ld	hl,ytab
hero.asm (5980): error: Unknown Mnemonic 'add'.
   5980  0000					      add	hl,de
hero.asm (5981): error: Unknown Mnemonic 'ld'.
   5981  0000					      ld	a,(hl)
hero.asm (5982): error: Unknown Mnemonic 'add'.
   5982  0000					      add	b
hero.asm (5983): error: Unknown Mnemonic 'ld'.
   5983  0000					      ld	e,a
hero.asm (5984): error: Unknown Mnemonic 'inc'.
   5984  0000					      inc	hl
hero.asm (5985): error: Unknown Mnemonic 'ld'.
   5985  0000					      ld	d,(hl)
hero.asm (5986): error: Unknown Mnemonic 'ld'.
   5986  0000					      ld	a,0
hero.asm (5987): error: Unknown Mnemonic 'adc'.
   5987  0000					      adc	d
hero.asm (5988): error: Unknown Mnemonic 'ld'.
   5988  0000					      ld	d,a
hero.asm (5989): error: Unknown Mnemonic 'ex'.
   5989  0000					      ex	de,hl
hero.asm (5990): error: Unknown Mnemonic 'ld'.
   5990  0000					      ld	a,h
hero.asm (5991): error: Unknown Mnemonic 'and'.
   5991  0000					      and	&3f
hero.asm (5992): error: Unknown Mnemonic 'or'.
   5992  0000				   scrswp6    or	&c0
hero.asm (5993): error: Unknown Mnemonic 'ld'.
   5993  0000					      ld	h,a
   5994  0000
hero.asm (5995): error: Unknown Mnemonic 'ex'.
   5995  0000					      ex	de,hl
hero.asm (5996): error: Unknown Mnemonic 'ld'.
   5996  0000					      ld	hl,(savsppos)
hero.asm (5997): error: Unknown Mnemonic 'ld'.
   5997  0000					      ld	bc,(savwdth)
hero.asm (5998): error: Unknown Mnemonic 'ld'.
   5998  0000					      ld	b,0
hero.asm (5999): error: Unknown Mnemonic 'ldir'.
   5999  0000					      ldir
hero.asm (6000): error: Unknown Mnemonic 'ld'.
   6000  0000					      ld	(savsppos),hl
hero.asm (6001): error: Unknown Mnemonic 'ld'.
   6001  0000					      ld	bc,(savhght)
hero.asm (6002): error: Unknown Mnemonic 'dec'.
   6002  0000					      dec	c
hero.asm (6003): error: Unknown Mnemonic 'jr'.
   6003  0000					      jr	z,dsexit
hero.asm (6004): error: Unknown Mnemonic 'ld'.
   6004  0000					      ld	(savhght),bc
hero.asm (6005): error: Unknown Mnemonic 'pop'.
   6005  0000					      pop	bc
hero.asm (6006): error: Unknown Mnemonic 'inc'.
   6006  0000					      inc	c
   6007  0000
hero.asm (6008): error: Unknown Mnemonic 'jr'.
   6008  0000					      jr	dsagain
   6009  0000
hero.asm (6010): error: Unknown Mnemonic 'pop'.
   6010  0000				   dsexit     pop	bc
hero.asm (6011): error: Unknown Mnemonic 'ret'.
   6011  0000					      ret
   6012  0000
hero.asm (6013): error: Unknown Mnemonic 'db'.
   6013  0000				   savhght    db	0
hero.asm (6014): error: Unknown Mnemonic 'db'.
   6014  0000				   savwdth    db	0
hero.asm (6015): error: Unknown Mnemonic 'db'.
   6015  0000				   orgwdth    db	0
hero.asm (6016): error: Unknown Mnemonic 'dw'.
   6016  0000				   savsppos   dw	0
   6017  0000
   6018  0000							;-------------------------------------------------------------------------------
   6019  0000							;draw sprite or (in mode 0)
   6020  0000							;in:  B=x, C=y, D=sprite width, E=sprite height, HL=sprite in memory
   6021  0000				   drawsprite_or
hero.asm (6022): error: Unknown Mnemonic 'ld'.
   6022  0000					      ld	(savhght),de
hero.asm (6023): error: Unknown Mnemonic 'ld'.
   6023  0000					      ld	(savsppos),hl
   6024  0000
hero.asm (6025): error: Unknown Mnemonic 'ld'.
   6025  0000					      ld	a,c
hero.asm (6026): error: Unknown Mnemonic 'cp'.
   6026  0000					      cp	10
hero.asm (6027): error: Unknown Mnemonic 'jr'.
   6027  0000					      jr	nc,dshagain
hero.asm (6028): error: Unknown Mnemonic 'ld'.
   6028  0000					      ld	a,e
hero.asm (6029): error: Unknown Mnemonic 'cp'.
   6029  0000					      cp	9
hero.asm (6030): error: Unknown Mnemonic 'ret'.
   6030  0000					      ret	c
   6031  0000
hero.asm (6032): error: Unknown Mnemonic 'push'.
   6032  0000				   dshagain   push	bc
hero.asm (6033): error: Unknown Mnemonic 'ld'.
   6033  0000					      ld	a,c
hero.asm (6034): error: Unknown Mnemonic 'cp'.
   6034  0000					      cp	140
hero.asm (6035): error: Unknown Mnemonic 'jr'.
   6035  0000					      jr	nc,dshexit
hero.asm (6036): error: Unknown Mnemonic 'sla'.
   6036  0000					      sla	a
hero.asm (6037): error: Unknown Mnemonic 'ld'.
   6037  0000					      ld	e,a
hero.asm (6038): error: Unknown Mnemonic 'ld'.
   6038  0000					      ld	a,0
hero.asm (6039): error: Unknown Mnemonic 'adc'.
   6039  0000					      adc	0
hero.asm (6040): error: Unknown Mnemonic 'ld'.
   6040  0000					      ld	d,a
hero.asm (6041): error: Unknown Mnemonic 'ld'.
   6041  0000					      ld	hl,ytab
hero.asm (6042): error: Unknown Mnemonic 'add'.
   6042  0000					      add	hl,de
hero.asm (6043): error: Unknown Mnemonic 'ld'.
   6043  0000					      ld	a,(hl)
hero.asm (6044): error: Unknown Mnemonic 'add'.
   6044  0000					      add	b
hero.asm (6045): error: Unknown Mnemonic 'ld'.
   6045  0000					      ld	e,a
hero.asm (6046): error: Unknown Mnemonic 'inc'.
   6046  0000					      inc	hl
hero.asm (6047): error: Unknown Mnemonic 'ld'.
   6047  0000					      ld	d,(hl)
hero.asm (6048): error: Unknown Mnemonic 'ld'.
   6048  0000					      ld	a,0
hero.asm (6049): error: Unknown Mnemonic 'adc'.
   6049  0000					      adc	d
hero.asm (6050): error: Unknown Mnemonic 'ld'.
   6050  0000					      ld	d,a
hero.asm (6051): error: Unknown Mnemonic 'ex'.
   6051  0000					      ex	de,hl
hero.asm (6052): error: Unknown Mnemonic 'ld'.
   6052  0000					      ld	a,h
hero.asm (6053): error: Unknown Mnemonic 'and'.
   6053  0000					      and	&3f
hero.asm (6054): error: Unknown Mnemonic 'or'.
   6054  0000				   scrswp7    or	&c0
hero.asm (6055): error: Unknown Mnemonic 'ld'.
   6055  0000					      ld	h,a
   6056  0000
hero.asm (6057): error: Unknown Mnemonic 'ld'.
   6057  0000					      ld	bc,(savhght)
hero.asm (6058): error: Unknown Mnemonic 'push'.
   6058  0000					      push	bc
hero.asm (6059): error: Unknown Mnemonic 'ld'.
   6059  0000					      ld	de,(savsppos)
hero.asm (6060): error: Unknown Mnemonic 'ld'.
   6060  0000				   dscopy     ld	a,(hl)
hero.asm (6061): error: Unknown Mnemonic 'ld'.
   6061  0000					      ld	c,a
hero.asm (6062): error: Unknown Mnemonic 'ld'.
   6062  0000					      ld	a,(de)
hero.asm (6063): error: Unknown Mnemonic 'or'.
   6063  0000					      or	c	;OR'd drawing operation
   6064  0000
hero.asm (6065): error: Unknown Mnemonic 'ld'.
   6065  0000					      ld	(hl),a
hero.asm (6066): error: Unknown Mnemonic 'inc'.
   6066  0000					      inc	de
hero.asm (6067): error: Unknown Mnemonic 'inc'.
   6067  0000					      inc	hl
hero.asm (6068): error: Unknown Mnemonic 'djnz'.
   6068  0000					      djnz	dscopy
hero.asm (6069): error: Unknown Mnemonic 'ld'.
   6069  0000					      ld	(savsppos),de
hero.asm (6070): error: Unknown Mnemonic 'pop'.
   6070  0000					      pop	bc
hero.asm (6071): error: Unknown Mnemonic 'dec'.
   6071  0000					      dec	c
   6072  0000
hero.asm (6073): error: Unknown Mnemonic 'jr'.
   6073  0000					      jr	z,dshexit
hero.asm (6074): error: Unknown Mnemonic 'ld'.
   6074  0000					      ld	(savhght),bc
hero.asm (6075): error: Unknown Mnemonic 'pop'.
   6075  0000					      pop	bc
hero.asm (6076): error: Unknown Mnemonic 'inc'.
   6076  0000					      inc	c
   6077  0000
hero.asm (6078): error: Unknown Mnemonic 'jr'.
   6078  0000					      jr	dshagain
   6079  0000
hero.asm (6080): error: Unknown Mnemonic 'pop'.
   6080  0000				   dshexit    pop	bc
hero.asm (6081): error: Unknown Mnemonic 'ret'.
   6081  0000					      ret
   6082  0000
   6083  0000							;-------------------------------------------------------------------------------
   6084  0000							;draw herosprite (in mode 0)
   6085  0000							;in:  B=x, C=y, D=sprite width, E=sprite height, HL=sprite in memory
   6086  0000				   drawbackground
hero.asm (6087): error: Unknown Mnemonic 'ld'.
   6087  0000					      ld	(savhght),de
hero.asm (6088): error: Unknown Mnemonic 'ld'.
   6088  0000					      ld	(savsppos),hl
   6089  0000
hero.asm (6090): error: Unknown Mnemonic 'push'.
   6090  0000				   dbhagain   push	bc
hero.asm (6091): error: Unknown Mnemonic 'ld'.
   6091  0000					      ld	a,c
hero.asm (6092): error: Unknown Mnemonic 'cp'.
   6092  0000					      cp	140
hero.asm (6093): error: Unknown Mnemonic 'jr'.
   6093  0000					      jr	nc,dbhexit
hero.asm (6094): error: Unknown Mnemonic 'sla'.
   6094  0000					      sla	a
hero.asm (6095): error: Unknown Mnemonic 'ld'.
   6095  0000					      ld	e,a
hero.asm (6096): error: Unknown Mnemonic 'ld'.
   6096  0000					      ld	a,0
hero.asm (6097): error: Unknown Mnemonic 'adc'.
   6097  0000					      adc	0
hero.asm (6098): error: Unknown Mnemonic 'ld'.
   6098  0000					      ld	d,a
hero.asm (6099): error: Unknown Mnemonic 'ld'.
   6099  0000					      ld	hl,ytab
hero.asm (6100): error: Unknown Mnemonic 'add'.
   6100  0000					      add	hl,de
hero.asm (6101): error: Unknown Mnemonic 'ld'.
   6101  0000					      ld	a,(hl)
hero.asm (6102): error: Unknown Mnemonic 'add'.
   6102  0000					      add	b
hero.asm (6103): error: Unknown Mnemonic 'ld'.
   6103  0000					      ld	e,a
hero.asm (6104): error: Unknown Mnemonic 'inc'.
   6104  0000					      inc	hl
hero.asm (6105): error: Unknown Mnemonic 'ld'.
   6105  0000					      ld	d,(hl)
hero.asm (6106): error: Unknown Mnemonic 'ld'.
   6106  0000					      ld	a,0
hero.asm (6107): error: Unknown Mnemonic 'adc'.
   6107  0000					      adc	d
hero.asm (6108): error: Unknown Mnemonic 'ld'.
   6108  0000					      ld	d,a
hero.asm (6109): error: Unknown Mnemonic 'ex'.
   6109  0000					      ex	de,hl
hero.asm (6110): error: Unknown Mnemonic 'ld'.
   6110  0000					      ld	a,h
hero.asm (6111): error: Unknown Mnemonic 'and'.
   6111  0000					      and	&3f
hero.asm (6112): error: Unknown Mnemonic 'or'.
   6112  0000				   scrswp8    or	&c0
hero.asm (6113): error: Unknown Mnemonic 'ld'.
   6113  0000					      ld	h,a
   6114  0000
hero.asm (6115): error: Unknown Mnemonic 'ex'.
   6115  0000					      ex	de,hl
hero.asm (6116): error: Unknown Mnemonic 'ld'.
   6116  0000					      ld	hl,(savsppos)
hero.asm (6117): error: Unknown Mnemonic 'ld'.
   6117  0000					      ld	bc,(savwdth)
hero.asm (6118): error: Unknown Mnemonic 'ld'.
   6118  0000					      ld	b,0
hero.asm (6119): error: Unknown Mnemonic 'ldir'.
   6119  0000					      ldir
hero.asm (6120): error: Unknown Mnemonic 'ld'.
   6120  0000					      ld	(savsppos),hl
hero.asm (6121): error: Unknown Mnemonic 'ld'.
   6121  0000					      ld	bc,(savhght)
hero.asm (6122): error: Unknown Mnemonic 'dec'.
   6122  0000					      dec	c
hero.asm (6123): error: Unknown Mnemonic 'jr'.
   6123  0000					      jr	z,dbhexit
hero.asm (6124): error: Unknown Mnemonic 'ld'.
   6124  0000					      ld	(savhght),bc
hero.asm (6125): error: Unknown Mnemonic 'pop'.
   6125  0000					      pop	bc
hero.asm (6126): error: Unknown Mnemonic 'inc'.
   6126  0000					      inc	c
   6127  0000
hero.asm (6128): error: Unknown Mnemonic 'jr'.
   6128  0000					      jr	dbhagain
   6129  0000
hero.asm (6130): error: Unknown Mnemonic 'pop'.
   6130  0000				   dbhexit    pop	bc
hero.asm (6131): error: Unknown Mnemonic 'ret'.
   6131  0000					      ret
   6132  0000
   6133  0000							;-------------------------------------------------------------------------------
   6134  0000							;colour table
hero.asm (6135): error: Unknown Mnemonic 'db'.
   6135  0000				   coltab     db	20	;00 - background black -> flashing during detonation				    
hero.asm (6136): error: Unknown Mnemonic 'db'.
   6136  0000					      db	3	;01 - pastel yellow	-> energy bar
hero.asm (6137): error: Unknown Mnemonic 'db'.
   6137  0000					      db	20	;02 - black
hero.asm (6138): error: Unknown Mnemonic 'db'.
   6138  0000					      db	13	;03 - bright magenta	-> activision logo
hero.asm (6139): error: Unknown Mnemonic 'db'.
   6139  0000					      db	31	;04 - pastel blue
hero.asm (6140): error: Unknown Mnemonic 'db'.
   6140  0000					      db	11	;05 - bright white
hero.asm (6141): error: Unknown Mnemonic 'db'.
   6141  0000					      db	12	;06 - bright red
hero.asm (6142): error: Unknown Mnemonic 'db'.
   6142  0000					      db	10	;07 - bright yellow
hero.asm (6143): error: Unknown Mnemonic 'db'.
   6143  0000					      db	0	;08 - grey (50% white)
hero.asm (6144): error: Unknown Mnemonic 'db'.
   6144  0000					      db	14	;09 - orange/brown
hero.asm (6145): error: Unknown Mnemonic 'db'.
   6145  0000					      db	22	;0A - green 
hero.asm (6146): error: Unknown Mnemonic 'db'.
   6146  0000					      db	24	;0B - magenta
hero.asm (6147): error: Unknown Mnemonic 'db'.
   6147  0000					      db	29	;0C - mauve
hero.asm (6148): error: Unknown Mnemonic 'db'.
   6148  0000					      db	18	;0D - bright green (18)		 
hero.asm (6149): error: Unknown Mnemonic 'db'.
   6149  0000					      db	altcolr1	;0E - (undefined)	-> flashing level walls 		  
hero.asm (6150): error: Unknown Mnemonic 'db'.
   6150  0000					      db	0	;0F - (undefined)	-> level background
   6151  0000
   6152  0000							;-------------------------------------------------------------------------------
   6153  0000							;hero gfx stuff
hero.asm (6154): error: Unknown Mnemonic 'db'.
   6154  0000				   hostndr    db	%00000000,%10001010,%01000101,%10001010
hero.asm (6155): error: Unknown Mnemonic 'db'.
   6155  0000					      db	%00000000,%10001000,%10001000,%00000000
hero.asm (6156): error: Unknown Mnemonic 'db'.
   6156  0000					      db	%00000000,%10001010,%10001010,%00000000
hero.asm (6157): error: Unknown Mnemonic 'db'.
   6157  0000					      db	%00000000,%10001010,%11001111,%10001010
hero.asm (6158): error: Unknown Mnemonic 'db'.
   6158  0000					      db	%00000000,%10001010,%01000101,%10001010
hero.asm (6159): error: Unknown Mnemonic 'db'.
   6159  0000					      db	%00010000,%00100000,%00110000,%00000000
hero.asm (6160): error: Unknown Mnemonic 'db'.
   6160  0000					      db	%00010000,%00110000,%00110000,%00100000
hero.asm (6161): error: Unknown Mnemonic 'db'.
   6161  0000					      db	%00010000,%00110000,%00011000,%00100000
hero.asm (6162): error: Unknown Mnemonic 'db'.
   6162  0000					      db	%00010000,%00110000,%00011000,%00100000
hero.asm (6163): error: Unknown Mnemonic 'db'.
   6163  0000					      db	%00000000,%00110000,%00011000,%00001000
hero.asm (6164): error: Unknown Mnemonic 'db'.
   6164  0000					      db	%00000000,%00110000,%00001100,%00100000
hero.asm (6165): error: Unknown Mnemonic 'db'.
   6165  0000					      db	%00000000,%01010000,%11110000,%00000000
hero.asm (6166): error: Unknown Mnemonic 'db'.
   6166  0000					      db	%00000000,%00000000,%11110000,%00000000
hero.asm (6167): error: Unknown Mnemonic 'db'.
   6167  0000					      db	%00000000,%00000000,%11110000,%00000000
hero.asm (6168): error: Unknown Mnemonic 'db'.
   6168  0000					      db	%00000000,%00000000,%11110000,%00000000
hero.asm (6169): error: Unknown Mnemonic 'db'.
   6169  0000					      db	%00000000,%00000000,%11110000,%00000000
hero.asm (6170): error: Unknown Mnemonic 'db'.
   6170  0000					      db	%00000000,%00000000,%11110000,%00000000
hero.asm (6171): error: Unknown Mnemonic 'db'.
   6171  0000					      db	%00000000,%00000000,%11110000,%00000000
hero.asm (6172): error: Unknown Mnemonic 'db'.
   6172  0000					      db	%00000000,%00000000,%11110000,%00000000
hero.asm (6173): error: Unknown Mnemonic 'db'.
   6173  0000					      db	%00000000,%00000000,%11110000,%00000000
hero.asm (6174): error: Unknown Mnemonic 'db'.
   6174  0000					      db	%00000000,%00000000,%11110000,%10100000
   6175  0000
hero.asm (6176): error: Unknown Mnemonic 'db'.
   6176  0000				   hostndl    db	%01000101,%10001010,%01000101,%00000000
hero.asm (6177): error: Unknown Mnemonic 'db'.
   6177  0000					      db	%00000000,%01000100,%01000100,%00000000
hero.asm (6178): error: Unknown Mnemonic 'db'.
   6178  0000					      db	%00000000,%01000101,%01000101,%00000000
hero.asm (6179): error: Unknown Mnemonic 'db'.
   6179  0000					      db	%01000101,%11001111,%01000101,%00000000
hero.asm (6180): error: Unknown Mnemonic 'db'.
   6180  0000					      db	%01000101,%10001010,%01000101,%00000000
hero.asm (6181): error: Unknown Mnemonic 'db'.
   6181  0000					      db	%00000000,%00110000,%00010000,%00100000
hero.asm (6182): error: Unknown Mnemonic 'db'.
   6182  0000					      db	%00010000,%00110000,%00110000,%00100000
hero.asm (6183): error: Unknown Mnemonic 'db'.
   6183  0000					      db	%00010000,%00100100,%00110000,%00100000
hero.asm (6184): error: Unknown Mnemonic 'db'.
   6184  0000					      db	%00010000,%00100100,%00110000,%00100000
hero.asm (6185): error: Unknown Mnemonic 'db'.
   6185  0000					      db	%00000100,%00100100,%00110000,%00000000
hero.asm (6186): error: Unknown Mnemonic 'db'.
   6186  0000					      db	%00010000,%00001100,%00110000,%00000000
hero.asm (6187): error: Unknown Mnemonic 'db'.
   6187  0000					      db	%00000000,%11110000,%10100000,%00000000
hero.asm (6188): error: Unknown Mnemonic 'db'.
   6188  0000					      db	%00000000,%11110000,%00000000,%00000000
hero.asm (6189): error: Unknown Mnemonic 'db'.
   6189  0000					      db	%00000000,%11110000,%00000000,%00000000
hero.asm (6190): error: Unknown Mnemonic 'db'.
   6190  0000					      db	%00000000,%11110000,%00000000,%00000000
hero.asm (6191): error: Unknown Mnemonic 'db'.
   6191  0000					      db	%00000000,%11110000,%00000000,%00000000
hero.asm (6192): error: Unknown Mnemonic 'db'.
   6192  0000					      db	%00000000,%11110000,%00000000,%00000000
hero.asm (6193): error: Unknown Mnemonic 'db'.
   6193  0000					      db	%00000000,%11110000,%00000000,%00000000
hero.asm (6194): error: Unknown Mnemonic 'db'.
   6194  0000					      db	%00000000,%11110000,%00000000,%00000000
hero.asm (6195): error: Unknown Mnemonic 'db'.
   6195  0000					      db	%00000000,%11110000,%00000000,%00000000
hero.asm (6196): error: Unknown Mnemonic 'db'.
   6196  0000					      db	%01010000,%11110000,%00000000,%00000000
   6197  0000
hero.asm (6198): error: Unknown Mnemonic 'db'.
   6198  0000				   hoflyr     db	%00000000,%10001010,%01000101,%10001010
hero.asm (6199): error: Unknown Mnemonic 'db'.
   6199  0000					      db	%00000000,%10001000,%10001000,%00000000
hero.asm (6200): error: Unknown Mnemonic 'db'.
   6200  0000					      db	%00000000,%10001010,%10001010,%00000000
hero.asm (6201): error: Unknown Mnemonic 'db'.
   6201  0000					      db	%00000000,%10001010,%11001111,%10001010
hero.asm (6202): error: Unknown Mnemonic 'db'.
   6202  0000					      db	%00000000,%10001010,%01000101,%10001010
hero.asm (6203): error: Unknown Mnemonic 'db'.
   6203  0000					      db	%00010000,%00100000,%00110000,%00000000
hero.asm (6204): error: Unknown Mnemonic 'db'.
   6204  0000					      db	%00010000,%00110000,%00110000,%00100000
hero.asm (6205): error: Unknown Mnemonic 'db'.
   6205  0000					      db	%00010000,%00110000,%00011000,%00100000
hero.asm (6206): error: Unknown Mnemonic 'db'.
   6206  0000					      db	%00010000,%00110000,%00011000,%00100000
hero.asm (6207): error: Unknown Mnemonic 'db'.
   6207  0000					      db	%00000000,%00110000,%00011000,%00001000
hero.asm (6208): error: Unknown Mnemonic 'db'.
   6208  0000					      db	%00000000,%00110000,%00001100,%00100000
hero.asm (6209): error: Unknown Mnemonic 'db'.
   6209  0000					      db	%00000000,%01010000,%11110000,%00000000
hero.asm (6210): error: Unknown Mnemonic 'db'.
   6210  0000					      db	%00000000,%00000000,%11110000,%00000000
hero.asm (6211): error: Unknown Mnemonic 'db'.
   6211  0000					      db	%00000000,%00000000,%11110000,%00000000
hero.asm (6212): error: Unknown Mnemonic 'db'.
   6212  0000					      db	%00000000,%00000000,%10100000,%00000000
hero.asm (6213): error: Unknown Mnemonic 'db'.
   6213  0000					      db	%00000000,%00000000,%10100000,%00000000
hero.asm (6214): error: Unknown Mnemonic 'db'.
   6214  0000					      db	%00000000,%01010000,%10100000,%00000000
hero.asm (6215): error: Unknown Mnemonic 'db'.
   6215  0000					      db	%00000000,%01010000,%10100000,%00000000
hero.asm (6216): error: Unknown Mnemonic 'db'.
   6216  0000					      db	%00000000,%01010000,%00000000,%00000000
hero.asm (6217): error: Unknown Mnemonic 'db'.
   6217  0000					      db	%00000000,%01010000,%00000000,%00000000
hero.asm (6218): error: Unknown Mnemonic 'db'.
   6218  0000					      db	%00000000,%01010000,%00000000,%00000000
   6219  0000
hero.asm (6220): error: Unknown Mnemonic 'db'.
   6220  0000				   hoflyl     db	%01000101,%10001010,%01000101,%00000000
hero.asm (6221): error: Unknown Mnemonic 'db'.
   6221  0000					      db	%00000000,%01000100,%01000100,%00000000
hero.asm (6222): error: Unknown Mnemonic 'db'.
   6222  0000					      db	%00000000,%01000101,%01000101,%00000000
hero.asm (6223): error: Unknown Mnemonic 'db'.
   6223  0000					      db	%01000101,%11001111,%01000101,%00000000
hero.asm (6224): error: Unknown Mnemonic 'db'.
   6224  0000					      db	%01000101,%10001010,%01000101,%00000000
hero.asm (6225): error: Unknown Mnemonic 'db'.
   6225  0000					      db	%00000000,%00110000,%00010000,%00100000
hero.asm (6226): error: Unknown Mnemonic 'db'.
   6226  0000					      db	%00010000,%00110000,%00110000,%00100000
hero.asm (6227): error: Unknown Mnemonic 'db'.
   6227  0000					      db	%00010000,%00100100,%00110000,%00100000
hero.asm (6228): error: Unknown Mnemonic 'db'.
   6228  0000					      db	%00010000,%00100100,%00110000,%00100000
hero.asm (6229): error: Unknown Mnemonic 'db'.
   6229  0000					      db	%00000100,%00100100,%00110000,%00000000
hero.asm (6230): error: Unknown Mnemonic 'db'.
   6230  0000					      db	%00010000,%00001100,%00110000,%00000000
hero.asm (6231): error: Unknown Mnemonic 'db'.
   6231  0000					      db	%00000000,%11110000,%10100000,%00000000
hero.asm (6232): error: Unknown Mnemonic 'db'.
   6232  0000					      db	%00000000,%11110000,%00000000,%00000000
hero.asm (6233): error: Unknown Mnemonic 'db'.
   6233  0000					      db	%00000000,%11110000,%00000000,%00000000
hero.asm (6234): error: Unknown Mnemonic 'db'.
   6234  0000					      db	%00000000,%01010000,%00000000,%00000000
hero.asm (6235): error: Unknown Mnemonic 'db'.
   6235  0000					      db	%00000000,%01010000,%00000000,%00000000
hero.asm (6236): error: Unknown Mnemonic 'db'.
   6236  0000					      db	%00000000,%01010000,%10100000,%00000000
hero.asm (6237): error: Unknown Mnemonic 'db'.
   6237  0000					      db	%00000000,%01010000,%10100000,%00000000
hero.asm (6238): error: Unknown Mnemonic 'db'.
   6238  0000					      db	%00000000,%00000000,%10100000,%00000000
hero.asm (6239): error: Unknown Mnemonic 'db'.
   6239  0000					      db	%00000000,%00000000,%10100000,%00000000
hero.asm (6240): error: Unknown Mnemonic 'db'.
   6240  0000					      db	%00000000,%00000000,%10100000,%00000000
   6241  0000
hero.asm (6242): error: Unknown Mnemonic 'db'.
   6242  0000				   horun1r    db	%00000000,%10001010,%01000101,%10001010
hero.asm (6243): error: Unknown Mnemonic 'db'.
   6243  0000					      db	%00000000,%10001000,%10001000,%00000000
hero.asm (6244): error: Unknown Mnemonic 'db'.
   6244  0000					      db	%00000000,%10001010,%10001010,%00000000
hero.asm (6245): error: Unknown Mnemonic 'db'.
   6245  0000					      db	%00000000,%10001010,%11001111,%10001010
hero.asm (6246): error: Unknown Mnemonic 'db'.
   6246  0000					      db	%00000000,%10001010,%01000101,%10001010
hero.asm (6247): error: Unknown Mnemonic 'db'.
   6247  0000					      db	%00010000,%00100000,%00110000,%00000000
hero.asm (6248): error: Unknown Mnemonic 'db'.
   6248  0000					      db	%00010000,%00110000,%00110000,%00100000
hero.asm (6249): error: Unknown Mnemonic 'db'.
   6249  0000					      db	%00010000,%00110000,%00011000,%00100000
hero.asm (6250): error: Unknown Mnemonic 'db'.
   6250  0000					      db	%00010000,%00110000,%00011000,%00100000
hero.asm (6251): error: Unknown Mnemonic 'db'.
   6251  0000					      db	%00000000,%00110000,%00011000,%00001000
hero.asm (6252): error: Unknown Mnemonic 'db'.
   6252  0000					      db	%00000000,%00110000,%00001100,%00100000
hero.asm (6253): error: Unknown Mnemonic 'db'.
   6253  0000					      db	%00000000,%01010000,%11110000,%00000000
hero.asm (6254): error: Unknown Mnemonic 'db'.
   6254  0000					      db	%00000000,%01010000,%11110000,%00000000
hero.asm (6255): error: Unknown Mnemonic 'db'.
   6255  0000					      db	%00000000,%01010000,%11110000,%10100000
hero.asm (6256): error: Unknown Mnemonic 'db'.
   6256  0000					      db	%00000000,%01010000,%01010000,%10100000
hero.asm (6257): error: Unknown Mnemonic 'db'.
   6257  0000					      db	%00000000,%11110000,%00000000,%10100000
hero.asm (6258): error: Unknown Mnemonic 'db'.
   6258  0000					      db	%00000000,%11110000,%01010000,%00000000
hero.asm (6259): error: Unknown Mnemonic 'db'.
   6259  0000					      db	%00000000,%10100000,%01010000,%00000000
hero.asm (6260): error: Unknown Mnemonic 'db'.
   6260  0000					      db	%00000000,%10100000,%00000000,%10100000
hero.asm (6261): error: Unknown Mnemonic 'db'.
   6261  0000					      db	%00000000,%10100000,%00000000,%00000000
hero.asm (6262): error: Unknown Mnemonic 'db'.
   6262  0000					      db	%00000000,%01010000,%00000000,%00000000
   6263  0000
hero.asm (6264): error: Unknown Mnemonic 'db'.
   6264  0000				   horun1l    db	%01000101,%10001010,%01000101,%00000000
hero.asm (6265): error: Unknown Mnemonic 'db'.
   6265  0000					      db	%00000000,%01000100,%01000100,%00000000
hero.asm (6266): error: Unknown Mnemonic 'db'.
   6266  0000					      db	%00000000,%01000101,%01000101,%00000000
hero.asm (6267): error: Unknown Mnemonic 'db'.
   6267  0000					      db	%01000101,%11001111,%01000101,%00000000
hero.asm (6268): error: Unknown Mnemonic 'db'.
   6268  0000					      db	%01000101,%10001010,%01000101,%00000000
hero.asm (6269): error: Unknown Mnemonic 'db'.
   6269  0000					      db	%00000000,%00110000,%00010000,%00100000
hero.asm (6270): error: Unknown Mnemonic 'db'.
   6270  0000					      db	%00010000,%00110000,%00110000,%00100000
hero.asm (6271): error: Unknown Mnemonic 'db'.
   6271  0000					      db	%00010000,%00100100,%00110000,%00100000
hero.asm (6272): error: Unknown Mnemonic 'db'.
   6272  0000					      db	%00010000,%00100100,%00110000,%00100000
hero.asm (6273): error: Unknown Mnemonic 'db'.
   6273  0000					      db	%00000100,%00100100,%00110000,%00000000
hero.asm (6274): error: Unknown Mnemonic 'db'.
   6274  0000					      db	%00010000,%00001100,%00110000,%00000000
hero.asm (6275): error: Unknown Mnemonic 'db'.
   6275  0000					      db	%00000000,%11110000,%10100000,%00000000
hero.asm (6276): error: Unknown Mnemonic 'db'.
   6276  0000					      db	%00000000,%11110000,%10100000,%00000000
hero.asm (6277): error: Unknown Mnemonic 'db'.
   6277  0000					      db	%01010000,%11110000,%10100000,%00000000
hero.asm (6278): error: Unknown Mnemonic 'db'.
   6278  0000					      db	%01010000,%10100000,%10100000,%00000000
hero.asm (6279): error: Unknown Mnemonic 'db'.
   6279  0000					      db	%01010000,%00000000,%11110000,%00000000
hero.asm (6280): error: Unknown Mnemonic 'db'.
   6280  0000					      db	%00000000,%10100000,%11110000,%00000000
hero.asm (6281): error: Unknown Mnemonic 'db'.
   6281  0000					      db	%00000000,%10100000,%01010000,%00000000
hero.asm (6282): error: Unknown Mnemonic 'db'.
   6282  0000					      db	%01010000,%00000000,%01010000,%00000000
hero.asm (6283): error: Unknown Mnemonic 'db'.
   6283  0000					      db	%00000000,%00000000,%01010000,%00000000
hero.asm (6284): error: Unknown Mnemonic 'db'.
   6284  0000					      db	%00000000,%00000000,%10100000,%00000000
   6285  0000
hero.asm (6286): error: Unknown Mnemonic 'db'.
   6286  0000				   horun2r    db	%00000000,%10001010,%01000101,%10001010
hero.asm (6287): error: Unknown Mnemonic 'db'.
   6287  0000					      db	%00000000,%10001000,%10001000,%00000000
hero.asm (6288): error: Unknown Mnemonic 'db'.
   6288  0000					      db	%00000000,%10001010,%10001010,%00000000
hero.asm (6289): error: Unknown Mnemonic 'db'.
   6289  0000					      db	%00000000,%10001010,%11001111,%10001010
hero.asm (6290): error: Unknown Mnemonic 'db'.
   6290  0000					      db	%00000000,%10001010,%01000101,%10001010
hero.asm (6291): error: Unknown Mnemonic 'db'.
   6291  0000					      db	%00010000,%00100000,%00110000,%00000000
hero.asm (6292): error: Unknown Mnemonic 'db'.
   6292  0000					      db	%00010000,%00110000,%00110000,%00100000
hero.asm (6293): error: Unknown Mnemonic 'db'.
   6293  0000					      db	%00010000,%00110000,%00011000,%00100000
hero.asm (6294): error: Unknown Mnemonic 'db'.
   6294  0000					      db	%00010000,%00110000,%00011000,%00100000
hero.asm (6295): error: Unknown Mnemonic 'db'.
   6295  0000					      db	%00000000,%00110000,%00011000,%00001000
hero.asm (6296): error: Unknown Mnemonic 'db'.
   6296  0000					      db	%00000000,%00110000,%00001100,%00100000
hero.asm (6297): error: Unknown Mnemonic 'db'.
   6297  0000					      db	%00000000,%01010000,%11110000,%00000000
hero.asm (6298): error: Unknown Mnemonic 'db'.
   6298  0000					      db	%00000000,%01010000,%11110000,%00000000
hero.asm (6299): error: Unknown Mnemonic 'db'.
   6299  0000					      db	%00000000,%11110000,%01010000,%10100000
hero.asm (6300): error: Unknown Mnemonic 'db'.
   6300  0000					      db	%00000000,%11110000,%00000000,%10100000
hero.asm (6301): error: Unknown Mnemonic 'db'.
   6301  0000					      db	%01010000,%10100000,%00000000,%10100000
hero.asm (6302): error: Unknown Mnemonic 'db'.
   6302  0000					      db	%01010000,%10100000,%00000000,%10100000
hero.asm (6303): error: Unknown Mnemonic 'db'.
   6303  0000					      db	%11110000,%00000000,%00000000,%11110000
hero.asm (6304): error: Unknown Mnemonic 'db'.
   6304  0000					      db	%10100000,%00000000,%00000000,%00000000
hero.asm (6305): error: Unknown Mnemonic 'db'.
   6305  0000					      db	%10100000,%00000000,%00000000,%00000000
hero.asm (6306): error: Unknown Mnemonic 'db'.
   6306  0000					      db	%00000000,%00000000,%00000000,%00000000
   6307  0000
hero.asm (6308): error: Unknown Mnemonic 'db'.
   6308  0000				   horun2l    db	%01000101,%10001010,%01000101,%00000000
hero.asm (6309): error: Unknown Mnemonic 'db'.
   6309  0000					      db	%00000000,%01000100,%01000100,%00000000
hero.asm (6310): error: Unknown Mnemonic 'db'.
   6310  0000					      db	%00000000,%01000101,%01000101,%00000000
hero.asm (6311): error: Unknown Mnemonic 'db'.
   6311  0000					      db	%01000101,%11001111,%01000101,%00000000
hero.asm (6312): error: Unknown Mnemonic 'db'.
   6312  0000					      db	%01000101,%10001010,%01000101,%00000000
hero.asm (6313): error: Unknown Mnemonic 'db'.
   6313  0000					      db	%00000000,%00110000,%00010000,%00100000
hero.asm (6314): error: Unknown Mnemonic 'db'.
   6314  0000					      db	%00010000,%00110000,%00110000,%00100000
hero.asm (6315): error: Unknown Mnemonic 'db'.
   6315  0000					      db	%00010000,%00100100,%00110000,%00100000
hero.asm (6316): error: Unknown Mnemonic 'db'.
   6316  0000					      db	%00010000,%00100100,%00110000,%00100000
hero.asm (6317): error: Unknown Mnemonic 'db'.
   6317  0000					      db	%00000100,%00100100,%00110000,%00000000
hero.asm (6318): error: Unknown Mnemonic 'db'.
   6318  0000					      db	%00010000,%00001100,%00110000,%00000000
hero.asm (6319): error: Unknown Mnemonic 'db'.
   6319  0000					      db	%00000000,%11110000,%10100000,%00000000
hero.asm (6320): error: Unknown Mnemonic 'db'.
   6320  0000					      db	%00000000,%11110000,%10100000,%00000000
hero.asm (6321): error: Unknown Mnemonic 'db'.
   6321  0000					      db	%01010000,%10100000,%11110000,%00000000
hero.asm (6322): error: Unknown Mnemonic 'db'.
   6322  0000					      db	%01010000,%00000000,%11110000,%00000000
hero.asm (6323): error: Unknown Mnemonic 'db'.
   6323  0000					      db	%01010000,%00000000,%01010000,%10100000
hero.asm (6324): error: Unknown Mnemonic 'db'.
   6324  0000					      db	%01010000,%00000000,%01010000,%10100000
hero.asm (6325): error: Unknown Mnemonic 'db'.
   6325  0000					      db	%11110000,%00000000,%00000000,%11110000
hero.asm (6326): error: Unknown Mnemonic 'db'.
   6326  0000					      db	%00000000,%00000000,%00000000,%01010000
hero.asm (6327): error: Unknown Mnemonic 'db'.
   6327  0000					      db	%00000000,%00000000,%00000000,%01010000
hero.asm (6328): error: Unknown Mnemonic 'db'.
   6328  0000					      db	%00000000,%00000000,%00000000,%00000000
   6329  0000
hero.asm (6330): error: Unknown Mnemonic 'db'.
   6330  0000				   horun3r    db	%00000000,%10001010,%01000101,%10001010
hero.asm (6331): error: Unknown Mnemonic 'db'.
   6331  0000					      db	%00000000,%10001000,%10001000,%00000000
hero.asm (6332): error: Unknown Mnemonic 'db'.
   6332  0000					      db	%00000000,%10001010,%10001010,%00000000
hero.asm (6333): error: Unknown Mnemonic 'db'.
   6333  0000					      db	%00000000,%10001010,%11001111,%10001010
hero.asm (6334): error: Unknown Mnemonic 'db'.
   6334  0000					      db	%00000000,%10001010,%01000101,%10001010
hero.asm (6335): error: Unknown Mnemonic 'db'.
   6335  0000					      db	%00010000,%00100000,%00110000,%00000000
hero.asm (6336): error: Unknown Mnemonic 'db'.
   6336  0000					      db	%00010000,%00110000,%00110000,%00100000
hero.asm (6337): error: Unknown Mnemonic 'db'.
   6337  0000					      db	%00010000,%00110000,%00011000,%00100000
hero.asm (6338): error: Unknown Mnemonic 'db'.
   6338  0000					      db	%00010000,%00110000,%00011000,%00100000
hero.asm (6339): error: Unknown Mnemonic 'db'.
   6339  0000					      db	%00000000,%00100100,%00110000,%00100000
hero.asm (6340): error: Unknown Mnemonic 'db'.
   6340  0000					      db	%00000000,%00100100,%00001100,%00100000
hero.asm (6341): error: Unknown Mnemonic 'db'.
   6341  0000					      db	%00000000,%01010000,%11110000,%00000000
hero.asm (6342): error: Unknown Mnemonic 'db'.
   6342  0000					      db	%00000000,%01010000,%11110000,%10100000
hero.asm (6343): error: Unknown Mnemonic 'db'.
   6343  0000					      db	%11110000,%01010000,%10100000,%10100000
hero.asm (6344): error: Unknown Mnemonic 'db'.
   6344  0000					      db	%01010000,%11110000,%00000000,%10100000
hero.asm (6345): error: Unknown Mnemonic 'db'.
   6345  0000					      db	%00000000,%11110000,%00000000,%11110000
hero.asm (6346): error: Unknown Mnemonic 'db'.
   6346  0000					      db	%00000000,%00000000,%00000000,%00000000
hero.asm (6347): error: Unknown Mnemonic 'db'.
   6347  0000					      db	%00000000,%00000000,%00000000,%00000000
hero.asm (6348): error: Unknown Mnemonic 'db'.
   6348  0000					      db	%00000000,%00000000,%00000000,%00000000
hero.asm (6349): error: Unknown Mnemonic 'db'.
   6349  0000					      db	%00000000,%00000000,%00000000,%00000000
hero.asm (6350): error: Unknown Mnemonic 'db'.
   6350  0000					      db	%00000000,%00000000,%00000000,%00000000
   6351  0000
hero.asm (6352): error: Unknown Mnemonic 'db'.
   6352  0000				   horun3l    db	%01000101,%10001010,%01000101,%00000000
hero.asm (6353): error: Unknown Mnemonic 'db'.
   6353  0000					      db	%00000000,%01000100,%01000100,%00000000
hero.asm (6354): error: Unknown Mnemonic 'db'.
   6354  0000					      db	%00000000,%01000101,%01000101,%00000000
hero.asm (6355): error: Unknown Mnemonic 'db'.
   6355  0000					      db	%01000101,%11001111,%01000101,%00000000
hero.asm (6356): error: Unknown Mnemonic 'db'.
   6356  0000					      db	%01000101,%10001010,%01000101,%00000000
hero.asm (6357): error: Unknown Mnemonic 'db'.
   6357  0000					      db	%00000000,%00110000,%00010000,%00100000
hero.asm (6358): error: Unknown Mnemonic 'db'.
   6358  0000					      db	%00010000,%00110000,%00110000,%00100000
hero.asm (6359): error: Unknown Mnemonic 'db'.
   6359  0000					      db	%00010000,%00100100,%00110000,%00100000
hero.asm (6360): error: Unknown Mnemonic 'db'.
   6360  0000					      db	%00010000,%00100100,%00110000,%00100000
hero.asm (6361): error: Unknown Mnemonic 'db'.
   6361  0000					      db	%00010000,%00110000,%00011000,%00000000
hero.asm (6362): error: Unknown Mnemonic 'db'.
   6362  0000					      db	%00010000,%00001100,%00011000,%00000000
hero.asm (6363): error: Unknown Mnemonic 'db'.
   6363  0000					      db	%00000000,%11110000,%10100000,%00000000
hero.asm (6364): error: Unknown Mnemonic 'db'.
   6364  0000					      db	%01010000,%11110000,%10100000,%00000000
hero.asm (6365): error: Unknown Mnemonic 'db'.
   6365  0000					      db	%01010000,%01010000,%10100000,%11110000
hero.asm (6366): error: Unknown Mnemonic 'db'.
   6366  0000					      db	%01010000,%00000000,%11110000,%10100000
hero.asm (6367): error: Unknown Mnemonic 'db'.
   6367  0000					      db	%11110000,%00000000,%11110000,%00000000
hero.asm (6368): error: Unknown Mnemonic 'db'.
   6368  0000					      db	%00000000,%00000000,%00000000,%00000000
hero.asm (6369): error: Unknown Mnemonic 'db'.
   6369  0000					      db	%00000000,%00000000,%00000000,%00000000
hero.asm (6370): error: Unknown Mnemonic 'db'.
   6370  0000					      db	%00000000,%00000000,%00000000,%00000000
hero.asm (6371): error: Unknown Mnemonic 'db'.
   6371  0000					      db	%00000000,%00000000,%00000000,%00000000
hero.asm (6372): error: Unknown Mnemonic 'db'.
   6372  0000					      db	%00000000,%00000000,%00000000,%00000000
   6373  0000
hero.asm (6374): error: Unknown Mnemonic 'db'.
   6374  0000				   horun4r    db	%00000000,%10001010,%01000101,%10001010
hero.asm (6375): error: Unknown Mnemonic 'db'.
   6375  0000					      db	%00000000,%10001000,%10001000,%00000000
hero.asm (6376): error: Unknown Mnemonic 'db'.
   6376  0000					      db	%00000000,%10001010,%10001010,%00000000
hero.asm (6377): error: Unknown Mnemonic 'db'.
   6377  0000					      db	%00000000,%10001010,%11001111,%10001010
hero.asm (6378): error: Unknown Mnemonic 'db'.
   6378  0000					      db	%00000000,%10001010,%01000101,%10001010
hero.asm (6379): error: Unknown Mnemonic 'db'.
   6379  0000					      db	%00010000,%00100000,%00110000,%00000000
hero.asm (6380): error: Unknown Mnemonic 'db'.
   6380  0000					      db	%00010000,%00110000,%00110000,%00100000
hero.asm (6381): error: Unknown Mnemonic 'db'.
   6381  0000					      db	%00010000,%00110000,%00011000,%00100000
hero.asm (6382): error: Unknown Mnemonic 'db'.
   6382  0000					      db	%00010000,%00110000,%00011000,%00100000
hero.asm (6383): error: Unknown Mnemonic 'db'.
   6383  0000					      db	%00000000,%00100100,%00110000,%00100000
hero.asm (6384): error: Unknown Mnemonic 'db'.
   6384  0000					      db	%00000000,%00100100,%00001100,%00100000
hero.asm (6385): error: Unknown Mnemonic 'db'.
   6385  0000					      db	%00000000,%01010000,%11110000,%00000000
hero.asm (6386): error: Unknown Mnemonic 'db'.
   6386  0000					      db	%00000000,%01010000,%10100000,%00000000
hero.asm (6387): error: Unknown Mnemonic 'db'.
   6387  0000					      db	%00000000,%01010000,%11110000,%00000000
hero.asm (6388): error: Unknown Mnemonic 'db'.
   6388  0000					      db	%00000000,%01010000,%11110000,%00000000
hero.asm (6389): error: Unknown Mnemonic 'db'.
   6389  0000					      db	%00000000,%01010000,%01010000,%10100000
hero.asm (6390): error: Unknown Mnemonic 'db'.
   6390  0000					      db	%01010000,%11110000,%00000000,%10100000
hero.asm (6391): error: Unknown Mnemonic 'db'.
   6391  0000					      db	%01010000,%00000000,%00000000,%10100000
hero.asm (6392): error: Unknown Mnemonic 'db'.
   6392  0000					      db	%01010000,%00000000,%00000000,%11110000
hero.asm (6393): error: Unknown Mnemonic 'db'.
   6393  0000					      db	%00000000,%00000000,%00000000,%10100000
hero.asm (6394): error: Unknown Mnemonic 'db'.
   6394  0000					      db	%00000000,%00000000,%00000000,%00000000
   6395  0000
hero.asm (6396): error: Unknown Mnemonic 'db'.
   6396  0000				   horun4l    db	%01000101,%10001010,%01000101,%00000000
hero.asm (6397): error: Unknown Mnemonic 'db'.
   6397  0000					      db	%00000000,%01000100,%01000100,%00000000
hero.asm (6398): error: Unknown Mnemonic 'db'.
   6398  0000					      db	%00000000,%01000101,%01000101,%00000000
hero.asm (6399): error: Unknown Mnemonic 'db'.
   6399  0000					      db	%01000101,%11001111,%01000101,%00000000
hero.asm (6400): error: Unknown Mnemonic 'db'.
   6400  0000					      db	%01000101,%10001010,%01000101,%00000000
hero.asm (6401): error: Unknown Mnemonic 'db'.
   6401  0000					      db	%00000000,%00110000,%00010000,%00100000
hero.asm (6402): error: Unknown Mnemonic 'db'.
   6402  0000					      db	%00010000,%00110000,%00110000,%00100000
hero.asm (6403): error: Unknown Mnemonic 'db'.
   6403  0000					      db	%00010000,%00100100,%00110000,%00100000
hero.asm (6404): error: Unknown Mnemonic 'db'.
   6404  0000					      db	%00010000,%00100100,%00110000,%00100000
hero.asm (6405): error: Unknown Mnemonic 'db'.
   6405  0000					      db	%00010000,%00110000,%00011000,%00000000
hero.asm (6406): error: Unknown Mnemonic 'db'.
   6406  0000					      db	%00010000,%00001100,%00011000,%00000000
hero.asm (6407): error: Unknown Mnemonic 'db'.
   6407  0000					      db	%00000000,%11110000,%10100000,%00000000
hero.asm (6408): error: Unknown Mnemonic 'db'.
   6408  0000					      db	%00000000,%01010000,%10100000,%00000000
hero.asm (6409): error: Unknown Mnemonic 'db'.
   6409  0000					      db	%00000000,%11110000,%10100000,%00000000
hero.asm (6410): error: Unknown Mnemonic 'db'.
   6410  0000					      db	%00000000,%11110000,%10100000,%00000000
hero.asm (6411): error: Unknown Mnemonic 'db'.
   6411  0000					      db	%01010000,%10100000,%10100000,%00000000
hero.asm (6412): error: Unknown Mnemonic 'db'.
   6412  0000					      db	%01010000,%00000000,%11110000,%10100000
hero.asm (6413): error: Unknown Mnemonic 'db'.
   6413  0000					      db	%01010000,%00000000,%00000000,%10100000
hero.asm (6414): error: Unknown Mnemonic 'db'.
   6414  0000					      db	%11110000,%00000000,%00000000,%10100000
hero.asm (6415): error: Unknown Mnemonic 'db'.
   6415  0000					      db	%01010000,%00000000,%00000000,%00000000
hero.asm (6416): error: Unknown Mnemonic 'db'.
   6416  0000					      db	%00000000,%00000000,%00000000,%00000000
   6417  0000
hero.asm (6418): error: Unknown Mnemonic 'db'.
   6418  0000				   horun5r    db	%00000000,%10001010,%01000101,%10001010
hero.asm (6419): error: Unknown Mnemonic 'db'.
   6419  0000					      db	%00000000,%10001000,%10001000,%00000000
hero.asm (6420): error: Unknown Mnemonic 'db'.
   6420  0000					      db	%00000000,%10001010,%10001010,%00000000
hero.asm (6421): error: Unknown Mnemonic 'db'.
   6421  0000					      db	%00000000,%10001010,%11001111,%10001010
hero.asm (6422): error: Unknown Mnemonic 'db'.
   6422  0000					      db	%00000000,%10001010,%01000101,%10001010
hero.asm (6423): error: Unknown Mnemonic 'db'.
   6423  0000					      db	%00010000,%00100000,%00110000,%00000000
hero.asm (6424): error: Unknown Mnemonic 'db'.
   6424  0000					      db	%00010000,%00110000,%00110000,%00100000
hero.asm (6425): error: Unknown Mnemonic 'db'.
   6425  0000					      db	%00010000,%00110000,%00011000,%00100000
hero.asm (6426): error: Unknown Mnemonic 'db'.
   6426  0000					      db	%00010000,%00110000,%00011000,%00100000
hero.asm (6427): error: Unknown Mnemonic 'db'.
   6427  0000					      db	%00000000,%00110000,%00011000,%00001000
hero.asm (6428): error: Unknown Mnemonic 'db'.
   6428  0000					      db	%00000000,%00110000,%00001100,%00100000
hero.asm (6429): error: Unknown Mnemonic 'db'.
   6429  0000					      db	%00000000,%01010000,%11110000,%00000000
hero.asm (6430): error: Unknown Mnemonic 'db'.
   6430  0000					      db	%00000000,%01010000,%10100000,%00000000
hero.asm (6431): error: Unknown Mnemonic 'db'.
   6431  0000					      db	%00000000,%01010000,%11110000,%00000000
hero.asm (6432): error: Unknown Mnemonic 'db'.
   6432  0000					      db	%00000000,%00000000,%11110000,%10100000
hero.asm (6433): error: Unknown Mnemonic 'db'.
   6433  0000					      db	%00000000,%00000000,%10100000,%10100000
hero.asm (6434): error: Unknown Mnemonic 'db'.
   6434  0000					      db	%00000000,%11110000,%11110000,%10100000
hero.asm (6435): error: Unknown Mnemonic 'db'.
   6435  0000					      db	%00000000,%10100000,%10100000,%00000000
hero.asm (6436): error: Unknown Mnemonic 'db'.
   6436  0000					      db	%00000000,%10100000,%10100000,%00000000
hero.asm (6437): error: Unknown Mnemonic 'db'.
   6437  0000					      db	%00000000,%00000000,%10100000,%00000000
hero.asm (6438): error: Unknown Mnemonic 'db'.
   6438  0000					      db	%00000000,%00000000,%11110000,%00000000
   6439  0000
hero.asm (6440): error: Unknown Mnemonic 'db'.
   6440  0000				   horun5l    db	%01000101,%10001010,%01000101,%00000000
hero.asm (6441): error: Unknown Mnemonic 'db'.
   6441  0000					      db	%00000000,%01000100,%01000100,%00000000
hero.asm (6442): error: Unknown Mnemonic 'db'.
   6442  0000					      db	%00000000,%01000101,%01000101,%00000000
hero.asm (6443): error: Unknown Mnemonic 'db'.
   6443  0000					      db	%01000101,%11001111,%01000101,%00000000
hero.asm (6444): error: Unknown Mnemonic 'db'.
   6444  0000					      db	%01000101,%10001010,%01000101,%00000000
hero.asm (6445): error: Unknown Mnemonic 'db'.
   6445  0000					      db	%00000000,%00110000,%00010000,%00100000
hero.asm (6446): error: Unknown Mnemonic 'db'.
   6446  0000					      db	%00010000,%00110000,%00110000,%00100000
hero.asm (6447): error: Unknown Mnemonic 'db'.
   6447  0000					      db	%00010000,%00100100,%00110000,%00100000
hero.asm (6448): error: Unknown Mnemonic 'db'.
   6448  0000					      db	%00010000,%00100100,%00110000,%00100000
hero.asm (6449): error: Unknown Mnemonic 'db'.
   6449  0000					      db	%00000100,%00100100,%00110000,%00000000
hero.asm (6450): error: Unknown Mnemonic 'db'.
   6450  0000					      db	%00010000,%00001100,%00110000,%00000000
hero.asm (6451): error: Unknown Mnemonic 'db'.
   6451  0000					      db	%00000000,%11110000,%10100000,%00000000
hero.asm (6452): error: Unknown Mnemonic 'db'.
   6452  0000					      db	%00000000,%01010000,%10100000,%00000000
hero.asm (6453): error: Unknown Mnemonic 'db'.
   6453  0000					      db	%00000000,%11110000,%10100000,%00000000
hero.asm (6454): error: Unknown Mnemonic 'db'.
   6454  0000					      db	%01010000,%11110000,%00000000,%00000000
hero.asm (6455): error: Unknown Mnemonic 'db'.
   6455  0000					      db	%01010000,%01010000,%00000000,%00000000
hero.asm (6456): error: Unknown Mnemonic 'db'.
   6456  0000					      db	%01010000,%11110000,%11110000,%00000000
hero.asm (6457): error: Unknown Mnemonic 'db'.
   6457  0000					      db	%00000000,%01010000,%01010000,%00000000
hero.asm (6458): error: Unknown Mnemonic 'db'.
   6458  0000					      db	%00000000,%01010000,%01010000,%00000000
hero.asm (6459): error: Unknown Mnemonic 'db'.
   6459  0000					      db	%00000000,%01010000,%00000000,%00000000
hero.asm (6460): error: Unknown Mnemonic 'db'.
   6460  0000					      db	%00000000,%11110000,%00000000,%00000000
   6461  0000
hero.asm (6462): error: Unknown Mnemonic 'db'.
   6462  0000				   herodead   db	%00000000,%01010100,%11111100,%11111100
hero.asm (6463): error: Unknown Mnemonic 'db'.
   6463  0000					      db	%00000000,%00000000,%01010100,%00000000
hero.asm (6464): error: Unknown Mnemonic 'db'.
   6464  0000					      db	%00000000,%00000000,%01010100,%00000000
hero.asm (6465): error: Unknown Mnemonic 'db'.
   6465  0000					      db	%00000000,%11001111,%01000101,%10001010
hero.asm (6466): error: Unknown Mnemonic 'db'.
   6466  0000					      db	%01000100,%00000000,%10001000,%10001000
hero.asm (6467): error: Unknown Mnemonic 'db'.
   6467  0000					      db	%01000101,%00000000,%10001010,%10001010
hero.asm (6468): error: Unknown Mnemonic 'db'.
   6468  0000					      db	%01000101,%11001111,%10001010,%10001010
hero.asm (6469): error: Unknown Mnemonic 'db'.
   6469  0000					      db	%00000000,%11001111,%00000000,%10001010
hero.asm (6470): error: Unknown Mnemonic 'db'.
   6470  0000					      db	%00000000,%00110000,%00010000,%00100000
hero.asm (6471): error: Unknown Mnemonic 'db'.
   6471  0000					      db	%00010000,%00000000,%00100000,%00100000
hero.asm (6472): error: Unknown Mnemonic 'db'.
   6472  0000					      db	%00010000,%00110000,%00110000,%00000000
hero.asm (6473): error: Unknown Mnemonic 'db'.
   6473  0000					      db	%00100000,%00110000,%00010000,%00000000
hero.asm (6474): error: Unknown Mnemonic 'db'.
   6474  0000					      db	%00100000,%00110000,%00010000,%00100000
hero.asm (6475): error: Unknown Mnemonic 'db'.
   6475  0000					      db	%00100000,%00110000,%00100000,%00100000
hero.asm (6476): error: Unknown Mnemonic 'db'.
   6476  0000					      db	%10100000,%11110000,%10100000,%10100000
hero.asm (6477): error: Unknown Mnemonic 'db'.
   6477  0000					      db	%00000000,%11110000,%10100000,%00000000
hero.asm (6478): error: Unknown Mnemonic 'db'.
   6478  0000					      db	%00000000,%10100000,%10100000,%00000000
hero.asm (6479): error: Unknown Mnemonic 'db'.
   6479  0000					      db	%00000000,%10100000,%10100000,%00000000
hero.asm (6480): error: Unknown Mnemonic 'db'.
   6480  0000					      db	%00000000,%10100000,%10100000,%00000000
hero.asm (6481): error: Unknown Mnemonic 'db'.
   6481  0000					      db	%00000000,%10100000,%10100000,%00000000
hero.asm (6482): error: Unknown Mnemonic 'db'.
   6482  0000					      db	%00000000,%10100000,%10100000,%00000000
hero.asm (6483): error: Unknown Mnemonic 'db'.
   6483  0000					      db	%00000000,%10100000,%10100000,%00000000
hero.asm (6484): error: Unknown Mnemonic 'db'.
   6484  0000					      db	%00000000,%10100000,%10100000,%00000000
hero.asm (6485): error: Unknown Mnemonic 'db'.
   6485  0000					      db	%01010000,%10100000,%11110000,%00000000
   6486  0000
hero.asm (6487): error: Unknown Mnemonic 'db'.
   6487  0000				   roto100r   db	%11111100,%11111100,%10101000,%00000000
hero.asm (6488): error: Unknown Mnemonic 'db'.
   6488  0000					      db	%00000000,%10101000,%00000000,%00000000
hero.asm (6489): error: Unknown Mnemonic 'db'.
   6489  0000					      db	%00000000,%10101000,%00000000,%00000000
   6490  0000
hero.asm (6491): error: Unknown Mnemonic 'db'.
   6491  0000				   roto100l   db	%00000000,%01010100,%11111100,%11111100
hero.asm (6492): error: Unknown Mnemonic 'db'.
   6492  0000					      db	%00000000,%00000000,%01010100,%00000000
hero.asm (6493): error: Unknown Mnemonic 'db'.
   6493  0000					      db	%00000000,%00000000,%01010100,%00000000
   6494  0000
hero.asm (6495): error: Unknown Mnemonic 'db'.
   6495  0000				   roto50r    db	%01010100,%11111100,%00000000,%00000000
hero.asm (6496): error: Unknown Mnemonic 'db'.
   6496  0000					      db	%00000000,%10101000,%00000000,%00000000
hero.asm (6497): error: Unknown Mnemonic 'db'.
   6497  0000					      db	%00000000,%10101000,%00000000,%00000000
   6498  0000
hero.asm (6499): error: Unknown Mnemonic 'db'.
   6499  0000				   roto50l    db	%00000000,%00000000,%11111100,%10101000
hero.asm (6500): error: Unknown Mnemonic 'db'.
   6500  0000					      db	%00000000,%00000000,%01010100,%00000000
hero.asm (6501): error: Unknown Mnemonic 'db'.
   6501  0000					      db	%00000000,%00000000,%01010100,%00000000
   6502  0000
hero.asm (6503): error: Unknown Mnemonic 'db'.
   6503  0000				   roto0r     db	%00000000,%10101000,%00000000,%00000000
hero.asm (6504): error: Unknown Mnemonic 'db'.
   6504  0000					      db	%00000000,%10101000,%00000000,%00000000
hero.asm (6505): error: Unknown Mnemonic 'db'.
   6505  0000					      db	%00000000,%10101000,%00000000,%00000000
   6506  0000
hero.asm (6507): error: Unknown Mnemonic 'db'.
   6507  0000				   roto0l     db	%00000000,%00000000,%01010100,%00000000
hero.asm (6508): error: Unknown Mnemonic 'db'.
   6508  0000					      db	%00000000,%00000000,%01010100,%00000000
hero.asm (6509): error: Unknown Mnemonic 'db'.
   6509  0000					      db	%00000000,%00000000,%01010100,%00000000
   6510  0000
   6511  0000							;-------------------------------------------------------------------------------
   6512  0000							;miner gfx stuff
hero.asm (6513): error: Unknown Mnemonic 'dw'.
   6513  0000				   _minrt     dw	&040c
hero.asm (6514): error: Unknown Mnemonic 'db'.
   6514  0000				   minerr     db	%00000000,%01010100,%00000000,%00000000
hero.asm (6515): error: Unknown Mnemonic 'db'.
   6515  0000					      db	%00000000,%00000011,%00000010,%00000000
hero.asm (6516): error: Unknown Mnemonic 'db'.
   6516  0000					      db	%00000000,%11000011,%00000000,%00000000
hero.asm (6517): error: Unknown Mnemonic 'db'.
   6517  0000					      db	%00000000,%11000011,%00000000,%00000000
hero.asm (6518): error: Unknown Mnemonic 'db'.
   6518  0000					      db	%00000000,%10000010,%00000000,%00000000
hero.asm (6519): error: Unknown Mnemonic 'db'.
   6519  0000					      db	%01010001,%11110011,%00000000,%00000000
hero.asm (6520): error: Unknown Mnemonic 'db'.
   6520  0000					      db	%01010001,%01011001,%00000000,%00000000
hero.asm (6521): error: Unknown Mnemonic 'db'.
   6521  0000					      db	%01010001,%01011001,%00000000,%00000000
hero.asm (6522): error: Unknown Mnemonic 'db'.
   6522  0000					      db	%01010001,%01011001,%01010001,%00000000
hero.asm (6523): error: Unknown Mnemonic 'db'.
   6523  0000					      db	%01010000,%10100100,%11110000,%10100000
hero.asm (6524): error: Unknown Mnemonic 'db'.
   6524  0000					      db	%01010000,%11110000,%10100000,%10100000
hero.asm (6525): error: Unknown Mnemonic 'db'.
   6525  0000					      db	%00000000,%11110000,%00000000,%11110000
   6526  0000
hero.asm (6527): error: Unknown Mnemonic 'dw'.
   6527  0000				   _minlt     dw	&040c
hero.asm (6528): error: Unknown Mnemonic 'db'.
   6528  0000				   minerl     db	%00000000,%00000000,%10101000,%00000000
hero.asm (6529): error: Unknown Mnemonic 'db'.
   6529  0000					      db	%00000000,%00000001,%00000011,%00000000
hero.asm (6530): error: Unknown Mnemonic 'db'.
   6530  0000					      db	%00000000,%00000000,%11000011,%00000000
hero.asm (6531): error: Unknown Mnemonic 'db'.
   6531  0000					      db	%00000000,%00000000,%11000011,%00000000
hero.asm (6532): error: Unknown Mnemonic 'db'.
   6532  0000					      db	%00000000,%00000000,%01000001,%00000000
hero.asm (6533): error: Unknown Mnemonic 'db'.
   6533  0000					      db	%00000000,%00000000,%11110011,%10100010
hero.asm (6534): error: Unknown Mnemonic 'db'.
   6534  0000					      db	%00000000,%00000000,%10100110,%10100010
hero.asm (6535): error: Unknown Mnemonic 'db'.
   6535  0000					      db	%00000000,%00000000,%10100110,%10100010
hero.asm (6536): error: Unknown Mnemonic 'db'.
   6536  0000					      db	%00000000,%10100010,%10100110,%10100010
hero.asm (6537): error: Unknown Mnemonic 'db'.
   6537  0000					      db	%01010000,%11110000,%01011000,%10100000
hero.asm (6538): error: Unknown Mnemonic 'db'.
   6538  0000					      db	%01010000,%01010000,%11110000,%10100000
hero.asm (6539): error: Unknown Mnemonic 'db'.
   6539  0000					      db	%11110000,%00000000,%11110000,%00000000
   6540  0000
hero.asm (6541): error: Unknown Mnemonic 'db'.
   6541  0000				   minrescr   db	%00000000,%01010100,%00000000,%00000000
hero.asm (6542): error: Unknown Mnemonic 'db'.
   6542  0000					      db	%00000000,%00000011,%00000010,%00000000
hero.asm (6543): error: Unknown Mnemonic 'db'.
   6543  0000					      db	%00000000,%11000011,%00000000,%00000000
hero.asm (6544): error: Unknown Mnemonic 'db'.
   6544  0000					      db	%00000000,%11000011,%00000000,%00000000
hero.asm (6545): error: Unknown Mnemonic 'db'.
   6545  0000					      db	%00000000,%10000010,%01000001,%00000000
hero.asm (6546): error: Unknown Mnemonic 'db'.
   6546  0000					      db	%01010001,%11110011,%01010001,%00000000
hero.asm (6547): error: Unknown Mnemonic 'db'.
   6547  0000					      db	%01010001,%01011001,%11110011,%00000000
hero.asm (6548): error: Unknown Mnemonic 'db'.
   6548  0000					      db	%01010001,%01011001,%00000000,%00000000
hero.asm (6549): error: Unknown Mnemonic 'db'.
   6549  0000					      db	%01010001,%01011001,%01010001,%00000000
hero.asm (6550): error: Unknown Mnemonic 'db'.
   6550  0000					      db	%01010000,%10100100,%11110000,%10100000
hero.asm (6551): error: Unknown Mnemonic 'db'.
   6551  0000					      db	%01010000,%11110000,%10100000,%10100000
hero.asm (6552): error: Unknown Mnemonic 'db'.
   6552  0000					      db	%00000000,%11110000,%00000000,%11110000
   6553  0000
hero.asm (6554): error: Unknown Mnemonic 'db'.
   6554  0000				   minrescl   db	%00000000,%00000000,%10101000,%00000000
hero.asm (6555): error: Unknown Mnemonic 'db'.
   6555  0000					      db	%00000000,%00000001,%00000011,%00000000
hero.asm (6556): error: Unknown Mnemonic 'db'.
   6556  0000					      db	%00000000,%00000000,%11000011,%00000000
hero.asm (6557): error: Unknown Mnemonic 'db'.
   6557  0000					      db	%00000000,%00000000,%11000011,%00000000
hero.asm (6558): error: Unknown Mnemonic 'db'.
   6558  0000					      db	%00000000,%10000010,%01000001,%00000000
hero.asm (6559): error: Unknown Mnemonic 'db'.
   6559  0000					      db	%00000000,%10100010,%11110011,%10100010
hero.asm (6560): error: Unknown Mnemonic 'db'.
   6560  0000					      db	%00000000,%11110011,%10100110,%10100010
hero.asm (6561): error: Unknown Mnemonic 'db'.
   6561  0000					      db	%00000000,%00000000,%10100110,%10100010
hero.asm (6562): error: Unknown Mnemonic 'db'.
   6562  0000					      db	%00000000,%10100010,%10100110,%10100010
hero.asm (6563): error: Unknown Mnemonic 'db'.
   6563  0000					      db	%01010000,%11110000,%01011000,%10100000
hero.asm (6564): error: Unknown Mnemonic 'db'.
   6564  0000					      db	%01010000,%01010000,%11110000,%10100000
hero.asm (6565): error: Unknown Mnemonic 'db'.
   6565  0000					      db	%11110000,%00000000,%11110000,%00000000
   6566  0000
   6567  0000							;-------------------------------------------------------------------------------
   6568  0000							;laserbeams
hero.asm (6569): error: Unknown Mnemonic 'db'.
   6569  0000				   laserb1    db	%00111100,%00010100,%00101000,%00111100,%00010100,%00101000,%00111100,%00010100,%00101000,%00111100,%00010100
hero.asm (6570): error: Unknown Mnemonic 'db'.
   6570  0000				   laserb2    db	%00010100,%00101000,%00111100,%00010100,%00101000,%00111100,%00010100,%00101000,%00111100,%00010100,%00101000
   6571  0000
   6572  0000							;-------------------------------------------------------------------------------
   6573  0000							;bomb
hero.asm (6574): error: Unknown Mnemonic 'db'.
   6574  0000				   bomb1      db	%01010100,%00000000
hero.asm (6575): error: Unknown Mnemonic 'db'.
   6575  0000					      db	%11111100,%00000000
hero.asm (6576): error: Unknown Mnemonic 'db'.
   6576  0000					      db	%01010100,%10101000
hero.asm (6577): error: Unknown Mnemonic 'db'.
   6577  0000					      db	%01010100,%00000000
hero.asm (6578): error: Unknown Mnemonic 'db'.
   6578  0000					      db	%01010100,%00000000
hero.asm (6579): error: Unknown Mnemonic 'db'.
   6579  0000					      db	%11001111,%10001010
hero.asm (6580): error: Unknown Mnemonic 'db'.
   6580  0000					      db	%11001111,%10001010
hero.asm (6581): error: Unknown Mnemonic 'db'.
   6581  0000					      db	%11001111,%10001010
hero.asm (6582): error: Unknown Mnemonic 'db'.
   6582  0000					      db	%11001111,%10001010
hero.asm (6583): error: Unknown Mnemonic 'db'.
   6583  0000					      db	%11001111,%10001010
hero.asm (6584): error: Unknown Mnemonic 'db'.
   6584  0000					      db	%11001111,%10001010
   6585  0000
hero.asm (6586): error: Unknown Mnemonic 'db'.
   6586  0000				   bomb2      db	%10101000,%00000000
hero.asm (6587): error: Unknown Mnemonic 'db'.
   6587  0000					      db	%00000000,%10101000
hero.asm (6588): error: Unknown Mnemonic 'db'.
   6588  0000					      db	%01010100,%10101000
hero.asm (6589): error: Unknown Mnemonic 'db'.
   6589  0000					      db	%01010100,%00000000
hero.asm (6590): error: Unknown Mnemonic 'db'.
   6590  0000					      db	%01010100,%00000000
hero.asm (6591): error: Unknown Mnemonic 'db'.
   6591  0000					      db	%11001111,%10001010
hero.asm (6592): error: Unknown Mnemonic 'db'.
   6592  0000					      db	%11001111,%10001010
hero.asm (6593): error: Unknown Mnemonic 'db'.
   6593  0000					      db	%11001111,%10001010
hero.asm (6594): error: Unknown Mnemonic 'db'.
   6594  0000					      db	%11001111,%10001010
hero.asm (6595): error: Unknown Mnemonic 'db'.
   6595  0000					      db	%11001111,%10001010
hero.asm (6596): error: Unknown Mnemonic 'db'.
   6596  0000					      db	%11001111,%10001010
   6597  0000
hero.asm (6598): error: Unknown Mnemonic 'db'.
   6598  0000				   bomb3      db	%00000000,%10101000
hero.asm (6599): error: Unknown Mnemonic 'db'.
   6599  0000					      db	%10101000,%00000000
hero.asm (6600): error: Unknown Mnemonic 'db'.
   6600  0000					      db	%11111100,%00000000
hero.asm (6601): error: Unknown Mnemonic 'db'.
   6601  0000					      db	%01010100,%00000000
hero.asm (6602): error: Unknown Mnemonic 'db'.
   6602  0000					      db	%01010100,%00000000
hero.asm (6603): error: Unknown Mnemonic 'db'.
   6603  0000					      db	%11001111,%10001010
hero.asm (6604): error: Unknown Mnemonic 'db'.
   6604  0000					      db	%11001111,%10001010
hero.asm (6605): error: Unknown Mnemonic 'db'.
   6605  0000					      db	%11001111,%10001010
hero.asm (6606): error: Unknown Mnemonic 'db'.
   6606  0000					      db	%11001111,%10001010
hero.asm (6607): error: Unknown Mnemonic 'db'.
   6607  0000					      db	%11001111,%10001010
hero.asm (6608): error: Unknown Mnemonic 'db'.
   6608  0000					      db	%11001111,%10001010
   6609  0000
hero.asm (6610): error: Unknown Mnemonic 'db'.
   6610  0000				   boum1      db	%00000000,%00000000,%00000000,%00000000
hero.asm (6611): error: Unknown Mnemonic 'db'.
   6611  0000					      db	%00000000,%00000000,%00000000,%00000000
hero.asm (6612): error: Unknown Mnemonic 'db'.
   6612  0000					      db	%00000000,%01010100,%10101000,%00000000
hero.asm (6613): error: Unknown Mnemonic 'db'.
   6613  0000					      db	%00000000,%11111100,%11111100,%00000000
hero.asm (6614): error: Unknown Mnemonic 'db'.
   6614  0000					      db	%01010100,%00010100,%11111100,%00000000
hero.asm (6615): error: Unknown Mnemonic 'db'.
   6615  0000					      db	%00000000,%10111100,%00101000,%10101000
hero.asm (6616): error: Unknown Mnemonic 'db'.
   6616  0000					      db	%00000000,%11111100,%11111100,%10101000
hero.asm (6617): error: Unknown Mnemonic 'db'.
   6617  0000					      db	%00000000,%11111100,%10101000,%00000000
hero.asm (6618): error: Unknown Mnemonic 'db'.
   6618  0000					      db	%00000000,%01010100,%10101000,%00000000
hero.asm (6619): error: Unknown Mnemonic 'db'.
   6619  0000					      db	%00000000,%00000000,%00000000,%00000000
hero.asm (6620): error: Unknown Mnemonic 'db'.
   6620  0000					      db	%00000000,%00000000,%00000000,%00000000
   6621  0000
hero.asm (6622): error: Unknown Mnemonic 'db'.
   6622  0000				   boum2      db	%00000000,%00000000,%01010100,%00000000
hero.asm (6623): error: Unknown Mnemonic 'db'.
   6623  0000					      db	%10101000,%01010100,%00000000,%01010100
hero.asm (6624): error: Unknown Mnemonic 'db'.
   6624  0000					      db	%01010100,%01010100,%10101000,%10101000
hero.asm (6625): error: Unknown Mnemonic 'db'.
   6625  0000					      db	%01010100,%11111100,%11111100,%10101000
hero.asm (6626): error: Unknown Mnemonic 'db'.
   6626  0000					      db	%00000000,%11111100,%11111100,%00000000
hero.asm (6627): error: Unknown Mnemonic 'db'.
   6627  0000					      db	%00000000,%01010100,%11111100,%01010100
hero.asm (6628): error: Unknown Mnemonic 'db'.
   6628  0000					      db	%10101000,%11111100,%10101000,%00000000
hero.asm (6629): error: Unknown Mnemonic 'db'.
   6629  0000					      db	%00000000,%11111100,%11111100,%00000000
hero.asm (6630): error: Unknown Mnemonic 'db'.
   6630  0000					      db	%01010100,%11111100,%11111100,%10101000
hero.asm (6631): error: Unknown Mnemonic 'db'.
   6631  0000					      db	%01010100,%01010100,%10101000,%01010100
hero.asm (6632): error: Unknown Mnemonic 'db'.
   6632  0000					      db	%10101000,%00000000,%10101000,%00000000
   6633  0000
hero.asm (6634): error: Unknown Mnemonic 'db'.
   6634  0000				   boum3      db	%00000000,%00000000,%00000000,%00000000
hero.asm (6635): error: Unknown Mnemonic 'db'.
   6635  0000					      db	%00000000,%00000000,%10101000,%00000000
hero.asm (6636): error: Unknown Mnemonic 'db'.
   6636  0000					      db	%00000000,%01010100,%10101000,%00000000
hero.asm (6637): error: Unknown Mnemonic 'db'.
   6637  0000					      db	%01010100,%01010100,%10101000,%00000000
hero.asm (6638): error: Unknown Mnemonic 'db'.
   6638  0000					      db	%00000000,%11111100,%11111100,%00000000
hero.asm (6639): error: Unknown Mnemonic 'db'.
   6639  0000					      db	%01010100,%01010100,%11111100,%00000000
hero.asm (6640): error: Unknown Mnemonic 'db'.
   6640  0000					      db	%00000000,%11111100,%10101000,%10101000
hero.asm (6641): error: Unknown Mnemonic 'db'.
   6641  0000					      db	%00000000,%11111100,%11111100,%00000000
hero.asm (6642): error: Unknown Mnemonic 'db'.
   6642  0000					      db	%00000000,%01010100,%10101000,%10101000
hero.asm (6643): error: Unknown Mnemonic 'db'.
   6643  0000					      db	%00000000,%01010100,%10101000,%00000000
hero.asm (6644): error: Unknown Mnemonic 'db'.
   6644  0000					      db	%00000000,%01010100,%00000000,%00000000
   6645  0000
hero.asm (6646): error: Unknown Mnemonic 'db'.
   6646  0000				   boum4      db	%00000000,%10101000,%00000000,%01010100
hero.asm (6647): error: Unknown Mnemonic 'db'.
   6647  0000					      db	%00000000,%01010100,%01010100,%00000000
hero.asm (6648): error: Unknown Mnemonic 'db'.
   6648  0000					      db	%01010100,%00000000,%00000000,%00000000
hero.asm (6649): error: Unknown Mnemonic 'db'.
   6649  0000					      db	%00000000,%10101000,%00000000,%00000000
hero.asm (6650): error: Unknown Mnemonic 'db'.
   6650  0000					      db	%00000000,%00000000,%00000000,%00000000
hero.asm (6651): error: Unknown Mnemonic 'db'.
   6651  0000					      db	%00000000,%00000000,%00000000,%00000000
hero.asm (6652): error: Unknown Mnemonic 'db'.
   6652  0000					      db	%00000000,%00000000,%00000000,%00000000
hero.asm (6653): error: Unknown Mnemonic 'db'.
   6653  0000					      db	%10101000,%00000000,%01010100,%00000000
hero.asm (6654): error: Unknown Mnemonic 'db'.
   6654  0000					      db	%00000000,%00000000,%00000000,%10101000
hero.asm (6655): error: Unknown Mnemonic 'db'.
   6655  0000					      db	%01010100,%01010100,%00000000,%00000000
hero.asm (6656): error: Unknown Mnemonic 'db'.
   6656  0000					      db	%00000000,%00000000,%00000000,%01010100
   6657  0000
   6658  0000							;-------------------------------------------------------------------------------
   6659  0000							;lantern h=11,w=3 
hero.asm (6660): error: Unknown Mnemonic 'dw'.
   6660  0000				   _lanton    dw	&030b
hero.asm (6661): error: Unknown Mnemonic 'db'.
   6661  0000				   latnrnon   db	%00000000,%00000001,%00000011
hero.asm (6662): error: Unknown Mnemonic 'db'.
   6662  0000					      db	%00000000,%00000011,%00000011
hero.asm (6663): error: Unknown Mnemonic 'db'.
   6663  0000					      db	%00000000,%00000010,%00000000
hero.asm (6664): error: Unknown Mnemonic 'db'.
   6664  0000					      db	%00000000,%00000010,%00000000
hero.asm (6665): error: Unknown Mnemonic 'db'.
   6665  0000					      db	%00000001,%00000011,%00000000
hero.asm (6666): error: Unknown Mnemonic 'db'.
   6666  0000					      db	%00000011,%00000011,%00000010
hero.asm (6667): error: Unknown Mnemonic 'db'.
   6667  0000					      db	%01000000,%11000000,%00000000
hero.asm (6668): error: Unknown Mnemonic 'db'.
   6668  0000					      db	%01000000,%11000000,%00000000
hero.asm (6669): error: Unknown Mnemonic 'db'.
   6669  0000					      db	%00000011,%00000011,%00000010
hero.asm (6670): error: Unknown Mnemonic 'db'.
   6670  0000					      db	%01000000,%11000000,%00000000
hero.asm (6671): error: Unknown Mnemonic 'db'.
   6671  0000					      db	%00000000,%10000000,%00000000
   6672  0000
hero.asm (6673): error: Unknown Mnemonic 'dw'.
   6673  0000				   _lantoff   dw	&030b
hero.asm (6674): error: Unknown Mnemonic 'db'.
   6674  0000				   lantnoff   db	%00000000,%00000001,%00000011
hero.asm (6675): error: Unknown Mnemonic 'db'.
   6675  0000					      db	%00000000,%00000011,%00000011
hero.asm (6676): error: Unknown Mnemonic 'db'.
   6676  0000					      db	%00000000,%00000010,%00000000
hero.asm (6677): error: Unknown Mnemonic 'db'.
   6677  0000					      db	%00000000,%00000010,%00000000
hero.asm (6678): error: Unknown Mnemonic 'db'.
   6678  0000					      db	%00000001,%00000011,%00000000
hero.asm (6679): error: Unknown Mnemonic 'db'.
   6679  0000					      db	%00000011,%00000011,%00000010
hero.asm (6680): error: Unknown Mnemonic 'db'.
   6680  0000					      db	%00000001,%00000001,%00000000
hero.asm (6681): error: Unknown Mnemonic 'db'.
   6681  0000					      db	%00000001,%00000001,%00000000
hero.asm (6682): error: Unknown Mnemonic 'db'.
   6682  0000					      db	%00000011,%00000011,%00000010
hero.asm (6683): error: Unknown Mnemonic 'db'.
   6683  0000					      db	%00000001,%00000011,%00000000
hero.asm (6684): error: Unknown Mnemonic 'db'.
   6684  0000					      db	%00000000,%00000010,%00000000
   6685  0000
   6686  0000							;-------------------------------------------------------------------------------
   6687  0000							;spider
hero.asm (6688): error: Unknown Mnemonic 'dw'.
   6688  0000				   _spider1   dw	&040a
hero.asm (6689): error: Unknown Mnemonic 'db'.
   6689  0000					      db	%00000000,%00000001,%00000000,%00000000
hero.asm (6690): error: Unknown Mnemonic 'db'.
   6690  0000					      db	%00000000,%00000001,%00000000,%00000000
hero.asm (6691): error: Unknown Mnemonic 'db'.
   6691  0000					      db	%00000000,%00000001,%00000000,%00000000
hero.asm (6692): error: Unknown Mnemonic 'db'.
   6692  0000					      db	%00000000,%00000001,%00000000,%00000000
hero.asm (6693): error: Unknown Mnemonic 'db'.
   6693  0000					      db	%00000000,%01000001,%00000000,%00000000
hero.asm (6694): error: Unknown Mnemonic 'db'.
   6694  0000					      db	%01010100,%01000001,%01010100,%00000000
hero.asm (6695): error: Unknown Mnemonic 'db'.
   6695  0000					      db	%10000010,%11000011,%10000010,%10000010
hero.asm (6696): error: Unknown Mnemonic 'db'.
   6696  0000					      db	%10000010,%11000011,%10000010,%10000010
hero.asm (6697): error: Unknown Mnemonic 'db'.
   6697  0000					      db	%10000010,%01000001,%00000000,%10000010
hero.asm (6698): error: Unknown Mnemonic 'db'.
   6698  0000					      db	%10000010,%00000000,%00000000,%10000010
   6699  0000
hero.asm (6700): error: Unknown Mnemonic 'dw'.
   6700  0000				   _spider2   dw	&040a
hero.asm (6701): error: Unknown Mnemonic 'db'.
   6701  0000					      db	%00000000,%00000001,%00000000,%00000000
hero.asm (6702): error: Unknown Mnemonic 'db'.
   6702  0000					      db	%00000000,%00000001,%00000000,%00000000
hero.asm (6703): error: Unknown Mnemonic 'db'.
   6703  0000					      db	%00000000,%00000001,%00000000,%00000000
hero.asm (6704): error: Unknown Mnemonic 'db'.
   6704  0000					      db	%00000000,%01000001,%00000000,%00000000
hero.asm (6705): error: Unknown Mnemonic 'db'.
   6705  0000					      db	%01010100,%01000001,%01010100,%00000000
hero.asm (6706): error: Unknown Mnemonic 'db'.
   6706  0000					      db	%10000010,%11000011,%10000010,%10000010
hero.asm (6707): error: Unknown Mnemonic 'db'.
   6707  0000					      db	%10000010,%11000011,%10000010,%10000010
hero.asm (6708): error: Unknown Mnemonic 'db'.
   6708  0000					      db	%10000010,%01000001,%00000000,%10000010
hero.asm (6709): error: Unknown Mnemonic 'db'.
   6709  0000					      db	%10000010,%00000000,%00000000,%10000010
hero.asm (6710): error: Unknown Mnemonic 'db'.
   6710  0000					      db	%00000000,%00000000,%00000000,%00000000
   6711  0000
hero.asm (6712): error: Unknown Mnemonic 'dw'.
   6712  0000				   _spider3   dw	&040a
hero.asm (6713): error: Unknown Mnemonic 'db'.
   6713  0000					      db	%00000000,%00000001,%00000000,%00000000
hero.asm (6714): error: Unknown Mnemonic 'db'.
   6714  0000					      db	%00000000,%00000001,%00000000,%00000000
hero.asm (6715): error: Unknown Mnemonic 'db'.
   6715  0000					      db	%00000000,%01000001,%00000000,%00000000
hero.asm (6716): error: Unknown Mnemonic 'db'.
   6716  0000					      db	%01010100,%01000001,%01010100,%00000000
hero.asm (6717): error: Unknown Mnemonic 'db'.
   6717  0000					      db	%10000010,%11000011,%10000010,%10000010
hero.asm (6718): error: Unknown Mnemonic 'db'.
   6718  0000					      db	%10000010,%11000011,%10000010,%10000010
hero.asm (6719): error: Unknown Mnemonic 'db'.
   6719  0000					      db	%10000010,%01000001,%00000000,%10000010
hero.asm (6720): error: Unknown Mnemonic 'db'.
   6720  0000					      db	%10000010,%00000000,%00000000,%10000010
hero.asm (6721): error: Unknown Mnemonic 'db'.
   6721  0000					      db	%00000000,%00000000,%00000000,%00000000
hero.asm (6722): error: Unknown Mnemonic 'db'.
   6722  0000					      db	%00000000,%00000000,%00000000,%00000000
   6723  0000
   6724  0000							;-------------------------------------------------------------------------------
   6725  0000							;moth
hero.asm (6726): error: Unknown Mnemonic 'dw'.
   6726  0000				   _moth1     dw	&040b
hero.asm (6727): error: Unknown Mnemonic 'db'.
   6727  0000					      db	%00000000,%00000001,%00000000,%00000000
hero.asm (6728): error: Unknown Mnemonic 'db'.
   6728  0000					      db	%00000000,%00000011,%00000010,%00000000
hero.asm (6729): error: Unknown Mnemonic 'db'.
   6729  0000					      db	%00000000,%10100000,%10100000,%00000000
hero.asm (6730): error: Unknown Mnemonic 'db'.
   6730  0000					      db	%00000000,%10101000,%10101000,%00000000
hero.asm (6731): error: Unknown Mnemonic 'db'.
   6731  0000					      db	%00000000,%11000011,%10000010,%00000000
hero.asm (6732): error: Unknown Mnemonic 'db'.
   6732  0000					      db	%01000001,%11000011,%11000011,%00000000
hero.asm (6733): error: Unknown Mnemonic 'db'.
   6733  0000					      db	%00000000,%11000011,%10000010,%00000000
hero.asm (6734): error: Unknown Mnemonic 'db'.
   6734  0000					      db	%00000000,%10101000,%10101000,%00000000
hero.asm (6735): error: Unknown Mnemonic 'db'.
   6735  0000					      db	%00000000,%10100000,%10100000,%00000000
hero.asm (6736): error: Unknown Mnemonic 'db'.
   6736  0000					      db	%00000000,%00000011,%00000010,%00000000
hero.asm (6737): error: Unknown Mnemonic 'db'.
   6737  0000					      db	%00000000,%00000001,%00000000,%00000000
   6738  0000
hero.asm (6739): error: Unknown Mnemonic 'dw'.
   6739  0000				   _moth2     dw	&040b
hero.asm (6740): error: Unknown Mnemonic 'db'.
   6740  0000					      db	%00000000,%00000010,%00000010,%00000000
hero.asm (6741): error: Unknown Mnemonic 'db'.
   6741  0000					      db	%00000000,%00000010,%00000010,%00000000
hero.asm (6742): error: Unknown Mnemonic 'db'.
   6742  0000					      db	%00000000,%10100000,%10100000,%00000000
hero.asm (6743): error: Unknown Mnemonic 'db'.
   6743  0000					      db	%00000000,%10101000,%10101000,%00000000
hero.asm (6744): error: Unknown Mnemonic 'db'.
   6744  0000					      db	%00000000,%11000011,%10000010,%00000000
hero.asm (6745): error: Unknown Mnemonic 'db'.
   6745  0000					      db	%01000001,%11000011,%11000011,%00000000
hero.asm (6746): error: Unknown Mnemonic 'db'.
   6746  0000					      db	%00000000,%11000011,%10000010,%00000000
hero.asm (6747): error: Unknown Mnemonic 'db'.
   6747  0000					      db	%00000000,%10101000,%10101000,%00000000
hero.asm (6748): error: Unknown Mnemonic 'db'.
   6748  0000					      db	%00000000,%10100000,%10100000,%00000000
hero.asm (6749): error: Unknown Mnemonic 'db'.
   6749  0000					      db	%00000000,%00000010,%00000010,%00000000
hero.asm (6750): error: Unknown Mnemonic 'db'.
   6750  0000					      db	%00000000,%00000010,%00000010,%00000000
   6751  0000
hero.asm (6752): error: Unknown Mnemonic 'dw'.
   6752  0000				   _moth3     dw	&040b
hero.asm (6753): error: Unknown Mnemonic 'db'.
   6753  0000					      db	%00000001,%00000000,%00000001,%00000000
hero.asm (6754): error: Unknown Mnemonic 'db'.
   6754  0000					      db	%00000001,%00000010,%00000011,%00000000
hero.asm (6755): error: Unknown Mnemonic 'db'.
   6755  0000					      db	%00000000,%10100000,%10100000,%00000000
hero.asm (6756): error: Unknown Mnemonic 'db'.
   6756  0000					      db	%00000000,%10101000,%10101000,%00000000
hero.asm (6757): error: Unknown Mnemonic 'db'.
   6757  0000					      db	%00000000,%11000011,%10000010,%00000000
hero.asm (6758): error: Unknown Mnemonic 'db'.
   6758  0000					      db	%01000001,%11000011,%11000011,%00000000
hero.asm (6759): error: Unknown Mnemonic 'db'.
   6759  0000					      db	%00000000,%11000011,%10000010,%00000000
hero.asm (6760): error: Unknown Mnemonic 'db'.
   6760  0000					      db	%00000000,%10101000,%10101000,%00000000
hero.asm (6761): error: Unknown Mnemonic 'db'.
   6761  0000					      db	%00000000,%10100000,%10100000,%00000000
hero.asm (6762): error: Unknown Mnemonic 'db'.
   6762  0000					      db	%00000001,%00000010,%00000011,%00000000
hero.asm (6763): error: Unknown Mnemonic 'db'.
   6763  0000					      db	%00000001,%00000000,%00000001,%00000000
   6764  0000
hero.asm (6765): error: Unknown Mnemonic 'dw'.
   6765  0000				   _moth4     dw	&040b
hero.asm (6766): error: Unknown Mnemonic 'db'.
   6766  0000					      db	%00000010,%00000000,%00000000,%00000010
hero.asm (6767): error: Unknown Mnemonic 'db'.
   6767  0000					      db	%00000011,%00000000,%00000001,%00000010
hero.asm (6768): error: Unknown Mnemonic 'db'.
   6768  0000					      db	%01010000,%10100000,%11110000,%00000000
hero.asm (6769): error: Unknown Mnemonic 'db'.
   6769  0000					      db	%00000000,%10101000,%10101000,%00000000
hero.asm (6770): error: Unknown Mnemonic 'db'.
   6770  0000					      db	%00000000,%11000011,%10000010,%00000000
hero.asm (6771): error: Unknown Mnemonic 'db'.
   6771  0000					      db	%01000001,%11000011,%11000011,%00000000
hero.asm (6772): error: Unknown Mnemonic 'db'.
   6772  0000					      db	%00000000,%11000011,%10000010,%00000000
hero.asm (6773): error: Unknown Mnemonic 'db'.
   6773  0000					      db	%00000000,%10101000,%10101000,%00000000
hero.asm (6774): error: Unknown Mnemonic 'db'.
   6774  0000					      db	%01010000,%10100000,%11110000,%00000000
hero.asm (6775): error: Unknown Mnemonic 'db'.
   6775  0000					      db	%00000011,%00000000,%00000001,%00000010
hero.asm (6776): error: Unknown Mnemonic 'db'.
   6776  0000					      db	%00000010,%00000000,%00000000,%00000010
   6777  0000
   6778  0000							;-------------------------------------------------------------------------------
   6779  0000							;bat
   6780  0000
hero.asm (6781): error: Unknown Mnemonic 'dw'.
   6781  0000				   _bat1      dw	&0408
hero.asm (6782): error: Unknown Mnemonic 'db'.
   6782  0000					      db	%00000000,%10000010,%10000010,%00000000
hero.asm (6783): error: Unknown Mnemonic 'db'.
   6783  0000					      db	%00000000,%01000001,%00000000,%00000000
hero.asm (6784): error: Unknown Mnemonic 'db'.
   6784  0000					      db	%00000000,%11000011,%10000010,%00000000
hero.asm (6785): error: Unknown Mnemonic 'db'.
   6785  0000					      db	%01000001,%11000011,%11000011,%00000000
hero.asm (6786): error: Unknown Mnemonic 'db'.
   6786  0000					      db	%11000011,%01000001,%01000001,%10000010
hero.asm (6787): error: Unknown Mnemonic 'db'.
   6787  0000					      db	%11000011,%00000000,%01000001,%10000010
hero.asm (6788): error: Unknown Mnemonic 'db'.
   6788  0000					      db	%10000000,%00000000,%00000000,%10000000
hero.asm (6789): error: Unknown Mnemonic 'db'.
   6789  0000					      db	%01000001,%00000000,%01000001,%00000000
   6790  0000
hero.asm (6791): error: Unknown Mnemonic 'dw'.
   6791  0000				   _bat2      dw	&0408
hero.asm (6792): error: Unknown Mnemonic 'db'.
   6792  0000					      db	%10000010,%00000000,%00000000,%10000010
hero.asm (6793): error: Unknown Mnemonic 'db'.
   6793  0000					      db	%10101000,%10000010,%10000010,%10101000
hero.asm (6794): error: Unknown Mnemonic 'db'.
   6794  0000					      db	%11000011,%01000001,%01000001,%10000010
hero.asm (6795): error: Unknown Mnemonic 'db'.
   6795  0000					      db	%11000011,%10000010,%11000011,%10000010
hero.asm (6796): error: Unknown Mnemonic 'db'.
   6796  0000					      db	%11000011,%11000011,%11000011,%10000010
hero.asm (6797): error: Unknown Mnemonic 'db'.
   6797  0000					      db	%01000001,%11000011,%11000011,%00000000
hero.asm (6798): error: Unknown Mnemonic 'db'.
   6798  0000					      db	%00000000,%01000001,%00000000,%00000000
hero.asm (6799): error: Unknown Mnemonic 'db'.
   6799  0000					      db	%00000000,%00000000,%00000000,%00000000
   6800  0000
   6801  0000							;-------------------------------------------------------------------------------
   6802  0000							;snake
   6803  0000
hero.asm (6804): error: Unknown Mnemonic 'dw'.
   6804  0000				   _snake1    dw	&0107
hero.asm (6805): error: Unknown Mnemonic 'db'.
   6805  0000					      db	%10100010
hero.asm (6806): error: Unknown Mnemonic 'db'.
   6806  0000					      db	%01010001
hero.asm (6807): error: Unknown Mnemonic 'db'.
   6807  0000					      db	%11110011
hero.asm (6808): error: Unknown Mnemonic 'db'.
   6808  0000					      db	%01010001
hero.asm (6809): error: Unknown Mnemonic 'db'.
   6809  0000					      db	%00000000
hero.asm (6810): error: Unknown Mnemonic 'db'.
   6810  0000					      db	%11110011
hero.asm (6811): error: Unknown Mnemonic 'db'.
   6811  0000					      db	%10100010
   6812  0000
hero.asm (6813): error: Unknown Mnemonic 'dw'.
   6813  0000				   _snake2    dw	&0207
hero.asm (6814): error: Unknown Mnemonic 'db'.
   6814  0000					      db	%01010001,%10100010
hero.asm (6815): error: Unknown Mnemonic 'db'.
   6815  0000					      db	%11110011,%01010001
hero.asm (6816): error: Unknown Mnemonic 'db'.
   6816  0000					      db	%11110011,%11110011
hero.asm (6817): error: Unknown Mnemonic 'db'.
   6817  0000					      db	%10100010,%01010001
hero.asm (6818): error: Unknown Mnemonic 'db'.
   6818  0000					      db	%11110011,%11110011
hero.asm (6819): error: Unknown Mnemonic 'db'.
   6819  0000					      db	%00000000,%10100010
hero.asm (6820): error: Unknown Mnemonic 'db'.
   6820  0000					      db	%00000000,%00000000
   6821  0000
hero.asm (6822): error: Unknown Mnemonic 'dw'.
   6822  0000				   _snake3    dw	&0307
hero.asm (6823): error: Unknown Mnemonic 'db'.
   6823  0000					      db	%00000000,%01010001,%10100010
hero.asm (6824): error: Unknown Mnemonic 'db'.
   6824  0000					      db	%00000000,%11110011,%01010001
hero.asm (6825): error: Unknown Mnemonic 'db'.
   6825  0000					      db	%11110011,%11110011,%11110011
hero.asm (6826): error: Unknown Mnemonic 'db'.
   6826  0000					      db	%11110011,%10100010,%01010001
hero.asm (6827): error: Unknown Mnemonic 'db'.
   6827  0000					      db	%11110011,%11110011,%00000000
hero.asm (6828): error: Unknown Mnemonic 'db'.
   6828  0000					      db	%00000000,%01010001,%11110011
hero.asm (6829): error: Unknown Mnemonic 'db'.
   6829  0000					      db	%00000000,%00000000,%10100010
   6830  0000
hero.asm (6831): error: Unknown Mnemonic 'dw'.
   6831  0000				   _snake4    dw	&0407
hero.asm (6832): error: Unknown Mnemonic 'db'.
   6832  0000					      db	%00000000,%00000000,%01010001,%10100010
hero.asm (6833): error: Unknown Mnemonic 'db'.
   6833  0000					      db	%00000000,%00000000,%11110011,%01010001
hero.asm (6834): error: Unknown Mnemonic 'db'.
   6834  0000					      db	%11110011,%11110011,%11110011,%11110011
hero.asm (6835): error: Unknown Mnemonic 'db'.
   6835  0000					      db	%11110011,%11110011,%10100010,%01010001
hero.asm (6836): error: Unknown Mnemonic 'db'.
   6836  0000					      db	%11110011,%11110011,%11110011,%11110011
hero.asm (6837): error: Unknown Mnemonic 'db'.
   6837  0000					      db	%00000000,%00000000,%00000000,%10100010
hero.asm (6838): error: Unknown Mnemonic 'db'.
   6838  0000					      db	%00000000,%00000000,%00000000,%00000000
   6839  0000
   6840  0000							;-------------------------------------------------------------------------------
   6841  0000							;raft
   6842  0000
hero.asm (6843): error: Unknown Mnemonic 'dw'.
   6843  0000				   _raft      dw	&0502
hero.asm (6844): error: Unknown Mnemonic 'db'.
   6844  0000				   itraft     db	%11000000,%11000000,%11000000,%11000000,%11000000
hero.asm (6845): error: Unknown Mnemonic 'db'.
   6845  0000					      db	%11000000,%11000000,%11000000,%11000000,%11000000
   6846  0000
   6847  0000							;-------------------------------------------------------------------------------
   6848  0000							;tentacle
hero.asm (6849): error: Unknown Mnemonic 'dw'.
   6849  0000				   _tentcl1   dw	&0408
hero.asm (6850): error: Unknown Mnemonic 'db'.
   6850  0000					      db	%00000000,%00110000,%00100000,%00000000
hero.asm (6851): error: Unknown Mnemonic 'db'.
   6851  0000					      db	%00010000,%00000000,%00010000,%00000000
hero.asm (6852): error: Unknown Mnemonic 'db'.
   6852  0000					      db	%00100000,%00010000,%00000000,%00100000
hero.asm (6853): error: Unknown Mnemonic 'db'.
   6853  0000					      db	%00100000,%00100000,%00000000,%00100000
hero.asm (6854): error: Unknown Mnemonic 'db'.
   6854  0000					      db	%00100000,%00010000,%00110000,%00000000
hero.asm (6855): error: Unknown Mnemonic 'db'.
   6855  0000					      db	%00110000,%00000000,%00000000,%00000000
hero.asm (6856): error: Unknown Mnemonic 'db'.
   6856  0000					      db	%00010000,%00000000,%00110000,%00000000
hero.asm (6857): error: Unknown Mnemonic 'db'.
   6857  0000					      db	%00010000,%00010000,%00110000,%00100000
   6858  0000
hero.asm (6859): error: Unknown Mnemonic 'dw'.
   6859  0000				   _tentcl2   dw	&0408
hero.asm (6860): error: Unknown Mnemonic 'db'.
   6860  0000					      db	%00000000,%00110000,%00100000,%00000000
hero.asm (6861): error: Unknown Mnemonic 'db'.
   6861  0000					      db	%00010000,%00000000,%00010000,%00000000
hero.asm (6862): error: Unknown Mnemonic 'db'.
   6862  0000					      db	%00010000,%00000000,%00000000,%00100000
hero.asm (6863): error: Unknown Mnemonic 'db'.
   6863  0000					      db	%00100000,%00000000,%00000000,%00100000
hero.asm (6864): error: Unknown Mnemonic 'db'.
   6864  0000					      db	%00100000,%00110000,%00000000,%00100000
hero.asm (6865): error: Unknown Mnemonic 'db'.
   6865  0000					      db	%00100000,%00000000,%00110000,%00000000
hero.asm (6866): error: Unknown Mnemonic 'db'.
   6866  0000					      db	%00110000,%00000000,%00000000,%00000000
hero.asm (6867): error: Unknown Mnemonic 'db'.
   6867  0000					      db	%00010000,%00000000,%00110000,%00000000
   6868  0000
hero.asm (6869): error: Unknown Mnemonic 'dw'.
   6869  0000				   _tentcl3   dw	&0408
hero.asm (6870): error: Unknown Mnemonic 'db'.
   6870  0000					      db	%00000000,%00000000,%00000000,%00000000
hero.asm (6871): error: Unknown Mnemonic 'db'.
   6871  0000					      db	%00000000,%00110000,%00110000,%00000000
hero.asm (6872): error: Unknown Mnemonic 'db'.
   6872  0000					      db	%00010000,%00000000,%00000000,%00100000
hero.asm (6873): error: Unknown Mnemonic 'db'.
   6873  0000					      db	%00100000,%00000000,%00000000,%00010000
hero.asm (6874): error: Unknown Mnemonic 'db'.
   6874  0000					      db	%00100000,%00000000,%00000000,%00010000
hero.asm (6875): error: Unknown Mnemonic 'db'.
   6875  0000					      db	%00100000,%00000000,%00000000,%00100000
hero.asm (6876): error: Unknown Mnemonic 'db'.
   6876  0000					      db	%00100000,%00000000,%00000000,%00000000
hero.asm (6877): error: Unknown Mnemonic 'db'.
   6877  0000					      db	%00110000,%00000000,%00000000,%00000000
   6878  0000
   6879  0000							;-------------------------------------------------------------------------------
   6880  0000							;points
hero.asm (6881): error: Unknown Mnemonic 'db'.
   6881  0000				   pts50      db	%11000000,%10000000,%11000000,%10000000
hero.asm (6882): error: Unknown Mnemonic 'db'.
   6882  0000					      db	%10000000,%00000000,%10000000,%10000000
hero.asm (6883): error: Unknown Mnemonic 'db'.
   6883  0000					      db	%11000000,%10000000,%10000000,%10000000
hero.asm (6884): error: Unknown Mnemonic 'db'.
   6884  0000					      db	%00000000,%10000000,%10000000,%10000000
hero.asm (6885): error: Unknown Mnemonic 'db'.
   6885  0000					      db	%11000000,%10000000,%11000000,%10000000
   6886  0000
hero.asm (6887): error: Unknown Mnemonic 'db'.
   6887  0000				   pts75      db	%11000000,%10000000,%11000000,%10000000
hero.asm (6888): error: Unknown Mnemonic 'db'.
   6888  0000					      db	%00000000,%10000000,%10000000,%00000000
hero.asm (6889): error: Unknown Mnemonic 'db'.
   6889  0000					      db	%00000000,%10000000,%11000000,%10000000
hero.asm (6890): error: Unknown Mnemonic 'db'.
   6890  0000					      db	%00000000,%10000000,%00000000,%10000000
hero.asm (6891): error: Unknown Mnemonic 'db'.
   6891  0000					      db	%00000000,%10000000,%11000000,%10000000
   6892  0000
   6893  0000							;-------------------------------------------------------------------------------
   6894  0000							;power pane
hero.asm (6895): error: Unknown Mnemonic 'db'.
   6895  0000				   powerpan   db	%11110000,%10100001,%11110000,%10100001,%10100001,%00000011,%10100001,%11110000,%10100001,%11110000,%10100001
hero.asm (6896): error: Unknown Mnemonic 'db'.
   6896  0000					      db	%10100001,%10100001,%10100001,%10100001,%10100001,%10100001,%10100001,%10100001,%00000011,%10100001,%10100001
hero.asm (6897): error: Unknown Mnemonic 'db'.
   6897  0000					      db	%11110000,%10100001,%10100001,%10100001,%11110000,%11110000,%10100001,%11110000,%00000011,%11110000,%00000011
hero.asm (6898): error: Unknown Mnemonic 'db'.
   6898  0000					      db	%10100001,%00000011,%10100001,%10100001,%11110000,%01010010,%10100001,%10100001,%00000011,%10100001,%10100001
hero.asm (6899): error: Unknown Mnemonic 'db'.
   6899  0000					      db	%10100001,%00000011,%11110000,%10100001,%10100001,%00000011,%10100001,%11110000,%10100001,%10100001,%10100001
   6900  0000
hero.asm (6901): error: Unknown Mnemonic 'db'.
   6901  0000				   levelpan   db	%11110000,%00000011,%00000011,%01010010,%11110000,%11110000,%10100001,%11110000,%00000011,%11110000,%01010010,%11110000,%11110000,%10100001,%11110000,%00000011,%00000011,%00000011,%00000011
hero.asm (6902): error: Unknown Mnemonic 'db'.
   6902  0000					      db	%11110000,%00000011,%00000011,%01010010,%10100001,%00000011,%00000011,%11110000,%00000011,%11110000,%01010010,%10100001,%00000011,%00000011,%11110000,%00000011,%00000011,%01010010,%10100001
hero.asm (6903): error: Unknown Mnemonic 'db'.
   6903  0000					      db	%11110000,%00000011,%00000011,%01010010,%10100001,%00000011,%00000011,%11110000,%00000011,%11110000,%01010010,%10100001,%00000011,%00000011,%11110000,%00000011,%00000011,%01010010,%10100001
hero.asm (6904): error: Unknown Mnemonic 'db'.
   6904  0000					      db	%11110000,%00000011,%00000011,%01010010,%11110000,%11110000,%00000011,%11110000,%00000011,%11110000,%01010010,%11110000,%11110000,%00000011,%11110000,%00000011,%00000011,%00000011,%00000011
hero.asm (6905): error: Unknown Mnemonic 'db'.
   6905  0000					      db	%11110000,%00000011,%00000011,%01010010,%10100001,%00000011,%00000011,%11110000,%00000011,%11110000,%01010010,%10100001,%00000011,%00000011,%11110000,%00000011,%00000011,%01010010,%10100001
hero.asm (6906): error: Unknown Mnemonic 'db'.
   6906  0000					      db	%11110000,%00000011,%00000011,%01010010,%10100001,%00000011,%00000011,%01010010,%11110000,%10100001,%01010010,%10100001,%00000011,%00000011,%11110000,%00000011,%00000011,%01010010,%10100001
hero.asm (6907): error: Unknown Mnemonic 'db'.
   6907  0000					      db	%11110000,%11110000,%11110000,%01010010,%11110000,%11110000,%10100001,%00000011,%11110000,%00000011,%01010010,%11110000,%11110000,%10100001,%11110000,%11110000,%11110000,%00000011,%00000011
   6908  0000
hero.asm (6909): error: Unknown Mnemonic 'db'.
   6909  0000				   levpro     db	%11110000,%11110000,%10100001,%01010010,%11110000,%11110000,%00000011,%01010010,%11110000,%10100001
hero.asm (6910): error: Unknown Mnemonic 'db'.
   6910  0000					      db	%11110000,%00000011,%11110000,%01010010,%10100001,%01010010,%10100001,%11110000,%00000011,%11110000
hero.asm (6911): error: Unknown Mnemonic 'db'.
   6911  0000					      db	%11110000,%00000011,%11110000,%01010010,%10100001,%01010010,%10100001,%11110000,%00000011,%11110000
hero.asm (6912): error: Unknown Mnemonic 'db'.
   6912  0000					      db	%11110000,%11110000,%10100001,%01010010,%11110000,%11110000,%00000011,%11110000,%00000011,%11110000
hero.asm (6913): error: Unknown Mnemonic 'db'.
   6913  0000					      db	%11110000,%00000011,%00000011,%01010010,%10100001,%01010010,%10100001,%11110000,%00000011,%11110000
hero.asm (6914): error: Unknown Mnemonic 'db'.
   6914  0000					      db	%11110000,%00000011,%00000011,%01010010,%10100001,%01010010,%10100001,%11110000,%00000011,%11110000
hero.asm (6915): error: Unknown Mnemonic 'db'.
   6915  0000					      db	%11110000,%00000011,%00000011,%01010010,%10100001,%01010010,%10100001,%01010010,%11110000,%10100001
   6916  0000
hero.asm (6917): error: Unknown Mnemonic 'db'.
   6917  0000				   skill      db	%01010010,%11110000,%11110000,%01010010,%10100001,%01010010,%10100001,%11110000,%01010010,%10100001,%00000011,%00000011,%11110000,%00000011,%00000011,%00000011,%00000011
hero.asm (6918): error: Unknown Mnemonic 'db'.
   6918  0000					      db	%11110000,%00000011,%00000011,%01010010,%10100001,%01010010,%10100001,%11110000,%01010010,%10100001,%00000011,%00000011,%11110000,%00000011,%00000011,%01010010,%10100001
hero.asm (6919): error: Unknown Mnemonic 'db'.
   6919  0000					      db	%11110000,%00000011,%00000011,%01010010,%10100001,%11110000,%00000011,%11110000,%01010010,%10100001,%00000011,%00000011,%11110000,%00000011,%00000011,%01010010,%10100001
hero.asm (6920): error: Unknown Mnemonic 'db'.
   6920  0000					      db	%01010010,%11110000,%10100001,%01010010,%11110000,%10100001,%00000011,%11110000,%01010010,%10100001,%00000011,%00000011,%11110000,%00000011,%00000011,%00000011,%00000011
hero.asm (6921): error: Unknown Mnemonic 'db'.
   6921  0000					      db	%00000011,%00000011,%11110000,%01010010,%10100001,%11110000,%00000011,%11110000,%01010010,%10100001,%00000011,%00000011,%11110000,%00000011,%00000011,%01010010,%10100001
hero.asm (6922): error: Unknown Mnemonic 'db'.
   6922  0000					      db	%00000011,%00000011,%11110000,%01010010,%10100001,%01010010,%10100001,%11110000,%01010010,%10100001,%00000011,%00000011,%11110000,%00000011,%00000011,%01010010,%10100001
hero.asm (6923): error: Unknown Mnemonic 'db'.
   6923  0000					      db	%11110000,%11110000,%10100001,%01010010,%10100001,%01010010,%10100001,%11110000,%01010010,%11110000,%11110000,%10100001,%11110000,%11110000,%11110000,%00000011,%00000011
   6924  0000
hero.asm (6925): error: Unknown Mnemonic 'db'.
   6925  0000				   powlife    db	%11111100,%10101001,%00000011
hero.asm (6926): error: Unknown Mnemonic 'db'.
   6926  0000					      db	%01010110,%00000011,%00000011
hero.asm (6927): error: Unknown Mnemonic 'db'.
   6927  0000					      db	%00010110,%00010110,%00101001
hero.asm (6928): error: Unknown Mnemonic 'db'.
   6928  0000					      db	%00010110,%00010110,%00101001
hero.asm (6929): error: Unknown Mnemonic 'db'.
   6929  0000					      db	%00010010,%00110000,%00100001
hero.asm (6930): error: Unknown Mnemonic 'db'.
   6930  0000					      db	%00000011,%00100001,%00100001
hero.asm (6931): error: Unknown Mnemonic 'db'.
   6931  0000					      db	%00000011,%00100001,%00100001
hero.asm (6932): error: Unknown Mnemonic 'db'.
   6932  0000					      db	%00000011,%01010010,%00000011
hero.asm (6933): error: Unknown Mnemonic 'db'.
   6933  0000					      db	%00000011,%01010010,%00000011
hero.asm (6934): error: Unknown Mnemonic 'db'.
   6934  0000					      db	%00000011,%11110000,%00000011
hero.asm (6935): error: Unknown Mnemonic 'db'.
   6935  0000					      db	%00000011,%10100001,%00000011
hero.asm (6936): error: Unknown Mnemonic 'db'.
   6936  0000					      db	%00000011,%10100001,%00000011
   6937  0000
hero.asm (6938): error: Unknown Mnemonic 'db'.
   6938  0000				   powbomb    db	%01010110,%00000011
hero.asm (6939): error: Unknown Mnemonic 'db'.
   6939  0000					      db	%11111100,%00000011
hero.asm (6940): error: Unknown Mnemonic 'db'.
   6940  0000					      db	%01010110,%10101001
hero.asm (6941): error: Unknown Mnemonic 'db'.
   6941  0000					      db	%01010110,%00000011
hero.asm (6942): error: Unknown Mnemonic 'db'.
   6942  0000					      db	%01010110,%00000011
hero.asm (6943): error: Unknown Mnemonic 'db'.
   6943  0000					      db	%11001111,%10001011
hero.asm (6944): error: Unknown Mnemonic 'db'.
   6944  0000					      db	%11001111,%10001011
hero.asm (6945): error: Unknown Mnemonic 'db'.
   6945  0000					      db	%11001111,%10001011
hero.asm (6946): error: Unknown Mnemonic 'db'.
   6946  0000					      db	%11001111,%10001011
hero.asm (6947): error: Unknown Mnemonic 'db'.
   6947  0000					      db	%11001111,%10001011
hero.asm (6948): error: Unknown Mnemonic 'db'.
   6948  0000					      db	%11001111,%10001011
   6949  0000
   6950  0000
   6951  0000							;-------------------------------------------------------------------------------
   6952  0000							;cpc-port, copyright and activision logo
hero.asm (6953): error: Unknown Mnemonic 'db'.
   6953  0000				   cpcport    db	%11110000,%11110000,%01011000,%11110000,%10100100,%11110000,%11110000,%00001100,%00001100,%11110000,%11110000,%00001100,%00001100,%00001100,%00001100,%00001100,%10100100,%00001100,%00001100,%01011000,%11110000,%10100100,%11110000,%11110000,%01011000,%11110000,%10100100,%11110000,%11110000,%00001100,%00001100,%10100100,%00001100,%00001100,%00001100,%00001100,%00001100,%01011000,%11110000,%10100100,%10100100,%00001100,%00001100,%00001100,%00001100,%00001100,%00001100,%00001100
hero.asm (6954): error: Unknown Mnemonic 'db'.
   6954  0000					      db	%10100100,%01011000,%01011000,%00001100,%10100100,%10100100,%01011000,%00001100,%00001100,%10100100,%01011000,%00001100,%00001100,%00001100,%00001100,%11110000,%11110000,%10100100,%00001100,%00001100,%00001100,%10100100,%10100100,%01011000,%01011000,%00001100,%10100100,%10100100,%00001100,%00001100,%00001100,%10100100,%00001100,%00001100,%00001100,%00001100,%00001100,%01011000,%00001100,%00001100,%10100100,%00001100,%00001100,%00001100,%00001100,%00001100,%00001100,%00001100
hero.asm (6955): error: Unknown Mnemonic 'db'.
   6955  0000					      db	%10100100,%00001100,%01011000,%11110000,%10100100,%10100100,%00001100,%01011000,%10100100,%11110000,%11110000,%01011000,%11110000,%10100100,%11110000,%00001100,%10100100,%00001100,%00001100,%01011000,%11110000,%10100100,%10100100,%01011000,%01011000,%00001100,%10100100,%11110000,%11110000,%00001100,%00001100,%11110000,%11110000,%01011000,%00001100,%10100100,%00001100,%01011000,%11110000,%00001100,%10100100,%10100100,%01011000,%01011000,%11110000,%10100100,%11110000,%11110000
hero.asm (6956): error: Unknown Mnemonic 'db'.
   6956  0000					      db	%10100100,%01011000,%01011000,%00001100,%00001100,%10100100,%01011000,%00001100,%00001100,%10100100,%00001100,%01011000,%00001100,%10100100,%10100100,%00001100,%10100100,%00001100,%00001100,%01011000,%00001100,%00001100,%10100100,%01011000,%01011000,%00001100,%10100100,%00001100,%01011000,%00001100,%00001100,%10100100,%01011000,%01011000,%00001100,%10100100,%00001100,%01011000,%00001100,%00001100,%10100100,%10100100,%01011000,%01011000,%00001100,%10100100,%10100100,%01011000
hero.asm (6957): error: Unknown Mnemonic 'db'.
   6957  0000					      db	%11110000,%11110000,%01011000,%00001100,%00001100,%11110000,%11110000,%00001100,%00001100,%10100100,%00001100,%01011000,%11110000,%10100100,%10100100,%00001100,%10100100,%01011000,%00001100,%01011000,%11110000,%10100100,%11110000,%11110000,%01011000,%11110000,%10100100,%11110000,%11110000,%00001100,%00001100,%11110000,%11110000,%01011000,%11110000,%10100100,%00001100,%01011000,%00001100,%00001100,%10100100,%11110000,%11110000,%01011000,%00001100,%10100100,%10100100,%01011000
hero.asm (6958): error: Unknown Mnemonic 'db'.
   6958  0000					      db	%00001100,%00001100,%00001100,%00001100,%00001100,%00001100,%00001100,%00001100,%00001100,%00001100,%00001100,%00001100,%00001100,%00001100,%00001100,%00001100,%00001100,%01011000,%00001100,%00001100,%00001100,%00001100,%00001100,%00001100,%00001100,%00001100,%00001100,%00001100,%00001100,%00001100,%00001100,%00001100,%00001100,%00001100,%00001100,%10100100,%00001100,%00001100,%00001100,%00001100,%00001100,%00001100,%01011000,%00001100,%00001100,%00001100,%00001100,%00001100
hero.asm (6959): error: Unknown Mnemonic 'db'.
   6959  0000					      db	%00001100,%00001100,%00001100,%00001100,%00001100,%00001100,%00001100,%00001100,%00001100,%00001100,%00001100,%00001100,%00001100,%00001100,%00001100,%00001100,%00001100,%10100100,%00001100,%00001100,%00001100,%00001100,%00001100,%00001100,%00001100,%00001100,%00001100,%00001100,%00001100,%00001100,%00001100,%00001100,%00001100,%01011000,%11110000,%10100100,%00001100,%00001100,%00001100,%00001100,%00001100,%11110000,%11110000,%00001100,%00001100,%00001100,%00001100,%00001100
   6960  0000
hero.asm (6961): error: Unknown Mnemonic 'db'.
   6961  0000					      db	%00001100,%00001100,%00001100,%00001100,%00001100,%00001100,%00001100,%00001100,%00001100,%00001100,%00001100,%00001100,%00001100,%00001100,%00001100,%00001100,%00001100,%00001100,%00001100,%00001100,%00001100,%00001100,%00001100,%00001100,%00001100,%00001100,%00001100,%00001100,%00001100,%00001100,%00001100,%00001100,%00001100,%00001100,%00001100,%00001100,%00001100,%00001100,%00001100,%00001100,%00001100,%00001100,%00001100,%00001100,%00001100,%00001100,%00001100,%00001100
hero.asm (6962): error: Unknown Mnemonic 'db'.
   6962  0000					      db	%00001100,%00001100,%00001100,%00001100,%00001100,%00001100,%00001100,%00001100,%00001100,%00001100,%00001100,%00001100,%00001100,%00001100,%00001100,%00001100,%00001100,%00001100,%00001100,%00001100,%00001100,%00001100,%00001100,%00001100,%00001100,%00001100,%00001100,%00001100,%00001100,%00001100,%00001100,%00001100,%00001100,%00001100,%00001100,%00001100,%00001100,%00001100,%00001100,%00001100,%00001100,%00001100,%00001100,%00001100,%00001100,%00001100,%00001100,%00001100
hero.asm (6963): error: Unknown Mnemonic 'db'.
   6963  0000					      db	%00001100,%00001100,%00001100,%00001100,%00001100,%00001100,%00001100,%00001100,%00001100,%00001100,%00001100,%00001100,%00001100,%00001100,%00001100,%00001100,%00001100,%00001100,%00001100,%00001100,%00001100,%00001100,%00001100,%00001100,%00001100,%00001100,%00001100,%00001100,%00001100,%00001100,%00001100,%00001100,%00001100,%00001100,%00001100,%00001100,%00001100,%00001100,%00001100,%00001100,%00001100,%00001100,%00001100,%00001100,%00001100,%00001100,%00001100,%00001100
   6964  0000
hero.asm (6965): error: Unknown Mnemonic 'db'.
   6965  0000				   cprght     db	%11110000,%11110000,%00001100,%00001100,%00001100,%00001100,%00001100,%00001100,%00001100,%00001100,%00001100,%01011000,%00001100,%00001100,%00001100,%10100100,%00001100,%01011000,%00001100,%00001100,%00001100,%10100100,%11110000,%11110000,%01011000,%11110000,%10100100,%10100100,%01011000
hero.asm (6966): error: Unknown Mnemonic 'db'.
   6966  0000					      db	%10100100,%01011000,%00001100,%00001100,%00001100,%00001100,%00001100,%00001100,%00001100,%00001100,%00001100,%00001100,%00001100,%00001100,%00001100,%10100100,%01011000,%11110000,%11110000,%00001100,%00001100,%10100100,%10100100,%01011000,%01011000,%00001100,%10100100,%10100100,%01011000
hero.asm (6967): error: Unknown Mnemonic 'db'.
   6967  0000					      db	%10100100,%00001100,%01011000,%11110000,%10100100,%11110000,%11110000,%01011000,%00001100,%10100100,%11110000,%01011000,%01011000,%11110000,%10100100,%11110000,%10100100,%01011000,%00001100,%00001100,%00001100,%10100100,%11110000,%11110000,%01011000,%11110000,%10100100,%11110000,%11110000
hero.asm (6968): error: Unknown Mnemonic 'db'.
   6968  0000					      db	%10100100,%01011000,%01011000,%00001100,%10100100,%10100100,%01011000,%01011000,%00001100,%10100100,%10100100,%01011000,%01011000,%00001100,%10100100,%10100100,%10100100,%01011000,%00001100,%00001100,%00001100,%10100100,%00001100,%01011000,%01011000,%00001100,%10100100,%00001100,%01011000
hero.asm (6969): error: Unknown Mnemonic 'db'.
   6969  0000					      db	%11110000,%11110000,%01011000,%11110000,%10100100,%11110000,%11110000,%01011000,%11110000,%10100100,%10100100,%01011000,%01011000,%11110000,%10100100,%10100100,%10100100,%01011000,%00001100,%00001100,%00001100,%10100100,%00001100,%01011000,%01011000,%11110000,%10100100,%00001100,%01011000
hero.asm (6970): error: Unknown Mnemonic 'db'.
   6970  0000					      db	%00001100,%00001100,%00001100,%00001100,%00001100,%10100100,%00001100,%00001100,%00001100,%10100100,%00001100,%00001100,%00001100,%00001100,%10100100,%00001100,%00001100,%00001100,%00001100,%00001100,%00001100,%00001100,%00001100,%00001100,%00001100,%00001100,%00001100,%00001100,%00001100
hero.asm (6971): error: Unknown Mnemonic 'db'.
   6971  0000					      db	%00001100,%00001100,%00001100,%00001100,%00001100,%10100100,%00001100,%01011000,%11110000,%10100100,%00001100,%00001100,%01011000,%11110000,%10100100,%00001100,%00001100,%00001100,%00001100,%00001100,%00001100,%00001100,%00001100,%00001100,%00001100,%00001100,%00001100,%00001100,%00001100
   6972  0000
hero.asm (6973): error: Unknown Mnemonic 'db'.
   6973  0000				   actvis     db	%00001100,%00001100,%00001100,%00001100,%00001100,%00001100,%00001100,%00001100,%00001100,%00001100,%00001100,%00001100,%00001100,%00001100,%00001100,%00001100,%00001100,%00001100,%00001100,%00001100,%00001100,%00001100,%00001100,%00001100,%00001100,%00001100,%00001100,%00001100,%00001100
hero.asm (6974): error: Unknown Mnemonic 'db'.
   6974  0000					      db	%00001100,%00001100,%00001100,%00001100,%00001100,%00001100,%00001100,%00001100,%00001100,%00001100,%00001100,%00001100,%00001100,%00001100,%00001100,%00001100,%00001100,%00001100,%00001100,%00001100,%00001100,%00001100,%00001100,%00001100,%00001100,%00001100,%00001100,%00001100,%00001100
hero.asm (6975): error: Unknown Mnemonic 'db'.
   6975  0000					      db	%00001100,%00001100,%00001100,%00001100,%00001100,%00001100,%00001100,%00001100,%00001100,%00001100,%00001100,%00001100,%00001100,%00001100,%00001100,%00001100,%00001100,%00001100,%00001100,%00001100,%00001100,%00001100,%00001100,%00001100,%00001100,%00001100,%00001100,%00001100,%00001100
   6976  0000
hero.asm (6977): error: Unknown Mnemonic 'db'.
   6977  0000					      db	%11001111,%11001111,%11001111,%11001111,%11001111,%11001111,%11001111,%11001111,%11001111,%11001111,%11001111,%11001111,%11001111,%11001111,%10100100,%11110000,%11110000,%11110000,%11110000,%00001100,%00001100,%11110000,%11110000,%11110000,%10100100,%00001100,%00001100,%00001100,%00001100
hero.asm (6978): error: Unknown Mnemonic 'db'.
   6978  0000					      db	%11000011,%11000011,%11000011,%11000011,%11000011,%11000011,%11000011,%11000011,%11000011,%11000011,%11000011,%11000011,%11000011,%11010010,%10100100,%00001100,%01011000,%00001100,%01011000,%00001100,%01011000,%10100100,%00001100,%00001100,%00001100,%00001100,%00001100,%00001100,%00001100
hero.asm (6979): error: Unknown Mnemonic 'db'.
   6979  0000					      db	%11000011,%11000011,%11000011,%11000011,%11000011,%11000011,%11000011,%11000011,%11000011,%11000011,%11000011,%11000011,%11000011,%11110000,%10100100,%11110000,%01011000,%01011000,%01011000,%00001100,%11110000,%00001100,%11110000,%10100100,%10100100,%11110000,%10100100,%10100100,%01011000
hero.asm (6980): error: Unknown Mnemonic 'db'.
   6980  0000					      db	%11111100,%11111100,%11111100,%11111100,%11111100,%11111100,%11111100,%11111100,%11111100,%11111100,%11111100,%11111100,%11111000,%10100100,%10100100,%10100100,%01011000,%01011000,%01011000,%01011000,%10100100,%10100100,%10100100,%00001100,%10100100,%10100100,%10100100,%11110000,%01011000
hero.asm (6981): error: Unknown Mnemonic 'db'.
   6981  0000					      db	%00001111,%00001111,%00001111,%00001111,%00001111,%00001111,%00001111,%00001111,%00001111,%00001111,%00001111,%00001111,%11110000,%11110000,%10100100,%10100100,%01011000,%01011000,%01011000,%11110000,%00001100,%10100100,%11110000,%10100100,%10100100,%10100100,%10100100,%11110000,%11110000
hero.asm (6982): error: Unknown Mnemonic 'db'.
   6982  0000					      db	%00001111,%00001111,%00001111,%00001111,%00001111,%00001111,%00001111,%00001111,%00001111,%00001111,%00001111,%01010010,%10100100,%00001100,%10100100,%10100100,%01011000,%01011000,%01011000,%10100100,%00001100,%10100100,%00001100,%10100100,%10100100,%10100100,%10100100,%10100100,%11110000
hero.asm (6983): error: Unknown Mnemonic 'db'.
   6983  0000					      db	%00110011,%00110011,%00110011,%00110011,%00110011,%00110011,%00110011,%00110011,%00110011,%00110011,%00110011,%11110000,%00001100,%00001100,%10100100,%11110000,%01011000,%01011000,%01011000,%00001100,%00001100,%10100100,%11110000,%10100100,%10100100,%11110000,%10100100,%10100100,%01011000
   6984  0000
   6985  0000							;-------------------------------------------------------------------------------
   6986  0000							;number gfx
hero.asm (6987): error: Unknown Mnemonic 'db'.
   6987  0000				   numb0      db	%01010010,%11110000,%10100001
hero.asm (6988): error: Unknown Mnemonic 'db'.
   6988  0000					      db	%11110000,%00000011,%11110000
hero.asm (6989): error: Unknown Mnemonic 'db'.
   6989  0000					      db	%11110000,%00000011,%11110000
hero.asm (6990): error: Unknown Mnemonic 'db'.
   6990  0000					      db	%11110000,%00000011,%11110000
hero.asm (6991): error: Unknown Mnemonic 'db'.
   6991  0000					      db	%11110000,%00000011,%11110000
hero.asm (6992): error: Unknown Mnemonic 'db'.
   6992  0000					      db	%11110000,%00000011,%11110000
hero.asm (6993): error: Unknown Mnemonic 'db'.
   6993  0000					      db	%01010010,%11110000,%10100001
   6994  0000
hero.asm (6995): error: Unknown Mnemonic 'db'.
   6995  0000				   numb1      db	%00000011,%11110000,%00000011
hero.asm (6996): error: Unknown Mnemonic 'db'.
   6996  0000					      db	%01010010,%11110000,%00000011
hero.asm (6997): error: Unknown Mnemonic 'db'.
   6997  0000					      db	%00000011,%11110000,%00000011
hero.asm (6998): error: Unknown Mnemonic 'db'.
   6998  0000					      db	%00000011,%11110000,%00000011
hero.asm (6999): error: Unknown Mnemonic 'db'.
   6999  0000					      db	%00000011,%11110000,%00000011
hero.asm (7000): error: Unknown Mnemonic 'db'.
   7000  0000					      db	%00000011,%11110000,%00000011
hero.asm (7001): error: Unknown Mnemonic 'db'.
   7001  0000					      db	%01010010,%11110000,%10100001
   7002  0000
hero.asm (7003): error: Unknown Mnemonic 'db'.
   7003  0000				   numb2      db	%01010010,%11110000,%10100001
hero.asm (7004): error: Unknown Mnemonic 'db'.
   7004  0000					      db	%11110000,%00000011,%11110000
hero.asm (7005): error: Unknown Mnemonic 'db'.
   7005  0000					      db	%00000011,%00000011,%11110000
hero.asm (7006): error: Unknown Mnemonic 'db'.
   7006  0000					      db	%00000011,%01010010,%10100001
hero.asm (7007): error: Unknown Mnemonic 'db'.
   7007  0000					      db	%00000011,%11110000,%00000011
hero.asm (7008): error: Unknown Mnemonic 'db'.
   7008  0000					      db	%01010010,%10100001,%00000011
hero.asm (7009): error: Unknown Mnemonic 'db'.
   7009  0000					      db	%11110000,%11110000,%11110000
   7010  0000
hero.asm (7011): error: Unknown Mnemonic 'db'.
   7011  0000				   numb3      db	%01010010,%11110000,%10100001
hero.asm (7012): error: Unknown Mnemonic 'db'.
   7012  0000					      db	%11110000,%00000011,%11110000
hero.asm (7013): error: Unknown Mnemonic 'db'.
   7013  0000					      db	%00000011,%00000011,%11110000
hero.asm (7014): error: Unknown Mnemonic 'db'.
   7014  0000					      db	%00000011,%11110000,%10100001
hero.asm (7015): error: Unknown Mnemonic 'db'.
   7015  0000					      db	%00000011,%00000011,%11110000
hero.asm (7016): error: Unknown Mnemonic 'db'.
   7016  0000					      db	%11110000,%00000011,%11110000
hero.asm (7017): error: Unknown Mnemonic 'db'.
   7017  0000					      db	%01010010,%11110000,%10100001
   7018  0000
hero.asm (7019): error: Unknown Mnemonic 'db'.
   7019  0000				   numb4      db	%00000011,%11110000,%10100001
hero.asm (7020): error: Unknown Mnemonic 'db'.
   7020  0000					      db	%01010010,%11110000,%10100001
hero.asm (7021): error: Unknown Mnemonic 'db'.
   7021  0000					      db	%11110000,%01010010,%10100001
hero.asm (7022): error: Unknown Mnemonic 'db'.
   7022  0000					      db	%11110000,%11110000,%11110000
hero.asm (7023): error: Unknown Mnemonic 'db'.
   7023  0000					      db	%00000011,%01010010,%10100001
hero.asm (7024): error: Unknown Mnemonic 'db'.
   7024  0000					      db	%00000011,%01010010,%10100001
hero.asm (7025): error: Unknown Mnemonic 'db'.
   7025  0000					      db	%00000011,%11110000,%11110000
   7026  0000
hero.asm (7027): error: Unknown Mnemonic 'db'.
   7027  0000				   numb5      db	%11110000,%11110000,%11110000
hero.asm (7028): error: Unknown Mnemonic 'db'.
   7028  0000					      db	%11110000,%00000011,%00000011
hero.asm (7029): error: Unknown Mnemonic 'db'.
   7029  0000					      db	%11110000,%00000011,%00000011
hero.asm (7030): error: Unknown Mnemonic 'db'.
   7030  0000					      db	%11110000,%11110000,%10100001
hero.asm (7031): error: Unknown Mnemonic 'db'.
   7031  0000					      db	%00000011,%00000011,%11110000
hero.asm (7032): error: Unknown Mnemonic 'db'.
   7032  0000					      db	%11110000,%00000011,%11110000
hero.asm (7033): error: Unknown Mnemonic 'db'.
   7033  0000					      db	%01010010,%11110000,%10100001
   7034  0000
hero.asm (7035): error: Unknown Mnemonic 'db'.
   7035  0000				   numb6      db	%01010010,%11110000,%10100001
hero.asm (7036): error: Unknown Mnemonic 'db'.
   7036  0000					      db	%11110000,%00000011,%11110000
hero.asm (7037): error: Unknown Mnemonic 'db'.
   7037  0000					      db	%11110000,%00000011,%00000011
hero.asm (7038): error: Unknown Mnemonic 'db'.
   7038  0000					      db	%11110000,%11110000,%10100001
hero.asm (7039): error: Unknown Mnemonic 'db'.
   7039  0000					      db	%11110000,%00000011,%11110000
hero.asm (7040): error: Unknown Mnemonic 'db'.
   7040  0000					      db	%11110000,%00000011,%11110000
hero.asm (7041): error: Unknown Mnemonic 'db'.
   7041  0000					      db	%01010010,%11110000,%10100001
   7042  0000
hero.asm (7043): error: Unknown Mnemonic 'db'.
   7043  0000				   numb7      db	%11110000,%11110000,%11110000
hero.asm (7044): error: Unknown Mnemonic 'db'.
   7044  0000					      db	%00000011,%00000011,%11110000
hero.asm (7045): error: Unknown Mnemonic 'db'.
   7045  0000					      db	%00000011,%00000011,%11110000
hero.asm (7046): error: Unknown Mnemonic 'db'.
   7046  0000					      db	%00000011,%01010010,%10100001
hero.asm (7047): error: Unknown Mnemonic 'db'.
   7047  0000					      db	%00000011,%11110000,%00000011
hero.asm (7048): error: Unknown Mnemonic 'db'.
   7048  0000					      db	%00000011,%11110000,%00000011
hero.asm (7049): error: Unknown Mnemonic 'db'.
   7049  0000					      db	%00000011,%11110000,%00000011
   7050  0000
hero.asm (7051): error: Unknown Mnemonic 'db'.
   7051  0000				   numb8      db	%01010010,%11110000,%10100001
hero.asm (7052): error: Unknown Mnemonic 'db'.
   7052  0000					      db	%11110000,%00000011,%11110000
hero.asm (7053): error: Unknown Mnemonic 'db'.
   7053  0000					      db	%11110000,%00000011,%11110000
hero.asm (7054): error: Unknown Mnemonic 'db'.
   7054  0000					      db	%01010010,%11110000,%10100001
hero.asm (7055): error: Unknown Mnemonic 'db'.
   7055  0000					      db	%11110000,%00000011,%11110000
hero.asm (7056): error: Unknown Mnemonic 'db'.
   7056  0000					      db	%11110000,%00000011,%11110000
hero.asm (7057): error: Unknown Mnemonic 'db'.
   7057  0000					      db	%01010010,%11110000,%10100001
   7058  0000
hero.asm (7059): error: Unknown Mnemonic 'db'.
   7059  0000				   numb9      db	%01010010,%11110000,%10100001
hero.asm (7060): error: Unknown Mnemonic 'db'.
   7060  0000					      db	%11110000,%00000011,%11110000
hero.asm (7061): error: Unknown Mnemonic 'db'.
   7061  0000					      db	%11110000,%00000011,%11110000
hero.asm (7062): error: Unknown Mnemonic 'db'.
   7062  0000					      db	%01010010,%11110000,%11110000
hero.asm (7063): error: Unknown Mnemonic 'db'.
   7063  0000					      db	%00000011,%00000011,%11110000
hero.asm (7064): error: Unknown Mnemonic 'db'.
   7064  0000					      db	%11110000,%00000011,%11110000
hero.asm (7065): error: Unknown Mnemonic 'db'.
   7065  0000					      db	%01010010,%11110000,%10100001
   7066  0000
hero.asm (7067): error: Unknown Mnemonic 'db'.
   7067  0000				   wincpc     db	%10000110,%10000110,%00001100,%11000011,%10000110,%00001100,%11000011,%00001100,%00001100,%01001001,%00001100,%00001100,%00001100,%00001100,%00001100,%00001100,%00001100,%00001100,%10100100,%01011000,%00001100,%01011000,%00001100,%00001100,%00001100,%00001100,%00001100,%00001100,%10100100,%00001100,%00001100,%00001100,%10100100,%00001100,%10100100,%10100100,%00001100,%00001100,%01011000,%00001100,%11110000,%00001100,%01011000,%00001100
hero.asm (7068): error: Unknown Mnemonic 'db'.
   7068  0000					      db	%10000110,%10000110,%00001100,%10000110,%00001100,%00001100,%10000110,%10000110,%00001100,%10000110,%10000110,%00001100,%00001100,%00001100,%00001100,%00001100,%00001100,%00001100,%00001100,%01011000,%00001100,%01011000,%00001100,%00001100,%00001100,%00001100,%00001100,%00001100,%00001100,%00001100,%00001100,%00001100,%10100100,%00001100,%10100100,%00001100,%00001100,%00001100,%10100100,%10100100,%10100100,%10100100,%10100100,%10100100
hero.asm (7069): error: Unknown Mnemonic 'db'.
   7069  0000					      db	%10000110,%10000110,%00001100,%10000110,%00001100,%00001100,%10000110,%10000110,%00001100,%10000110,%10000110,%00001100,%00001100,%10100100,%10100100,%10100100,%01011000,%10100100,%10100100,%11110000,%10100100,%11110000,%10100100,%01011000,%00001100,%11110000,%00001100,%00001100,%10100100,%11110000,%00001100,%00001100,%10100100,%10100100,%10100100,%10100100,%11110000,%00001100,%10100100,%00001100,%10100100,%10100100,%10100100,%00001100
hero.asm (7070): error: Unknown Mnemonic 'db'.
   7070  0000					      db	%11000011,%10000110,%00001100,%11000011,%00001100,%00001100,%11000011,%00001100,%00001100,%10000110,%10000110,%00001100,%00001100,%10100100,%10100100,%10100100,%10100100,%00001100,%10100100,%01011000,%00001100,%01011000,%00001100,%10100100,%10100100,%10100100,%10100100,%00001100,%10100100,%10100100,%10100100,%00001100,%10100100,%10100100,%10100100,%10100100,%10100100,%10100100,%10100100,%00001100,%11110000,%00001100,%10100100,%00001100
hero.asm (7071): error: Unknown Mnemonic 'db'.
   7071  0000					      db	%10000110,%10000110,%00001100,%10000110,%00001100,%00001100,%10000110,%10000110,%00001100,%10000110,%10000110,%00001100,%00001100,%10100100,%10100100,%10100100,%10100100,%00001100,%10100100,%01011000,%00001100,%01011000,%00001100,%11110000,%10100100,%10100100,%10100100,%00001100,%10100100,%10100100,%10100100,%00001100,%10100100,%10100100,%10100100,%10100100,%10100100,%10100100,%10100100,%00001100,%10100100,%00001100,%10100100,%00001100
hero.asm (7072): error: Unknown Mnemonic 'db'.
   7072  0000					      db	%10000110,%10000110,%00001100,%10000110,%00001100,%00001100,%10000110,%10000110,%00001100,%10000110,%10000110,%00001100,%00001100,%10100100,%10100100,%10100100,%10100100,%00001100,%10100100,%01011000,%00001100,%01011000,%00001100,%10100100,%00001100,%10100100,%10100100,%00001100,%10100100,%10100100,%10100100,%00001100,%10100100,%10100100,%10100100,%10100100,%10100100,%10100100,%10100100,%10100100,%10100100,%00001100,%10100100,%10100100
hero.asm (7073): error: Unknown Mnemonic 'db'.
   7073  0000					      db	%10000110,%10000110,%10000110,%11000011,%10000110,%10000110,%10000110,%10000110,%10000110,%01001001,%00001100,%10000110,%00001100,%01011000,%01011000,%00001100,%10100100,%00001100,%10100100,%01011000,%00001100,%01011000,%00001100,%01011000,%10100100,%10100100,%10100100,%00001100,%10100100,%10100100,%10100100,%00001100,%01011000,%01011000,%00001100,%10100100,%10100100,%10100100,%01011000,%00001100,%10100100,%00001100,%01011000,%00001100
   7074  0000
hero.asm (7075): error: Unknown Mnemonic 'read'.
   7075  0000				   herotit    read	"titlepic.asm"
hero.asm (7076): error: Unknown Mnemonic 'read'.
   7076  0000				   herologo   read	"titlelogo.asm"
   7077  0000
hero.asm (7078): error: Unknown Mnemonic 'db'.
   7078  0000				   jvr	      db	%00000000,%00000000,%10100000,%01010000,%11110000,%00000000,%10100000,%00000000,%10100000,%10100000,%00000000,%10100000,%00000000,%01010000,%00000000,%01010000,%00000000,%01010000,%00000000,%01010000,%00000000,%01010000,%00000000,%00000000,%11110000,%11110000,%00000000,%10100000,%00000000,%10100000,%11110000,%11110000,%10100000,%10100000,%10100000,%00000000,%10100000,%10100000,%01010000,%11110000,%10100000
hero.asm (7079): error: Unknown Mnemonic 'db'.
   7079  0000					      db	%00000000,%00000000,%10100000,%10100000,%00000000,%10100000,%10100000,%00000000,%10100000,%10100000,%00000000,%10100000,%00000000,%01010000,%00000000,%01010000,%00000000,%10100000,%10100000,%01010000,%00000000,%01010000,%00000000,%00000000,%10100000,%00000000,%10100000,%10100000,%00000000,%10100000,%00000000,%00000000,%10100000,%10100000,%10100000,%00000000,%10100000,%10100000,%10100000,%00000000,%00000000
hero.asm (7080): error: Unknown Mnemonic 'db'.
   7080  0000					      db	%00000000,%00000000,%10100000,%10100000,%00000000,%10100000,%10100000,%00000000,%10100000,%11110000,%00000000,%10100000,%00000000,%01010000,%00000000,%01010000,%01010000,%00000000,%01010000,%01010000,%10100000,%01010000,%00000000,%00000000,%10100000,%00000000,%10100000,%01010000,%01010000,%00000000,%00000000,%01010000,%00000000,%10100000,%11110000,%00000000,%10100000,%00000000,%10100000,%00000000,%00000000
hero.asm (7081): error: Unknown Mnemonic 'db'.
   7081  0000					      db	%00000000,%00000000,%10100000,%10100000,%00000000,%10100000,%11110000,%11110000,%10100000,%10100000,%10100000,%10100000,%00000000,%01010000,%00000000,%01010000,%01010000,%11110000,%11110000,%01010000,%01010000,%01010000,%00000000,%00000000,%11110000,%11110000,%00000000,%00000000,%10100000,%00000000,%00000000,%10100000,%00000000,%10100000,%10100000,%10100000,%10100000,%00000000,%01010000,%11110000,%00000000
hero.asm (7082): error: Unknown Mnemonic 'db'.
   7082  0000					      db	%00000000,%00000000,%10100000,%10100000,%00000000,%10100000,%10100000,%00000000,%10100000,%10100000,%01010000,%10100000,%00000000,%01010000,%00000000,%01010000,%01010000,%00000000,%01010000,%01010000,%00000000,%11110000,%00000000,%00000000,%10100000,%00000000,%10100000,%00000000,%10100000,%00000000,%01010000,%00000000,%00000000,%10100000,%10100000,%01010000,%10100000,%00000000,%00000000,%00000000,%10100000
hero.asm (7083): error: Unknown Mnemonic 'db'.
   7083  0000					      db	%10100000,%00000000,%10100000,%10100000,%00000000,%10100000,%10100000,%00000000,%10100000,%10100000,%00000000,%10100000,%00000000,%00000000,%10100000,%10100000,%01010000,%00000000,%01010000,%01010000,%00000000,%01010000,%00000000,%00000000,%10100000,%00000000,%10100000,%00000000,%10100000,%00000000,%10100000,%00000000,%00000000,%10100000,%10100000,%00000000,%10100000,%00000000,%00000000,%00000000,%10100000
hero.asm (7084): error: Unknown Mnemonic 'db'.
   7084  0000					      db	%01010000,%11110000,%00000000,%01010000,%11110000,%00000000,%10100000,%00000000,%10100000,%10100000,%00000000,%10100000,%00000000,%00000000,%01010000,%00000000,%01010000,%00000000,%01010000,%01010000,%00000000,%01010000,%00000000,%00000000,%10100000,%00000000,%10100000,%00000000,%10100000,%00000000,%11110000,%11110000,%10100000,%10100000,%10100000,%00000000,%10100000,%00000000,%11110000,%11110000,%00000000
   7085  0000
hero.asm (7086): error: Unknown Mnemonic 'db'.
   7086  0000				   prsfire    db	%11000000,%11000000,%00000000,%11000000,%11000000,%00000000,%11000000,%11000000,%10000000,%01000000,%11000000,%00000000,%01000000,%11000000,%00000000,%00000000,%00000000,%11000000,%11000000,%10000000,%10000000,%11000000,%11000000,%00000000,%11000000,%11000000,%10000000
hero.asm (7087): error: Unknown Mnemonic 'db'.
   7087  0000					      db	%11000000,%11000000,%10000000,%11000000,%11000000,%10000000,%11000000,%11000000,%10000000,%11000000,%11000000,%00000000,%11000000,%11000000,%00000000,%00000000,%00000000,%11000000,%11000000,%10000000,%10000000,%11000000,%11000000,%10000000,%11000000,%11000000,%10000000
hero.asm (7088): error: Unknown Mnemonic 'db'.
   7088  0000					      db	%10000000,%00000000,%10000000,%10000000,%00000000,%10000000,%10000000,%00000000,%00000000,%10000000,%00000000,%00000000,%10000000,%00000000,%00000000,%00000000,%00000000,%10000000,%00000000,%00000000,%10000000,%10000000,%00000000,%10000000,%10000000,%00000000,%00000000
hero.asm (7089): error: Unknown Mnemonic 'db'.
   7089  0000					      db	%11000000,%11000000,%10000000,%11000000,%11000000,%10000000,%11000000,%11000000,%00000000,%11000000,%11000000,%00000000,%11000000,%11000000,%00000000,%00000000,%00000000,%11000000,%11000000,%00000000,%10000000,%11000000,%11000000,%10000000,%11000000,%11000000,%00000000
hero.asm (7090): error: Unknown Mnemonic 'db'.
   7090  0000					      db	%11000000,%11000000,%00000000,%11000000,%11000000,%00000000,%11000000,%11000000,%00000000,%01000000,%11000000,%10000000,%01000000,%11000000,%10000000,%00000000,%00000000,%11000000,%11000000,%00000000,%10000000,%11000000,%11000000,%00000000,%11000000,%11000000,%00000000
hero.asm (7091): error: Unknown Mnemonic 'db'.
   7091  0000					      db	%10000000,%00000000,%00000000,%10000000,%00000000,%10000000,%10000000,%00000000,%00000000,%00000000,%00000000,%10000000,%00000000,%00000000,%10000000,%00000000,%00000000,%10000000,%00000000,%00000000,%10000000,%10000000,%00000000,%10000000,%10000000,%00000000,%00000000
hero.asm (7092): error: Unknown Mnemonic 'db'.
   7092  0000					      db	%10000000,%00000000,%00000000,%10000000,%00000000,%10000000,%11000000,%11000000,%10000000,%11000000,%11000000,%10000000,%11000000,%11000000,%10000000,%00000000,%00000000,%10000000,%00000000,%00000000,%10000000,%10000000,%00000000,%10000000,%11000000,%11000000,%10000000
hero.asm (7093): error: Unknown Mnemonic 'db'.
   7093  0000					      db	%10000000,%00000000,%00000000,%10000000,%00000000,%10000000,%11000000,%11000000,%10000000,%11000000,%11000000,%00000000,%11000000,%11000000,%00000000,%00000000,%00000000,%10000000,%00000000,%00000000,%10000000,%10000000,%00000000,%10000000,%11000000,%11000000,%10000000
   7094  0000
   7095  0000							;-------------------------------------------------------------------------------
   7096  0000							;item collection
   7097  0000				   extract_item_miner_right
hero.asm (7098): error: Unknown Mnemonic 'db'.
   7098  0000					      db	0
hero.asm (7099): error: Unknown Mnemonic 'dw'.
   7099  0000					      dw	_minrt
   7100  0000
   7101  0000				   extract_item_miner_left
hero.asm (7102): error: Unknown Mnemonic 'db'.
   7102  0000					      db	0
hero.asm (7103): error: Unknown Mnemonic 'dw'.
   7103  0000					      dw	_minlt
   7104  0000
   7105  0000				   extract_item_lantern
hero.asm (7106): error: Unknown Mnemonic 'db'.
   7106  0000					      db	0
hero.asm (7107): error: Unknown Mnemonic 'dw'.
   7107  0000					      dw	_lanton
   7108  0000
   7109  0000				   extract_item_bat
hero.asm (7110): error: Unknown Mnemonic 'db'.
   7110  0000					      db	1
hero.asm (7111): error: Unknown Mnemonic 'dw'.
   7111  0000					      dw	_bat1,_bat2
   7112  0000
   7113  0000				   extract_item_spider
hero.asm (7114): error: Unknown Mnemonic 'db'.
   7114  0000					      db	3
hero.asm (7115): error: Unknown Mnemonic 'dw'.
   7115  0000					      dw	_spider1,_spider2,_spider3,_spider2
   7116  0000
   7117  0000				   extract_item_moth
hero.asm (7118): error: Unknown Mnemonic 'db'.
   7118  0000					      db	5
hero.asm (7119): error: Unknown Mnemonic 'dw'.
   7119  0000					      dw	_moth1,_moth2,_moth3,_moth4,_moth3,_moth2
   7120  0000
   7121  0000				   extract_item_snake
hero.asm (7122): error: Unknown Mnemonic 'db'.
   7122  0000					      db	5
hero.asm (7123): error: Unknown Mnemonic 'dw'.
   7123  0000					      dw	_snake1,_snake2,_snake3,_snake4,_snake3,_snake2
   7124  0000
   7125  0000				   extract_item_raft
hero.asm (7126): error: Unknown Mnemonic 'db'.
   7126  0000					      db	0
hero.asm (7127): error: Unknown Mnemonic 'dw'.
   7127  0000					      dw	_raft
   7128  0000
   7129  0000				   extract_item_tenctacle
hero.asm (7130): error: Unknown Mnemonic 'db'.
   7130  0000					      db	3
hero.asm (7131): error: Unknown Mnemonic 'dw'.
   7131  0000					      dw	_tentcl1,_tentcl2,_tentcl3,_tentcl2
   7132  0000
   7133  0000							;-------------------------------------------------------------------------------
   7134  0000							;levels colour table
   7135  0000		       00 16	   lvgreen    equ	22
   7136  0000		       00 0e	   lvbrown    equ	14
   7137  0000		       00 17	   lvblue     equ	23
   7138  0000		       00 00	   lvgrey     equ	0
   7139  0000
   7140  0000		       00 0f	   water_green equ	%00001111
   7141  0000		       00 33	   water_blue equ	%00110011
   7142  0000		       00 cf	   water_lava equ	%11001111
   7143  0000		       00 c3	   water_brown equ	%11000011
   7144  0000
hero.asm (7145): error: Unknown Mnemonic 'db'.
   7145  0000				   levelcolourtab db	lvbrown, lvgreen, lvblue, lvgrey
hero.asm (7146): error: Unknown Mnemonic 'db'.
   7146  0000				   watercolourtab db	water_blue, water_lava, water_brown, water_green
hero.asm (7147): error: Unknown Mnemonic 'db'.
   7147  0000				   levelcoltabptr db	0
   7148  0000
   7149  0000							;-------------------------------------------------------------------------------
   7150  0000							;levels
   7151  0000							;
   7152  0000
   7153  0000							;item/wall type mask
   7154  0000		       00 10	   item_mask_drlev equ	%00010000	;draw level mask
   7155  0000		       00 1f	   item_mask_out equ	%00011111	;item mask out
   7156  0000		       00 0f	   enemy_mask_out equ	%00001111	;enemy mask out
   7157  0000		       00 20	   wall_mask_flash equ	%00100000	;wall is flashing -> or'ed in item
   7158  0000		       00 40	   wall_mask_crush equ	%01000000	;crushing walls   -> or'ed in item
   7159  0000		       00 80	   item_bottm_water equ	%10000000	;water bottom	   -> or'ed in item
   7160  0000
   7161  0000							;items
hero.asm (7162): error: Syntax Error '%00000000 or item_mask_drlev'.
   7162  0000		       00 10	   item_lantern_on equ	%00000000 or item_mask_drlev	;=undestroyable
hero.asm (7163): error: Syntax Error '%00000010 or item_mask_drlev'.
   7163  0000		       00 10	   item_lantern_off equ	%00000010 or item_mask_drlev	;=undestroyable       
   7164  0000		       00 03	   item_spider equ	%00000011
   7165  0000		       00 04	   item_moth  equ	%00000100
   7166  0000		       00 05	   item_snake equ	%00000101
   7167  0000		       00 06	   item_bat   equ	%00000110
   7168  0000		       00 0c	   item_tentacle equ	%00001100
   7169  0000		       00 0d	   item_raft  equ	%00001101
hero.asm (7170): error: Syntax Error '%00001110 or item_mask_drlev'.
   7170  0000		       00 10	   item_miner_rt equ	%00001110 or item_mask_drlev	;=undestroyable
hero.asm (7171): error: Syntax Error '%00001111 or item_mask_drlev'.
   7171  0000		       00 10	   item_miner_lt equ	%00001111 or item_mask_drlev	;=undestroyable
   7172  0000
   7173  0000							;item record (prepared)
   7174  0000		       00 03	   items      equ	3
   7175  0000		       00 15	   itemrecsize equ	21
   7176  0000		       00 3f	   itemperlevel equ	items*itemrecsize
   7177  0000
   7178  0000
   7179  0000							;*--*--*--*--*--*--*--*--*--*--*--*--*--*--*--*--*--*--*--*--*--*--*--*--*--*--*    
   7180  0000							;
   7181  0000							;level record (prepared):
   7182  0000							;db   0		;screens in level (once per level!!!)
   7183  0000							;
   7184  0000							;db   0		;colour of this screen (every screen has its own colour)
   7185  0000							;ds   5		;5 bytes (bitmap) stage 0
   7186  0000							;ds   5		;5 bytes (bitmap) stage 1
   7187  0000							;ds   5		;5 bytes (bitmap) stage 2
   7188  0000							;
   7189  0000							;direction and crush record:
   7190  0000							;db   0,0,0,0		;up, down, left, right	;up flagged -> crushcode bit 7
   7191  0000							;db   0		;crushcounter
   7192  0000							;
   7193  0000							;item record (unprepared):
   7194  0000							;db   0		;item type (defines enemy or item and its strength)
   7195  0000							;db   0,0		;x,y - pos
   7196  0000							;db   0		;x movement one way
   7197  0000							;db   0		;y movement one way
   7198  0000							;
   7199  0000							;item record (prepared, calculated through setuplevel):
   7200  0000							;db   0		;item type (defines enemy or item and its strength)
   7201  0000							;db   0,0		;number of sprites (begins at 0), animation counter space
   7202  0000							;db   0,0		;x,y - pos
   7203  0000							;db   0,0		;x movement one way, current x space (bit 7=dir,1=left)
   7204  0000							;db   0,0		;y movement one way, current y space (bit 7=dir,1=up)
   7205  0000							;dw   0,0,0,0,0,0	;animation sprite pointer(s)
   7206  0000							;
   7207  0000
   7208  0000							;*--*--*--*--*--*--*--*--*--*--*--*--*--*--*--*--*--*--*--*--*--*--*--*--*--*--*    
hero.asm (7209): error: Unknown Mnemonic 'read'.
   7209  0000					      read	"levels.asm"
   7210  0000
   7211  0000							;-------------------------------------------------------------------------------
   7212  0000							;data puffer, free in memory
   7213  0000							;-------------------------------------------------------------------------------
   7214  0000		       00 00	   heroback   equ	$	;hero's backbuffer
   7215  0000							;givupbck equ	heroback+(&04*&18)	;give up backbuffer
   7216  0000							;ytab	   equ	givupbck+(&0f*&17)	;y-lookup table (200*2)
hero.asm (7217): error: Syntax Error ''.
hero.asm (7217): error: Syntax Error ''.
hero.asm (7217): error: Syntax Error ''.
   7217  0000		       00 00	   ytab       equ	heroback+(&04*&18)	;y-lookup table (200*2)
   7218  0000		       01 90	   curlevel   equ	ytab+(200*2)	;40 characters*3 lines*16 frames (max) 	   
   7219  0000							;
   7220  0000		       00 00	   eof	      equ	$
   7221  0000							;= EOF =========================================================================	  
